
arch/arm/mach-sunxi/pm/standby/standby.elf:     file format elf32-littlearm


Disassembly of section .text:

f0000000 <standby_main>:
f0000000:	e92d41f0 	push	{r4, r5, r6, r7, r8, lr}
f0000004:	e2505000 	subs	r5, r0, #0
f0000008:	03e00000 	mvneq	r0, #0
f000000c:	08bd81f0 	popeq	{r4, r5, r6, r7, r8, pc}
f0000010:	eb0005ad 	bl	f00016cc <mem_flush_tlb>
f0000014:	e59f3374 	ldr	r3, [pc, #884]	; f0000390 <standby_main+0x390>
f0000018:	e3a01000 	mov	r1, #0
f000001c:	e59f2370 	ldr	r2, [pc, #880]	; f0000394 <standby_main+0x394>
f0000020:	e4c31001 	strb	r1, [r3], #1
f0000024:	e1530002 	cmp	r3, r2
f0000028:	9afffffc 	bls	f0000020 <standby_main+0x20>
f000002c:	e59f6364 	ldr	r6, [pc, #868]	; f0000398 <standby_main+0x398>
f0000030:	e59f4364 	ldr	r4, [pc, #868]	; f000039c <standby_main+0x39c>
f0000034:	eb0004f9 	bl	f0001420 <save_sp>
f0000038:	e5860000 	str	r0, [r6]
f000003c:	e3a00022 	mov	r0, #34	; 0x22
f0000040:	eb0003b2 	bl	f0000f10 <save_mem_status>
f0000044:	e1a00004 	mov	r0, r4
f0000048:	e1a01005 	mov	r1, r5
f000004c:	e3a02028 	mov	r2, #40	; 0x28
f0000050:	eb0000e1 	bl	f00003dc <standby_memcpy>
f0000054:	e3a0203c 	mov	r2, #60	; 0x3c
f0000058:	e59f0340 	ldr	r0, [pc, #832]	; f00003a0 <standby_main+0x3a0>
f000005c:	e5951024 	ldr	r1, [r5, #36]	; 0x24
f0000060:	eb0000dd 	bl	f00003dc <standby_memcpy>
f0000064:	eb0005a1 	bl	f00016f0 <mem_preload_tlb>
f0000068:	e3a01000 	mov	r1, #0
f000006c:	e3a00001 	mov	r0, #1
f0000070:	eb000442 	bl	f0001180 <init_perfcounters>
f0000074:	eb0000e4 	bl	f000040c <standby_clk_init>
f0000078:	e3a00001 	mov	r0, #1
f000007c:	eb000b37 	bl	f0002d60 <mem_clk_init>
f0000080:	eb000c1f 	bl	f0003104 <standby_arisc_init>
f0000084:	e3a00023 	mov	r0, #35	; 0x23
f0000088:	eb0003a0 	bl	f0000f10 <save_mem_status>
f000008c:	e5943008 	ldr	r3, [r4, #8]
f0000090:	e3130001 	tst	r3, #1
f0000094:	1a000081 	bne	f00002a0 <standby_main+0x2a0>
f0000098:	e5943018 	ldr	r3, [r4, #24]
f000009c:	e3530000 	cmp	r3, #0
f00000a0:	0a000008 	beq	f00000c8 <standby_main+0xc8>
f00000a4:	e59f02f8 	ldr	r0, [pc, #760]	; f00003a4 <standby_main+0x3a4>
f00000a8:	eb000818 	bl	f0002110 <printk>
f00000ac:	e3a01b01 	mov	r1, #1024	; 0x400
f00000b0:	e59f02f0 	ldr	r0, [pc, #752]	; f00003a8 <standby_main+0x3a8>
f00000b4:	e34c1308 	movt	r1, #49928	; 0xc308
f00000b8:	e3a02f71 	mov	r2, #452	; 0x1c4
f00000bc:	eb0000c6 	bl	f00003dc <standby_memcpy>
f00000c0:	e3a00026 	mov	r0, #38	; 0x26
f00000c4:	eb000391 	bl	f0000f10 <save_mem_status>
f00000c8:	e3a00027 	mov	r0, #39	; 0x27
f00000cc:	eb00038f 	bl	f0000f10 <save_mem_status>
f00000d0:	e5943008 	ldr	r3, [r4, #8]
f00000d4:	e3130020 	tst	r3, #32
f00000d8:	1a000058 	bne	f0000240 <standby_main+0x240>
f00000dc:	e3a00028 	mov	r0, #40	; 0x28
f00000e0:	eb00038a 	bl	f0000f10 <save_mem_status>
f00000e4:	e59f32c0 	ldr	r3, [pc, #704]	; f00003ac <standby_main+0x3ac>
f00000e8:	e594c004 	ldr	ip, [r4, #4]
f00000ec:	e594100c 	ldr	r1, [r4, #12]
f00000f0:	e5942010 	ldr	r2, [r4, #16]
f00000f4:	e1a00003 	mov	r0, r3
f00000f8:	e583c000 	str	ip, [r3]
f00000fc:	e9830006 	stmib	r3, {r1, r2}
f0000100:	eb000c7b 	bl	f00032f4 <standby_arisc_standby_normal>
f0000104:	e320f003 	wfi
f0000108:	eb0000d3 	bl	f000045c <standby_clk_ldoenable>
f000010c:	eb0000e0 	bl	f0000494 <standby_clk_pll1enable>
f0000110:	e3a00001 	mov	r0, #1
f0000114:	e3a07000 	mov	r7, #0
f0000118:	eb00096e 	bl	f00026d8 <standby_delay_cycle>
f000011c:	eb0000c6 	bl	f000043c <standby_clk_core2hosc>
f0000120:	e59f0288 	ldr	r0, [pc, #648]	; f00003b0 <standby_main+0x3b0>
f0000124:	e34f71c2 	movt	r7, #61890	; 0xf1c2
f0000128:	eb000c4a 	bl	f0003258 <standby_arisc_query_wakeup_src>
f000012c:	e3a00041 	mov	r0, #65	; 0x41
f0000130:	eb000376 	bl	f0000f10 <save_mem_status>
f0000134:	eb000abd 	bl	f0002c30 <mem_tmr_enable_watchdog>
f0000138:	e3a00042 	mov	r0, #66	; 0x42
f000013c:	eb000373 	bl	f0000f10 <save_mem_status>
f0000140:	e3a00004 	mov	r0, #4
f0000144:	eb000c04 	bl	f000315c <standby_arisc_notify_restore>
f0000148:	e3a00043 	mov	r0, #67	; 0x43
f000014c:	eb00036f 	bl	f0000f10 <save_mem_status>
f0000150:	e3a03000 	mov	r3, #0
f0000154:	e3a00051 	mov	r0, #81	; 0x51
f0000158:	e5843000 	str	r3, [r4]
f000015c:	eb000a30 	bl	f0002a24 <mem_query_int>
f0000160:	e2708001 	rsbs	r8, r0, #1
f0000164:	e3a0004a 	mov	r0, #74	; 0x4a
f0000168:	33a08000 	movcc	r8, #0
f000016c:	e5848000 	str	r8, [r4]
f0000170:	eb000a2b 	bl	f0002a24 <mem_query_int>
f0000174:	e3500000 	cmp	r0, #0
f0000178:	e3a00044 	mov	r0, #68	; 0x44
f000017c:	03a03002 	moveq	r3, #2
f0000180:	13a03000 	movne	r3, #0
f0000184:	e1838008 	orr	r8, r3, r8
f0000188:	e5848000 	str	r8, [r4]
f000018c:	eb00035f 	bl	f0000f10 <save_mem_status>
f0000190:	ea000001 	b	f000019c <standby_main+0x19c>
f0000194:	e3130001 	tst	r3, #1
f0000198:	1a000021 	bne	f0000224 <standby_main+0x224>
f000019c:	eb000c0c 	bl	f00031d4 <standby_arisc_check_restore_status>
f00001a0:	e3500000 	cmp	r0, #0
f00001a4:	e5943008 	ldr	r3, [r4, #8]
f00001a8:	1afffff9 	bne	f0000194 <standby_main+0x194>
f00001ac:	e3130020 	tst	r3, #32
f00001b0:	1a000048 	bne	f00002d8 <standby_main+0x2d8>
f00001b4:	e3a00045 	mov	r0, #69	; 0x45
f00001b8:	eb000354 	bl	f0000f10 <save_mem_status>
f00001bc:	eb000aad 	bl	f0002c78 <mem_tmr_disable_watchdog>
f00001c0:	e5943008 	ldr	r3, [r4, #8]
f00001c4:	e3130001 	tst	r3, #1
f00001c8:	1a00003f 	bne	f00002cc <standby_main+0x2cc>
f00001cc:	e5960000 	ldr	r0, [r6]
f00001d0:	eb000498 	bl	f0001438 <restore_sp>
f00001d4:	e5943008 	ldr	r3, [r4, #8]
f00001d8:	e3130001 	tst	r3, #1
f00001dc:	1a000038 	bne	f00002c4 <standby_main+0x2c4>
f00001e0:	eb000bd2 	bl	f0003130 <standby_arisc_exit>
f00001e4:	e5943004 	ldr	r3, [r4, #4]
f00001e8:	e3a0002c 	mov	r0, #44	; 0x2c
f00001ec:	e5942000 	ldr	r2, [r4]
f00001f0:	e885000c 	stm	r5, {r2, r3}
f00001f4:	eb000345 	bl	f0000f10 <save_mem_status>
f00001f8:	e5943008 	ldr	r3, [r4, #8]
f00001fc:	e2133b02 	ands	r3, r3, #2048	; 0x800
f0000200:	0a00002d 	beq	f00002bc <standby_main+0x2bc>
f0000204:	e3a00001 	mov	r0, #1
f0000208:	e3a01000 	mov	r1, #0
f000020c:	eb0003db 	bl	f0001180 <init_perfcounters>
f0000210:	eb0003fd 	bl	f000120c <change_runtime_env>
f0000214:	e3a00005 	mov	r0, #5
f0000218:	eb00042a 	bl	f00012c8 <delay_ms>
f000021c:	e3a00000 	mov	r0, #0
f0000220:	e8bd81f0 	pop	{r4, r5, r6, r7, r8, pc}
f0000224:	e5971050 	ldr	r1, [r7, #80]	; 0x50
f0000228:	e59f0184 	ldr	r0, [pc, #388]	; f00003b4 <standby_main+0x3b4>
f000022c:	eb0007b7 	bl	f0002110 <printk>
f0000230:	e5971000 	ldr	r1, [r7]
f0000234:	e59f017c 	ldr	r0, [pc, #380]	; f00003b8 <standby_main+0x3b8>
f0000238:	eb0007b4 	bl	f0002110 <printk>
f000023c:	eaffffd6 	b	f000019c <standby_main+0x19c>
f0000240:	e3a00003 	mov	r0, #3
f0000244:	eb000437 	bl	f0001328 <set_event_counter>
f0000248:	e3a00005 	mov	r0, #5
f000024c:	eb000435 	bl	f0001328 <set_event_counter>
f0000250:	e3a00001 	mov	r0, #1
f0000254:	eb000433 	bl	f0001328 <set_event_counter>
f0000258:	e3a00002 	mov	r0, #2
f000025c:	eb000431 	bl	f0001328 <set_event_counter>
f0000260:	e3a01000 	mov	r1, #0
f0000264:	e3a00001 	mov	r0, #1
f0000268:	eb000423 	bl	f00012fc <init_event_counter>
f000026c:	e3a00003 	mov	r0, #3
f0000270:	eb000437 	bl	f0001354 <get_event_counter>
f0000274:	e5860004 	str	r0, [r6, #4]
f0000278:	e3a00005 	mov	r0, #5
f000027c:	eb000434 	bl	f0001354 <get_event_counter>
f0000280:	e5860008 	str	r0, [r6, #8]
f0000284:	e3a00002 	mov	r0, #2
f0000288:	eb000431 	bl	f0001354 <get_event_counter>
f000028c:	e586000c 	str	r0, [r6, #12]
f0000290:	e3a00001 	mov	r0, #1
f0000294:	eb00042e 	bl	f0001354 <get_event_counter>
f0000298:	e5860010 	str	r0, [r6, #16]
f000029c:	eaffff8e 	b	f00000dc <standby_main+0xdc>
f00002a0:	eb00068b 	bl	f0001cd4 <serial_init_manager>
f00002a4:	e5941000 	ldr	r1, [r4]
f00002a8:	e59f010c 	ldr	r0, [pc, #268]	; f00003bc <standby_main+0x3bc>
f00002ac:	eb000797 	bl	f0002110 <printk>
f00002b0:	e3a00025 	mov	r0, #37	; 0x25
f00002b4:	eb000315 	bl	f0000f10 <save_mem_status>
f00002b8:	eaffff76 	b	f0000098 <standby_main+0x98>
f00002bc:	e1a00003 	mov	r0, r3
f00002c0:	e8bd81f0 	pop	{r4, r5, r6, r7, r8, pc}
f00002c4:	eb000687 	bl	f0001ce8 <serial_exit_manager>
f00002c8:	eaffffc4 	b	f00001e0 <standby_main+0x1e0>
f00002cc:	e59f00ec 	ldr	r0, [pc, #236]	; f00003c0 <standby_main+0x3c0>
f00002d0:	eb00078e 	bl	f0002110 <printk>
f00002d4:	eaffffbc 	b	f00001cc <standby_main+0x1cc>
f00002d8:	e3a00003 	mov	r0, #3
f00002dc:	e59f70b4 	ldr	r7, [pc, #180]	; f0000398 <standby_main+0x398>
f00002e0:	eb00041b 	bl	f0001354 <get_event_counter>
f00002e4:	e5860014 	str	r0, [r6, #20]
f00002e8:	e3a00005 	mov	r0, #5
f00002ec:	eb000418 	bl	f0001354 <get_event_counter>
f00002f0:	e5860018 	str	r0, [r6, #24]
f00002f4:	e3a00002 	mov	r0, #2
f00002f8:	eb000415 	bl	f0001354 <get_event_counter>
f00002fc:	e586001c 	str	r0, [r6, #28]
f0000300:	e3a00001 	mov	r0, #1
f0000304:	eb000412 	bl	f0001354 <get_event_counter>
f0000308:	e5963014 	ldr	r3, [r6, #20]
f000030c:	e5860020 	str	r0, [r6, #32]
f0000310:	e3530000 	cmp	r3, #0
f0000314:	1a000007 	bne	f0000338 <standby_main+0x338>
f0000318:	e5973018 	ldr	r3, [r7, #24]
f000031c:	e3530000 	cmp	r3, #0
f0000320:	1a000004 	bne	f0000338 <standby_main+0x338>
f0000324:	e597301c 	ldr	r3, [r7, #28]
f0000328:	e3530000 	cmp	r3, #0
f000032c:	1a000001 	bne	f0000338 <standby_main+0x338>
f0000330:	e3500000 	cmp	r0, #0
f0000334:	0a000012 	beq	f0000384 <standby_main+0x384>
f0000338:	e59f0084 	ldr	r0, [pc, #132]	; f00003c4 <standby_main+0x3c4>
f000033c:	eb000773 	bl	f0002110 <printk>
f0000340:	e5961004 	ldr	r1, [r6, #4]
f0000344:	e5962014 	ldr	r2, [r6, #20]
f0000348:	e59f0078 	ldr	r0, [pc, #120]	; f00003c8 <standby_main+0x3c8>
f000034c:	eb00076f 	bl	f0002110 <printk>
f0000350:	e5961008 	ldr	r1, [r6, #8]
f0000354:	e5962018 	ldr	r2, [r6, #24]
f0000358:	e59f006c 	ldr	r0, [pc, #108]	; f00003cc <standby_main+0x3cc>
f000035c:	eb00076b 	bl	f0002110 <printk>
f0000360:	e5961010 	ldr	r1, [r6, #16]
f0000364:	e5962020 	ldr	r2, [r6, #32]
f0000368:	e59f0060 	ldr	r0, [pc, #96]	; f00003d0 <standby_main+0x3d0>
f000036c:	eb000767 	bl	f0002110 <printk>
f0000370:	e596100c 	ldr	r1, [r6, #12]
f0000374:	e596201c 	ldr	r2, [r6, #28]
f0000378:	e59f0054 	ldr	r0, [pc, #84]	; f00003d4 <standby_main+0x3d4>
f000037c:	eb000763 	bl	f0002110 <printk>
f0000380:	eaffff8b 	b	f00001b4 <standby_main+0x1b4>
f0000384:	e59f004c 	ldr	r0, [pc, #76]	; f00003d8 <standby_main+0x3d8>
f0000388:	eb000760 	bl	f0002110 <printk>
f000038c:	eaffff88 	b	f00001b4 <standby_main+0x1b4>
f0000390:	f0003ce8 			; <UNDEFINED> instruction: 0xf0003ce8
f0000394:	f0004100 			; <UNDEFINED> instruction: 0xf0004100
f0000398:	f0003ce8 			; <UNDEFINED> instruction: 0xf0003ce8
f000039c:	f00040c4 			; <UNDEFINED> instruction: 0xf00040c4
f00003a0:	f0004088 			; <UNDEFINED> instruction: 0xf0004088
f00003a4:	f00039f4 			; <UNDEFINED> instruction: 0xf00039f4
f00003a8:	f0003ec4 			; <UNDEFINED> instruction: 0xf0003ec4
f00003ac:	f00040ec 			; <UNDEFINED> instruction: 0xf00040ec
f00003b0:	f00040c8 			; <UNDEFINED> instruction: 0xf00040c8
f00003b4:	f0003a10 			; <UNDEFINED> instruction: 0xf0003a10
f00003b8:	f0003a2c 			; <UNDEFINED> instruction: 0xf0003a2c
f00003bc:	f00039c8 			; <UNDEFINED> instruction: 0xf00039c8
f00003c0:	f0003b68 			; <UNDEFINED> instruction: 0xf0003b68
f00003c4:	f0003a48 			; <UNDEFINED> instruction: 0xf0003a48
f00003c8:	f0003a94 			; <UNDEFINED> instruction: 0xf0003a94
f00003cc:	f0003ac8 			; <UNDEFINED> instruction: 0xf0003ac8
f00003d0:	f0003af8 			; <UNDEFINED> instruction: 0xf0003af8
f00003d4:	f0003b2c 			; <UNDEFINED> instruction: 0xf0003b2c
f00003d8:	f0003b5c 			; <UNDEFINED> instruction: 0xf0003b5c

f00003dc <standby_memcpy>:
f00003dc:	e3500000 	cmp	r0, #0
f00003e0:	13510000 	cmpne	r1, #0
f00003e4:	012fff1e 	bxeq	lr
f00003e8:	e3520000 	cmp	r2, #0
f00003ec:	d12fff1e 	bxle	lr
f00003f0:	e2411001 	sub	r1, r1, #1
f00003f4:	e0802002 	add	r2, r0, r2
f00003f8:	e5f13001 	ldrb	r3, [r1, #1]!
f00003fc:	e4c03001 	strb	r3, [r0], #1
f0000400:	e1500002 	cmp	r0, r2
f0000404:	1afffffb 	bne	f00003f8 <standby_memcpy+0x1c>
f0000408:	e12fff1e 	bx	lr

f000040c <standby_clk_init>:
f000040c:	e3033d0c 	movw	r3, #15628	; 0x3d0c
f0000410:	e3a01b05 	mov	r1, #5120	; 0x1400
f0000414:	e3a02000 	mov	r2, #0
f0000418:	e34f3000 	movt	r3, #61440	; 0xf000
f000041c:	e34f11f0 	movt	r1, #61936	; 0xf1f0
f0000420:	e34f21c2 	movt	r2, #61890	; 0xf1c2
f0000424:	e5831000 	str	r1, [r3]
f0000428:	e3a00000 	mov	r0, #0
f000042c:	e5832004 	str	r2, [r3, #4]
f0000430:	e12fff1e 	bx	lr

f0000434 <standby_clk_exit>:
f0000434:	e3a00000 	mov	r0, #0
f0000438:	e12fff1e 	bx	lr

f000043c <standby_clk_core2hosc>:
f000043c:	e3033d0c 	movw	r3, #15628	; 0x3d0c
f0000440:	e34f3000 	movt	r3, #61440	; 0xf000
f0000444:	e5932004 	ldr	r2, [r3, #4]
f0000448:	e5921050 	ldr	r1, [r2, #80]	; 0x50
f000044c:	e3811a01 	orr	r1, r1, #4096	; 0x1000
f0000450:	e5831008 	str	r1, [r3, #8]
f0000454:	e5821050 	str	r1, [r2, #80]	; 0x50
f0000458:	e12fff1e 	bx	lr

f000045c <standby_clk_ldoenable>:
f000045c:	e3033d0c 	movw	r3, #15628	; 0x3d0c
f0000460:	e34f3000 	movt	r3, #61440	; 0xf000
f0000464:	e5933000 	ldr	r3, [r3]
f0000468:	e5932044 	ldr	r2, [r3, #68]	; 0x44
f000046c:	e3c224ff 	bic	r2, r2, #-16777216	; 0xff000000
f0000470:	e38224a7 	orr	r2, r2, #-1493172224	; 0xa7000000
f0000474:	e5832044 	str	r2, [r3, #68]	; 0x44
f0000478:	e5932044 	ldr	r2, [r3, #68]	; 0x44
f000047c:	e3822007 	orr	r2, r2, #7
f0000480:	e5832044 	str	r2, [r3, #68]	; 0x44
f0000484:	e5932044 	ldr	r2, [r3, #68]	; 0x44
f0000488:	e3c224ff 	bic	r2, r2, #-16777216	; 0xff000000
f000048c:	e5832044 	str	r2, [r3, #68]	; 0x44
f0000490:	e12fff1e 	bx	lr

f0000494 <standby_clk_pll1enable>:
f0000494:	e3033d0c 	movw	r3, #15628	; 0x3d0c
f0000498:	e34f3000 	movt	r3, #61440	; 0xf000
f000049c:	e5932004 	ldr	r2, [r3, #4]
f00004a0:	e5921000 	ldr	r1, [r2]
f00004a4:	e3811102 	orr	r1, r1, #-2147483648	; 0x80000000
f00004a8:	e583100c 	str	r1, [r3, #12]
f00004ac:	e5821000 	str	r1, [r2]
f00004b0:	e12fff1e 	bx	lr

f00004b4 <standby_ir_init>:
f00004b4:	e3a00000 	mov	r0, #0
f00004b8:	e12fff1e 	bx	lr

f00004bc <standby_ir_exit>:
f00004bc:	e3a00000 	mov	r0, #0
f00004c0:	e12fff1e 	bx	lr

f00004c4 <standby_ir_detect>:
f00004c4:	e3a00000 	mov	r0, #0
f00004c8:	e12fff1e 	bx	lr

f00004cc <standby_ir_verify>:
f00004cc:	e3e00000 	mvn	r0, #0
f00004d0:	e12fff1e 	bx	lr

f00004d4 <standby_key_init>:
f00004d4:	e92d4038 	push	{r3, r4, r5, lr}
f00004d8:	e3a0320f 	mov	r3, #-268435456	; 0xf0000000
f00004dc:	e5932000 	ldr	r2, [r3]
f00004e0:	e3034d1c 	movw	r4, #15644	; 0x3d1c
f00004e4:	e34f4000 	movt	r4, #61440	; 0xf000
f00004e8:	e3a05000 	mov	r5, #0
f00004ec:	e5843000 	str	r3, [r4]
f00004f0:	e5842004 	str	r2, [r4, #4]
f00004f4:	e5932004 	ldr	r2, [r3, #4]
f00004f8:	e5842008 	str	r2, [r4, #8]
f00004fc:	e5835000 	str	r5, [r3]
f0000500:	eb000341 	bl	f000120c <change_runtime_env>
f0000504:	e3a0000a 	mov	r0, #10
f0000508:	eb00036e 	bl	f00012c8 <delay_ms>
f000050c:	e5943000 	ldr	r3, [r4]
f0000510:	e3a02002 	mov	r2, #2
f0000514:	e3a01041 	mov	r1, #65	; 0x41
f0000518:	e1a00005 	mov	r0, r5
f000051c:	e5831000 	str	r1, [r3]
f0000520:	e5832004 	str	r2, [r3, #4]
f0000524:	e5832008 	str	r2, [r3, #8]
f0000528:	e8bd8038 	pop	{r3, r4, r5, pc}

f000052c <standby_key_exit>:
f000052c:	e3033d1c 	movw	r3, #15644	; 0x3d1c
f0000530:	e3a00000 	mov	r0, #0
f0000534:	e34f3000 	movt	r3, #61440	; 0xf000
f0000538:	e5932000 	ldr	r2, [r3]
f000053c:	e993000a 	ldmib	r3, {r1, r3}
f0000540:	e5821000 	str	r1, [r2]
f0000544:	e5823004 	str	r3, [r2, #4]
f0000548:	e12fff1e 	bx	lr

f000054c <standby_query_key>:
f000054c:	e59f301c 	ldr	r3, [pc, #28]	; f0000570 <standby_query_key+0x24>
f0000550:	e5933000 	ldr	r3, [r3]
f0000554:	e5932008 	ldr	r2, [r3, #8]
f0000558:	e3120002 	tst	r2, #2
f000055c:	13a02002 	movne	r2, #2
f0000560:	13a00000 	movne	r0, #0
f0000564:	15832008 	strne	r2, [r3, #8]
f0000568:	03e00000 	mvneq	r0, #0
f000056c:	e12fff1e 	bx	lr
f0000570:	f0003d1c 			; <UNDEFINED> instruction: 0xf0003d1c

f0000574 <axp209_set_voltage>:
f0000574:	e59f318c 	ldr	r3, [pc, #396]	; f0000708 <axp209_set_voltage+0x194>
f0000578:	e92d40f0 	push	{r4, r5, r6, r7, lr}
f000057c:	e24dd00c 	sub	sp, sp, #12
f0000580:	e5932000 	ldr	r2, [r3]
f0000584:	e1500002 	cmp	r0, r2
f0000588:	0a00000c 	beq	f00005c0 <axp209_set_voltage+0x4c>
f000058c:	e3a0c001 	mov	ip, #1
f0000590:	e1a0200c 	mov	r2, ip
f0000594:	e06c418c 	rsb	r4, ip, ip, lsl #3
f0000598:	e2822001 	add	r2, r2, #1
f000059c:	e1a0c002 	mov	ip, r2
f00005a0:	e7935104 	ldr	r5, [r3, r4, lsl #2]
f00005a4:	e0834104 	add	r4, r3, r4, lsl #2
f00005a8:	e1500005 	cmp	r0, r5
f00005ac:	0a000004 	beq	f00005c4 <axp209_set_voltage+0x50>
f00005b0:	e3520006 	cmp	r2, #6
f00005b4:	1afffff6 	bne	f0000594 <axp209_set_voltage+0x20>
f00005b8:	e28dd00c 	add	sp, sp, #12
f00005bc:	e8bd80f0 	pop	{r4, r5, r6, r7, pc}
f00005c0:	e1a04003 	mov	r4, r3
f00005c4:	e5942004 	ldr	r2, [r4, #4]
f00005c8:	e1510002 	cmp	r1, r2
f00005cc:	bafffff9 	blt	f00005b8 <axp209_set_voltage+0x44>
f00005d0:	e5943008 	ldr	r3, [r4, #8]
f00005d4:	e1510003 	cmp	r1, r3
f00005d8:	cafffff6 	bgt	f00005b8 <axp209_set_voltage+0x44>
f00005dc:	e3500005 	cmp	r0, #5
f00005e0:	0a000021 	beq	f000066c <axp209_set_voltage+0xf8>
f00005e4:	e594300c 	ldr	r3, [r4, #12]
f00005e8:	e0622001 	rsb	r2, r2, r1
f00005ec:	e0820003 	add	r0, r2, r3
f00005f0:	e1a01003 	mov	r1, r3
f00005f4:	e2400001 	sub	r0, r0, #1
f00005f8:	eb0008a6 	bl	f0002898 <raw_lib_udiv>
f00005fc:	e594c014 	ldr	ip, [r4, #20]
f0000600:	e6ef7070 	uxtb	r7, r0
f0000604:	e1a07c17 	lsl	r7, r7, ip
f0000608:	e6ef7077 	uxtb	r7, r7
f000060c:	e5946018 	ldr	r6, [r4, #24]
f0000610:	e3a05001 	mov	r5, #1
f0000614:	e5d42010 	ldrb	r2, [r4, #16]
f0000618:	e28d3007 	add	r3, sp, #7
f000061c:	e3a00000 	mov	r0, #0
f0000620:	e3a01034 	mov	r1, #52	; 0x34
f0000624:	e1a06615 	lsl	r6, r5, r6
f0000628:	e2466001 	sub	r6, r6, #1
f000062c:	e1a06c16 	lsl	r6, r6, ip
f0000630:	eb00013e 	bl	f0000b30 <twi_byte_rw>
f0000634:	e5dd3007 	ldrb	r3, [sp, #7]
f0000638:	e6ef6076 	uxtb	r6, r6
f000063c:	e0062003 	and	r2, r6, r3
f0000640:	e1520007 	cmp	r2, r7
f0000644:	0affffdb 	beq	f00005b8 <axp209_set_voltage+0x44>
f0000648:	e1c33006 	bic	r3, r3, r6
f000064c:	e1a00005 	mov	r0, r5
f0000650:	e1837007 	orr	r7, r3, r7
f0000654:	e3a01034 	mov	r1, #52	; 0x34
f0000658:	e5d42010 	ldrb	r2, [r4, #16]
f000065c:	e28d3007 	add	r3, sp, #7
f0000660:	e5cd7007 	strb	r7, [sp, #7]
f0000664:	eb000131 	bl	f0000b30 <twi_byte_rw>
f0000668:	eaffffd2 	b	f00005b8 <axp209_set_voltage+0x44>
f000066c:	e30034e2 	movw	r3, #1250	; 0x4e2
f0000670:	e1510003 	cmp	r1, r3
f0000674:	0a00000e 	beq	f00006b4 <axp209_set_voltage+0x140>
f0000678:	e594300c 	ldr	r3, [r4, #12]
f000067c:	e0830001 	add	r0, r3, r1
f0000680:	e1a01003 	mov	r1, r3
f0000684:	e2400e4b 	sub	r0, r0, #1200	; 0x4b0
f0000688:	e2400001 	sub	r0, r0, #1
f000068c:	eb000881 	bl	f0002898 <raw_lib_udiv>
f0000690:	e6ef0070 	uxtb	r0, r0
f0000694:	e594c014 	ldr	ip, [r4, #20]
f0000698:	e3500010 	cmp	r0, #16
f000069c:	9a000007 	bls	f00006c0 <axp209_set_voltage+0x14c>
f00006a0:	e2400006 	sub	r0, r0, #6
f00006a4:	e6ef7070 	uxtb	r7, r0
f00006a8:	e1a07c17 	lsl	r7, r7, ip
f00006ac:	e6ef7077 	uxtb	r7, r7
f00006b0:	eaffffd5 	b	f000060c <axp209_set_voltage+0x98>
f00006b4:	e594c014 	ldr	ip, [r4, #20]
f00006b8:	e3a07000 	mov	r7, #0
f00006bc:	eaffffd2 	b	f000060c <axp209_set_voltage+0x98>
f00006c0:	e350000d 	cmp	r0, #13
f00006c4:	8a00000a 	bhi	f00006f4 <axp209_set_voltage+0x180>
f00006c8:	03a07009 	moveq	r7, #9
f00006cc:	01a07c17 	lsleq	r7, r7, ip
f00006d0:	06ef7077 	uxtbeq	r7, r7
f00006d4:	0affffcc 	beq	f000060c <axp209_set_voltage+0x98>
f00006d8:	e3500008 	cmp	r0, #8
f00006dc:	83a07008 	movhi	r7, #8
f00006e0:	91a00c10 	lslls	r0, r0, ip
f00006e4:	81a07c17 	lslhi	r7, r7, ip
f00006e8:	96ef7070 	uxtbls	r7, r0
f00006ec:	86ef7077 	uxtbhi	r7, r7
f00006f0:	eaffffc5 	b	f000060c <axp209_set_voltage+0x98>
f00006f4:	e2400005 	sub	r0, r0, #5
f00006f8:	e6ef7070 	uxtb	r7, r0
f00006fc:	e1a07c17 	lsl	r7, r7, ip
f0000700:	e6ef7077 	uxtb	r7, r7
f0000704:	eaffffc0 	b	f000060c <axp209_set_voltage+0x98>
f0000708:	f0003c3c 			; <UNDEFINED> instruction: 0xf0003c3c

f000070c <axp209_get_voltage>:
f000070c:	e59f30a0 	ldr	r3, [pc, #160]	; f00007b4 <axp209_get_voltage+0xa8>
f0000710:	e92d4030 	push	{r4, r5, lr}
f0000714:	e1a04000 	mov	r4, r0
f0000718:	e24dd00c 	sub	sp, sp, #12
f000071c:	e5932000 	ldr	r2, [r3]
f0000720:	e1500002 	cmp	r0, r2
f0000724:	0a00000d 	beq	f0000760 <axp209_get_voltage+0x54>
f0000728:	e3a01001 	mov	r1, #1
f000072c:	e1a02001 	mov	r2, r1
f0000730:	e0615181 	rsb	r5, r1, r1, lsl #3
f0000734:	e2822001 	add	r2, r2, #1
f0000738:	e1a01002 	mov	r1, r2
f000073c:	e7930105 	ldr	r0, [r3, r5, lsl #2]
f0000740:	e0835105 	add	r5, r3, r5, lsl #2
f0000744:	e1540000 	cmp	r4, r0
f0000748:	0a000005 	beq	f0000764 <axp209_get_voltage+0x58>
f000074c:	e3520006 	cmp	r2, #6
f0000750:	1afffff6 	bne	f0000730 <axp209_get_voltage+0x24>
f0000754:	e3e00000 	mvn	r0, #0
f0000758:	e28dd00c 	add	sp, sp, #12
f000075c:	e8bd8030 	pop	{r4, r5, pc}
f0000760:	e1a05003 	mov	r5, r3
f0000764:	e3a01034 	mov	r1, #52	; 0x34
f0000768:	e5d52010 	ldrb	r2, [r5, #16]
f000076c:	e28d3007 	add	r3, sp, #7
f0000770:	e3a00000 	mov	r0, #0
f0000774:	eb0000ed 	bl	f0000b30 <twi_byte_rw>
f0000778:	e5952018 	ldr	r2, [r5, #24]
f000077c:	e3e00000 	mvn	r0, #0
f0000780:	e5953014 	ldr	r3, [r5, #20]
f0000784:	e3540005 	cmp	r4, #5
f0000788:	e5dd1007 	ldrb	r1, [sp, #7]
f000078c:	e1e02210 	mvn	r2, r0, lsl r2
f0000790:	1595000c 	ldrne	r0, [r5, #12]
f0000794:	e0012312 	and	r2, r1, r2, lsl r3
f0000798:	e1a03352 	asr	r3, r2, r3
f000079c:	15952004 	ldrne	r2, [r5, #4]
f00007a0:	059f2010 	ldreq	r2, [pc, #16]	; f00007b8 <axp209_get_voltage+0xac>
f00007a4:	e6ef3073 	uxtb	r3, r3
f00007a8:	10202390 	mlane	r0, r0, r3, r2
f00007ac:	07920103 	ldreq	r0, [r2, r3, lsl #2]
f00007b0:	eaffffe8 	b	f0000758 <axp209_get_voltage+0x4c>
f00007b4:	f0003c3c 			; <UNDEFINED> instruction: 0xf0003c3c
f00007b8:	f0003960 			; <UNDEFINED> instruction: 0xf0003960

f00007bc <axp209_set_volt>:
f00007bc:	e92d4038 	push	{r3, r4, r5, lr}
f00007c0:	e1a04000 	mov	r4, r0
f00007c4:	e2444001 	sub	r4, r4, #1
f00007c8:	e3a0002a 	mov	r0, #42	; 0x2a
f00007cc:	e1a05001 	mov	r5, r1
f00007d0:	eb0001ce 	bl	f0000f10 <save_mem_status>
f00007d4:	e354001f 	cmp	r4, #31
f00007d8:	979ff104 	ldrls	pc, [pc, r4, lsl #2]
f00007dc:	ea000028 	b	f0000884 <axp209_set_volt+0xc8>
f00007e0:	f000088c 			; <UNDEFINED> instruction: 0xf000088c
f00007e4:	f00008b8 			; <UNDEFINED> instruction: 0xf00008b8
f00007e8:	f0000884 			; <UNDEFINED> instruction: 0xf0000884
f00007ec:	f00008e8 			; <UNDEFINED> instruction: 0xf00008e8
f00007f0:	f0000884 			; <UNDEFINED> instruction: 0xf0000884
f00007f4:	f0000884 			; <UNDEFINED> instruction: 0xf0000884
f00007f8:	f0000884 			; <UNDEFINED> instruction: 0xf0000884
f00007fc:	f0000918 			; <UNDEFINED> instruction: 0xf0000918
f0000800:	f0000884 			; <UNDEFINED> instruction: 0xf0000884
f0000804:	f0000884 			; <UNDEFINED> instruction: 0xf0000884
f0000808:	f0000884 			; <UNDEFINED> instruction: 0xf0000884
f000080c:	f0000884 			; <UNDEFINED> instruction: 0xf0000884
f0000810:	f0000884 			; <UNDEFINED> instruction: 0xf0000884
f0000814:	f0000884 			; <UNDEFINED> instruction: 0xf0000884
f0000818:	f0000884 			; <UNDEFINED> instruction: 0xf0000884
f000081c:	f0000948 			; <UNDEFINED> instruction: 0xf0000948
f0000820:	f0000884 			; <UNDEFINED> instruction: 0xf0000884
f0000824:	f0000884 			; <UNDEFINED> instruction: 0xf0000884
f0000828:	f0000884 			; <UNDEFINED> instruction: 0xf0000884
f000082c:	f0000884 			; <UNDEFINED> instruction: 0xf0000884
f0000830:	f0000884 			; <UNDEFINED> instruction: 0xf0000884
f0000834:	f0000884 			; <UNDEFINED> instruction: 0xf0000884
f0000838:	f0000884 			; <UNDEFINED> instruction: 0xf0000884
f000083c:	f0000884 			; <UNDEFINED> instruction: 0xf0000884
f0000840:	f0000884 			; <UNDEFINED> instruction: 0xf0000884
f0000844:	f0000884 			; <UNDEFINED> instruction: 0xf0000884
f0000848:	f0000884 			; <UNDEFINED> instruction: 0xf0000884
f000084c:	f0000884 			; <UNDEFINED> instruction: 0xf0000884
f0000850:	f0000884 			; <UNDEFINED> instruction: 0xf0000884
f0000854:	f0000884 			; <UNDEFINED> instruction: 0xf0000884
f0000858:	f0000884 			; <UNDEFINED> instruction: 0xf0000884
f000085c:	f0000860 			; <UNDEFINED> instruction: 0xf0000860
f0000860:	e59f4120 	ldr	r4, [pc, #288]	; f0000988 <axp209_set_volt+0x1cc>
f0000864:	e5943014 	ldr	r3, [r4, #20]
f0000868:	e3530000 	cmp	r3, #0
f000086c:	0a000041 	beq	f0000978 <axp209_set_volt+0x1bc>
f0000870:	e3a00005 	mov	r0, #5
f0000874:	e1a01005 	mov	r1, r5
f0000878:	ebffff3d 	bl	f0000574 <axp209_set_voltage>
f000087c:	e3a00000 	mov	r0, #0
f0000880:	e8bd8038 	pop	{r3, r4, r5, pc}
f0000884:	e3e00000 	mvn	r0, #0
f0000888:	e8bd8038 	pop	{r3, r4, r5, pc}
f000088c:	e59f40f4 	ldr	r4, [pc, #244]	; f0000988 <axp209_set_volt+0x1cc>
f0000890:	e5940000 	ldr	r0, [r4]
f0000894:	e3500000 	cmp	r0, #0
f0000898:	1a000001 	bne	f00008a4 <axp209_set_volt+0xe8>
f000089c:	ebffff9a 	bl	f000070c <axp209_get_voltage>
f00008a0:	e5840000 	str	r0, [r4]
f00008a4:	e3a00000 	mov	r0, #0
f00008a8:	e1a01005 	mov	r1, r5
f00008ac:	ebffff30 	bl	f0000574 <axp209_set_voltage>
f00008b0:	e3a00000 	mov	r0, #0
f00008b4:	e8bd8038 	pop	{r3, r4, r5, pc}
f00008b8:	e59f40c8 	ldr	r4, [pc, #200]	; f0000988 <axp209_set_volt+0x1cc>
f00008bc:	e5943004 	ldr	r3, [r4, #4]
f00008c0:	e3530000 	cmp	r3, #0
f00008c4:	1a000002 	bne	f00008d4 <axp209_set_volt+0x118>
f00008c8:	e3a00001 	mov	r0, #1
f00008cc:	ebffff8e 	bl	f000070c <axp209_get_voltage>
f00008d0:	e5840004 	str	r0, [r4, #4]
f00008d4:	e3a00001 	mov	r0, #1
f00008d8:	e1a01005 	mov	r1, r5
f00008dc:	ebffff24 	bl	f0000574 <axp209_set_voltage>
f00008e0:	e3a00000 	mov	r0, #0
f00008e4:	e8bd8038 	pop	{r3, r4, r5, pc}
f00008e8:	e59f4098 	ldr	r4, [pc, #152]	; f0000988 <axp209_set_volt+0x1cc>
f00008ec:	e5943008 	ldr	r3, [r4, #8]
f00008f0:	e3530000 	cmp	r3, #0
f00008f4:	1a000002 	bne	f0000904 <axp209_set_volt+0x148>
f00008f8:	e3a00002 	mov	r0, #2
f00008fc:	ebffff82 	bl	f000070c <axp209_get_voltage>
f0000900:	e5840008 	str	r0, [r4, #8]
f0000904:	e3a00002 	mov	r0, #2
f0000908:	e1a01005 	mov	r1, r5
f000090c:	ebffff18 	bl	f0000574 <axp209_set_voltage>
f0000910:	e3a00000 	mov	r0, #0
f0000914:	e8bd8038 	pop	{r3, r4, r5, pc}
f0000918:	e59f4068 	ldr	r4, [pc, #104]	; f0000988 <axp209_set_volt+0x1cc>
f000091c:	e594300c 	ldr	r3, [r4, #12]
f0000920:	e3530000 	cmp	r3, #0
f0000924:	1a000002 	bne	f0000934 <axp209_set_volt+0x178>
f0000928:	e3a00003 	mov	r0, #3
f000092c:	ebffff76 	bl	f000070c <axp209_get_voltage>
f0000930:	e584000c 	str	r0, [r4, #12]
f0000934:	e3a00003 	mov	r0, #3
f0000938:	e1a01005 	mov	r1, r5
f000093c:	ebffff0c 	bl	f0000574 <axp209_set_voltage>
f0000940:	e3a00000 	mov	r0, #0
f0000944:	e8bd8038 	pop	{r3, r4, r5, pc}
f0000948:	e59f4038 	ldr	r4, [pc, #56]	; f0000988 <axp209_set_volt+0x1cc>
f000094c:	e5943010 	ldr	r3, [r4, #16]
f0000950:	e3530000 	cmp	r3, #0
f0000954:	1a000002 	bne	f0000964 <axp209_set_volt+0x1a8>
f0000958:	e3a00004 	mov	r0, #4
f000095c:	ebffff6a 	bl	f000070c <axp209_get_voltage>
f0000960:	e5840010 	str	r0, [r4, #16]
f0000964:	e3a00004 	mov	r0, #4
f0000968:	e1a01005 	mov	r1, r5
f000096c:	ebffff00 	bl	f0000574 <axp209_set_voltage>
f0000970:	e3a00000 	mov	r0, #0
f0000974:	e8bd8038 	pop	{r3, r4, r5, pc}
f0000978:	e3a00005 	mov	r0, #5
f000097c:	ebffff62 	bl	f000070c <axp209_get_voltage>
f0000980:	e5840014 	str	r0, [r4, #20]
f0000984:	eaffffb9 	b	f0000870 <axp209_set_volt+0xb4>
f0000988:	f0003d28 			; <UNDEFINED> instruction: 0xf0003d28

f000098c <axp209_recovery_volt>:
f000098c:	e92d4070 	push	{r4, r5, r6, lr}
f0000990:	e3a04000 	mov	r4, #0
f0000994:	e59f503c 	ldr	r5, [pc, #60]	; f00009d8 <axp209_recovery_volt+0x4c>
f0000998:	e1a06004 	mov	r6, r4
f000099c:	ea000002 	b	f00009ac <axp209_recovery_volt+0x20>
f00009a0:	e2844001 	add	r4, r4, #1
f00009a4:	e3540006 	cmp	r4, #6
f00009a8:	0a000008 	beq	f00009d0 <axp209_recovery_volt+0x44>
f00009ac:	e4951004 	ldr	r1, [r5], #4
f00009b0:	e3510000 	cmp	r1, #0
f00009b4:	0afffff9 	beq	f00009a0 <axp209_recovery_volt+0x14>
f00009b8:	e1a00004 	mov	r0, r4
f00009bc:	e2844001 	add	r4, r4, #1
f00009c0:	ebfffeeb 	bl	f0000574 <axp209_set_voltage>
f00009c4:	e3540006 	cmp	r4, #6
f00009c8:	e5056004 	str	r6, [r5, #-4]
f00009cc:	1afffff6 	bne	f00009ac <axp209_recovery_volt+0x20>
f00009d0:	e3a00000 	mov	r0, #0
f00009d4:	e8bd8070 	pop	{r4, r5, r6, pc}
f00009d8:	f0003d28 			; <UNDEFINED> instruction: 0xf0003d28

f00009dc <standby_set_power>:
f00009dc:	e92d40f8 	push	{r3, r4, r5, r6, r7, lr}
f00009e0:	e1a04000 	mov	r4, r0
f00009e4:	e7925101 	ldr	r5, [r2, r1, lsl #2]
f00009e8:	e1a07003 	mov	r7, r3
f00009ec:	e3550000 	cmp	r5, #0
f00009f0:	0a000015 	beq	f0000a4c <standby_set_power+0x70>
f00009f4:	e3a00029 	mov	r0, #41	; 0x29
f00009f8:	e3a06000 	mov	r6, #0
f00009fc:	eb000143 	bl	f0000f10 <save_mem_status>
f0000a00:	e1a03634 	lsr	r3, r4, r6
f0000a04:	e6ef3073 	uxtb	r3, r3
f0000a08:	e3530000 	cmp	r3, #0
f0000a0c:	0a000009 	beq	f0000a38 <standby_set_power+0x5c>
f0000a10:	e3530001 	cmp	r3, #1
f0000a14:	0a000004 	beq	f0000a2c <standby_set_power+0x50>
f0000a18:	3a000001 	bcc	f0000a24 <standby_set_power+0x48>
f0000a1c:	e3530007 	cmp	r3, #7
f0000a20:	9a000004 	bls	f0000a38 <standby_set_power+0x5c>
f0000a24:	e3e00000 	mvn	r0, #0
f0000a28:	e8bd80f8 	pop	{r3, r4, r5, r6, r7, pc}
f0000a2c:	e1a00005 	mov	r0, r5
f0000a30:	e1a01007 	mov	r1, r7
f0000a34:	ebffff60 	bl	f00007bc <axp209_set_volt>
f0000a38:	e2866008 	add	r6, r6, #8
f0000a3c:	e3560020 	cmp	r6, #32
f0000a40:	1affffee 	bne	f0000a00 <standby_set_power+0x24>
f0000a44:	e3a00000 	mov	r0, #0
f0000a48:	e8bd80f8 	pop	{r3, r4, r5, r6, r7, pc}
f0000a4c:	e59f0008 	ldr	r0, [pc, #8]	; f0000a5c <standby_set_power+0x80>
f0000a50:	eb0005ae 	bl	f0002110 <printk>
f0000a54:	e3e00000 	mvn	r0, #0
f0000a58:	e8bd80f8 	pop	{r3, r4, r5, r6, r7, pc}
f0000a5c:	f0003b8c 			; <UNDEFINED> instruction: 0xf0003b8c

f0000a60 <standby_recovery_power>:
f0000a60:	e92d4038 	push	{r3, r4, r5, lr}
f0000a64:	e1a05000 	mov	r5, r0
f0000a68:	e3a04000 	mov	r4, #0
f0000a6c:	e1a03435 	lsr	r3, r5, r4
f0000a70:	e6ef3073 	uxtb	r3, r3
f0000a74:	e3530000 	cmp	r3, #0
f0000a78:	0a000007 	beq	f0000a9c <standby_recovery_power+0x3c>
f0000a7c:	e3530001 	cmp	r3, #1
f0000a80:	0a000004 	beq	f0000a98 <standby_recovery_power+0x38>
f0000a84:	3a000001 	bcc	f0000a90 <standby_recovery_power+0x30>
f0000a88:	e3530007 	cmp	r3, #7
f0000a8c:	9a000002 	bls	f0000a9c <standby_recovery_power+0x3c>
f0000a90:	e3e00000 	mvn	r0, #0
f0000a94:	e8bd8038 	pop	{r3, r4, r5, pc}
f0000a98:	ebffffbb 	bl	f000098c <axp209_recovery_volt>
f0000a9c:	e2844008 	add	r4, r4, #8
f0000aa0:	e3540020 	cmp	r4, #32
f0000aa4:	1afffff0 	bne	f0000a6c <standby_recovery_power+0xc>
f0000aa8:	e3a00000 	mov	r0, #0
f0000aac:	e8bd8038 	pop	{r3, r4, r5, pc}

f0000ab0 <standby_twi_init>:
f0000ab0:	e59f203c 	ldr	r2, [pc, #60]	; f0000af4 <standby_twi_init+0x44>
f0000ab4:	e3a01028 	mov	r1, #40	; 0x28
f0000ab8:	e59f3038 	ldr	r3, [pc, #56]	; f0000af8 <standby_twi_init+0x48>
f0000abc:	e7922100 	ldr	r2, [r2, r0, lsl #2]
f0000ac0:	e592c014 	ldr	ip, [r2, #20]
f0000ac4:	e592000c 	ldr	r0, [r2, #12]
f0000ac8:	e5821014 	str	r1, [r2, #20]
f0000acc:	e5921018 	ldr	r1, [r2, #24]
f0000ad0:	e2000080 	and	r0, r0, #128	; 0x80
f0000ad4:	e8831004 	stm	r3, {r2, ip}
f0000ad8:	e5830008 	str	r0, [r3, #8]
f0000adc:	e3811001 	orr	r1, r1, #1
f0000ae0:	e5821018 	str	r1, [r2, #24]
f0000ae4:	e5920018 	ldr	r0, [r2, #24]
f0000ae8:	e2100001 	ands	r0, r0, #1
f0000aec:	1afffffc 	bne	f0000ae4 <standby_twi_init+0x34>
f0000af0:	e12fff1e 	bx	lr
f0000af4:	f00039a0 			; <UNDEFINED> instruction: 0xf00039a0
f0000af8:	f0003d40 			; <UNDEFINED> instruction: 0xf0003d40

f0000afc <standby_twi_exit>:
f0000afc:	e3032d40 	movw	r2, #15680	; 0x3d40
f0000b00:	e3a00000 	mov	r0, #0
f0000b04:	e34f2000 	movt	r2, #61440	; 0xf000
f0000b08:	e5923000 	ldr	r3, [r2]
f0000b0c:	e9920006 	ldmib	r2, {r1, r2}
f0000b10:	e593c018 	ldr	ip, [r3, #24]
f0000b14:	e38cc001 	orr	ip, ip, #1
f0000b18:	e583c018 	str	ip, [r3, #24]
f0000b1c:	e5831014 	str	r1, [r3, #20]
f0000b20:	e593100c 	ldr	r1, [r3, #12]
f0000b24:	e1812002 	orr	r2, r1, r2
f0000b28:	e583200c 	str	r2, [r3, #12]
f0000b2c:	e12fff1e 	bx	lr

f0000b30 <twi_byte_rw>:
f0000b30:	e59fc2ac 	ldr	ip, [pc, #684]	; f0000de4 <twi_byte_rw+0x2b4>
f0000b34:	e92d0030 	push	{r4, r5}
f0000b38:	e3a04000 	mov	r4, #0
f0000b3c:	e59cc000 	ldr	ip, [ip]
f0000b40:	e58c401c 	str	r4, [ip, #28]
f0000b44:	e59c4010 	ldr	r4, [ip, #16]
f0000b48:	e6ef4074 	uxtb	r4, r4
f0000b4c:	e35400f8 	cmp	r4, #248	; 0xf8
f0000b50:	1a00006c 	bne	f0000d08 <twi_byte_rw+0x1d8>
f0000b54:	e59c500c 	ldr	r5, [ip, #12]
f0000b58:	e30042ff 	movw	r4, #767	; 0x2ff
f0000b5c:	e3855020 	orr	r5, r5, #32
f0000b60:	e58c500c 	str	r5, [ip, #12]
f0000b64:	ea000001 	b	f0000b70 <twi_byte_rw+0x40>
f0000b68:	e2544001 	subs	r4, r4, #1
f0000b6c:	3a000004 	bcc	f0000b84 <twi_byte_rw+0x54>
f0000b70:	e59c500c 	ldr	r5, [ip, #12]
f0000b74:	e3150008 	tst	r5, #8
f0000b78:	0afffffa 	beq	f0000b68 <twi_byte_rw+0x38>
f0000b7c:	e3540000 	cmp	r4, #0
f0000b80:	0a000060 	beq	f0000d08 <twi_byte_rw+0x1d8>
f0000b84:	e59c4010 	ldr	r4, [ip, #16]
f0000b88:	e6ef4074 	uxtb	r4, r4
f0000b8c:	e3540008 	cmp	r4, #8
f0000b90:	1a00005c 	bne	f0000d08 <twi_byte_rw+0x1d8>
f0000b94:	e1a01081 	lsl	r1, r1, #1
f0000b98:	e30042ff 	movw	r4, #767	; 0x2ff
f0000b9c:	e6ef5071 	uxtb	r5, r1
f0000ba0:	e58c5008 	str	r5, [ip, #8]
f0000ba4:	e59c500c 	ldr	r5, [ip, #12]
f0000ba8:	e20550cf 	and	r5, r5, #207	; 0xcf
f0000bac:	e58c500c 	str	r5, [ip, #12]
f0000bb0:	ea000001 	b	f0000bbc <twi_byte_rw+0x8c>
f0000bb4:	e2544001 	subs	r4, r4, #1
f0000bb8:	3a000004 	bcc	f0000bd0 <twi_byte_rw+0xa0>
f0000bbc:	e59c500c 	ldr	r5, [ip, #12]
f0000bc0:	e3150008 	tst	r5, #8
f0000bc4:	0afffffa 	beq	f0000bb4 <twi_byte_rw+0x84>
f0000bc8:	e3540000 	cmp	r4, #0
f0000bcc:	0a00004d 	beq	f0000d08 <twi_byte_rw+0x1d8>
f0000bd0:	e59c4010 	ldr	r4, [ip, #16]
f0000bd4:	e6ef4074 	uxtb	r4, r4
f0000bd8:	e3540018 	cmp	r4, #24
f0000bdc:	1a000049 	bne	f0000d08 <twi_byte_rw+0x1d8>
f0000be0:	e58c2008 	str	r2, [ip, #8]
f0000be4:	e30022ff 	movw	r2, #767	; 0x2ff
f0000be8:	e59c400c 	ldr	r4, [ip, #12]
f0000bec:	e20440cf 	and	r4, r4, #207	; 0xcf
f0000bf0:	e58c400c 	str	r4, [ip, #12]
f0000bf4:	ea000001 	b	f0000c00 <twi_byte_rw+0xd0>
f0000bf8:	e2522001 	subs	r2, r2, #1
f0000bfc:	3a000004 	bcc	f0000c14 <twi_byte_rw+0xe4>
f0000c00:	e59c400c 	ldr	r4, [ip, #12]
f0000c04:	e3140008 	tst	r4, #8
f0000c08:	0afffffa 	beq	f0000bf8 <twi_byte_rw+0xc8>
f0000c0c:	e3520000 	cmp	r2, #0
f0000c10:	0a00003c 	beq	f0000d08 <twi_byte_rw+0x1d8>
f0000c14:	e59c2010 	ldr	r2, [ip, #16]
f0000c18:	e6ef2072 	uxtb	r2, r2
f0000c1c:	e3520028 	cmp	r2, #40	; 0x28
f0000c20:	1a000038 	bne	f0000d08 <twi_byte_rw+0x1d8>
f0000c24:	e3500001 	cmp	r0, #1
f0000c28:	0a000057 	beq	f0000d8c <twi_byte_rw+0x25c>
f0000c2c:	e59c000c 	ldr	r0, [ip, #12]
f0000c30:	e30022ff 	movw	r2, #767	; 0x2ff
f0000c34:	e20000c0 	and	r0, r0, #192	; 0xc0
f0000c38:	e3800028 	orr	r0, r0, #40	; 0x28
f0000c3c:	e58c000c 	str	r0, [ip, #12]
f0000c40:	ea000001 	b	f0000c4c <twi_byte_rw+0x11c>
f0000c44:	e2522001 	subs	r2, r2, #1
f0000c48:	3a000004 	bcc	f0000c60 <twi_byte_rw+0x130>
f0000c4c:	e59c000c 	ldr	r0, [ip, #12]
f0000c50:	e3100008 	tst	r0, #8
f0000c54:	0afffffa 	beq	f0000c44 <twi_byte_rw+0x114>
f0000c58:	e3520000 	cmp	r2, #0
f0000c5c:	0a000029 	beq	f0000d08 <twi_byte_rw+0x1d8>
f0000c60:	e59c2010 	ldr	r2, [ip, #16]
f0000c64:	e6ef2072 	uxtb	r2, r2
f0000c68:	e3520010 	cmp	r2, #16
f0000c6c:	1a000025 	bne	f0000d08 <twi_byte_rw+0x1d8>
f0000c70:	e3811001 	orr	r1, r1, #1
f0000c74:	e30022ff 	movw	r2, #767	; 0x2ff
f0000c78:	e58c1008 	str	r1, [ip, #8]
f0000c7c:	e59c100c 	ldr	r1, [ip, #12]
f0000c80:	e20110cf 	and	r1, r1, #207	; 0xcf
f0000c84:	e58c100c 	str	r1, [ip, #12]
f0000c88:	ea000001 	b	f0000c94 <twi_byte_rw+0x164>
f0000c8c:	e2522001 	subs	r2, r2, #1
f0000c90:	3a000004 	bcc	f0000ca8 <twi_byte_rw+0x178>
f0000c94:	e59c100c 	ldr	r1, [ip, #12]
f0000c98:	e3110008 	tst	r1, #8
f0000c9c:	0afffffa 	beq	f0000c8c <twi_byte_rw+0x15c>
f0000ca0:	e3520000 	cmp	r2, #0
f0000ca4:	0a000017 	beq	f0000d08 <twi_byte_rw+0x1d8>
f0000ca8:	e59c2010 	ldr	r2, [ip, #16]
f0000cac:	e6ef2072 	uxtb	r2, r2
f0000cb0:	e3520040 	cmp	r2, #64	; 0x40
f0000cb4:	1a000013 	bne	f0000d08 <twi_byte_rw+0x1d8>
f0000cb8:	e59c100c 	ldr	r1, [ip, #12]
f0000cbc:	e30022ff 	movw	r2, #767	; 0x2ff
f0000cc0:	e20110cf 	and	r1, r1, #207	; 0xcf
f0000cc4:	e58c100c 	str	r1, [ip, #12]
f0000cc8:	ea000001 	b	f0000cd4 <twi_byte_rw+0x1a4>
f0000ccc:	e2522001 	subs	r2, r2, #1
f0000cd0:	3a000004 	bcc	f0000ce8 <twi_byte_rw+0x1b8>
f0000cd4:	e59c100c 	ldr	r1, [ip, #12]
f0000cd8:	e3110008 	tst	r1, #8
f0000cdc:	0afffffa 	beq	f0000ccc <twi_byte_rw+0x19c>
f0000ce0:	e3520000 	cmp	r2, #0
f0000ce4:	0a000007 	beq	f0000d08 <twi_byte_rw+0x1d8>
f0000ce8:	e59c2008 	ldr	r2, [ip, #8]
f0000cec:	e5c32000 	strb	r2, [r3]
f0000cf0:	e59c3010 	ldr	r3, [ip, #16]
f0000cf4:	e6ef3073 	uxtb	r3, r3
f0000cf8:	e3530058 	cmp	r3, #88	; 0x58
f0000cfc:	03a00000 	moveq	r0, #0
f0000d00:	13e00000 	mvnne	r0, #0
f0000d04:	ea000000 	b	f0000d0c <twi_byte_rw+0x1dc>
f0000d08:	e3e00000 	mvn	r0, #0
f0000d0c:	e59c200c 	ldr	r2, [ip, #12]
f0000d10:	e30032ff 	movw	r3, #767	; 0x2ff
f0000d14:	e20220c0 	and	r2, r2, #192	; 0xc0
f0000d18:	e3822018 	orr	r2, r2, #24
f0000d1c:	e58c200c 	str	r2, [ip, #12]
f0000d20:	e59c200c 	ldr	r2, [ip, #12]
f0000d24:	ea000001 	b	f0000d30 <twi_byte_rw+0x200>
f0000d28:	e2533001 	subs	r3, r3, #1
f0000d2c:	3a00002a 	bcc	f0000ddc <twi_byte_rw+0x2ac>
f0000d30:	e59c200c 	ldr	r2, [ip, #12]
f0000d34:	e3120010 	tst	r2, #16
f0000d38:	1afffffa 	bne	f0000d28 <twi_byte_rw+0x1f8>
f0000d3c:	e3530000 	cmp	r3, #0
f0000d40:	130032ff 	movwne	r3, #767	; 0x2ff
f0000d44:	1a000003 	bne	f0000d58 <twi_byte_rw+0x228>
f0000d48:	e8bd0030 	pop	{r4, r5}
f0000d4c:	e12fff1e 	bx	lr
f0000d50:	e2533001 	subs	r3, r3, #1
f0000d54:	3a000004 	bcc	f0000d6c <twi_byte_rw+0x23c>
f0000d58:	e59c2010 	ldr	r2, [ip, #16]
f0000d5c:	e35200f8 	cmp	r2, #248	; 0xf8
f0000d60:	1afffffa 	bne	f0000d50 <twi_byte_rw+0x220>
f0000d64:	e3530000 	cmp	r3, #0
f0000d68:	0afffff6 	beq	f0000d48 <twi_byte_rw+0x218>
f0000d6c:	e3a03c03 	mov	r3, #768	; 0x300
f0000d70:	ea000001 	b	f0000d7c <twi_byte_rw+0x24c>
f0000d74:	e2533001 	subs	r3, r3, #1
f0000d78:	0afffff2 	beq	f0000d48 <twi_byte_rw+0x218>
f0000d7c:	e59c2020 	ldr	r2, [ip, #32]
f0000d80:	e352003a 	cmp	r2, #58	; 0x3a
f0000d84:	1afffffa 	bne	f0000d74 <twi_byte_rw+0x244>
f0000d88:	eaffffee 	b	f0000d48 <twi_byte_rw+0x218>
f0000d8c:	e5d32000 	ldrb	r2, [r3]
f0000d90:	e30032ff 	movw	r3, #767	; 0x2ff
f0000d94:	e58c2008 	str	r2, [ip, #8]
f0000d98:	e59c200c 	ldr	r2, [ip, #12]
f0000d9c:	e20220cf 	and	r2, r2, #207	; 0xcf
f0000da0:	e58c200c 	str	r2, [ip, #12]
f0000da4:	ea000001 	b	f0000db0 <twi_byte_rw+0x280>
f0000da8:	e2533001 	subs	r3, r3, #1
f0000dac:	3a000004 	bcc	f0000dc4 <twi_byte_rw+0x294>
f0000db0:	e59c200c 	ldr	r2, [ip, #12]
f0000db4:	e3120008 	tst	r2, #8
f0000db8:	0afffffa 	beq	f0000da8 <twi_byte_rw+0x278>
f0000dbc:	e3530000 	cmp	r3, #0
f0000dc0:	0affffd0 	beq	f0000d08 <twi_byte_rw+0x1d8>
f0000dc4:	e59c3010 	ldr	r3, [ip, #16]
f0000dc8:	e6ef3073 	uxtb	r3, r3
f0000dcc:	e3530028 	cmp	r3, #40	; 0x28
f0000dd0:	03a00000 	moveq	r0, #0
f0000dd4:	13e00000 	mvnne	r0, #0
f0000dd8:	eaffffcb 	b	f0000d0c <twi_byte_rw+0x1dc>
f0000ddc:	e2833c03 	add	r3, r3, #768	; 0x300
f0000de0:	eaffffdc 	b	f0000d58 <twi_byte_rw+0x228>
f0000de4:	f0003d40 			; <UNDEFINED> instruction: 0xf0003d40

f0000de8 <standby_usb_init>:
f0000de8:	e3a00000 	mov	r0, #0
f0000dec:	e12fff1e 	bx	lr

f0000df0 <standby_usb_exit>:
f0000df0:	e3a00000 	mov	r0, #0
f0000df4:	e12fff1e 	bx	lr

f0000df8 <standby_is_usb_status_change>:
f0000df8:	e3a00000 	mov	r0, #0
f0000dfc:	e12fff1e 	bx	lr

f0000e00 <standby_query_usb_event>:
f0000e00:	e3e00000 	mvn	r0, #0
f0000e04:	e12fff1e 	bx	lr

f0000e08 <busy_waiting>:
f0000e08:	e24dd008 	sub	sp, sp, #8
f0000e0c:	e3a03001 	mov	r3, #1
f0000e10:	e58d3004 	str	r3, [sp, #4]
f0000e14:	e59d3004 	ldr	r3, [sp, #4]
f0000e18:	e3530001 	cmp	r3, #1
f0000e1c:	0afffffc 	beq	f0000e14 <busy_waiting+0xc>
f0000e20:	e28dd008 	add	sp, sp, #8
f0000e24:	e12fff1e 	bx	lr

f0000e28 <save_mem_flag>:
f0000e28:	e12fff1e 	bx	lr

f0000e2c <clear_mem_flag>:
f0000e2c:	e12fff1e 	bx	lr

f0000e30 <mem_status_init>:
f0000e30:	e30115f0 	movw	r1, #5616	; 0x15f0
f0000e34:	e3033d4c 	movw	r3, #15692	; 0x3d4c
f0000e38:	e1a02001 	mov	r2, r1
f0000e3c:	e34f3000 	movt	r3, #61440	; 0xf000
f0000e40:	e34f11f0 	movt	r1, #61936	; 0xf1f0
f0000e44:	e34021f0 	movt	r2, #496	; 0x1f0
f0000e48:	e3a00001 	mov	r0, #1
f0000e4c:	e8830006 	stm	r3, {r1, r2}
f0000e50:	ea000a64 	b	f00037e8 <hwspinlock_init>

f0000e54 <mem_status_init_nommu>:
f0000e54:	e30115f0 	movw	r1, #5616	; 0x15f0
f0000e58:	e3033d4c 	movw	r3, #15692	; 0x3d4c
f0000e5c:	e1a02001 	mov	r2, r1
f0000e60:	e34f3000 	movt	r3, #61440	; 0xf000
f0000e64:	e34f11f0 	movt	r1, #61936	; 0xf1f0
f0000e68:	e34021f0 	movt	r2, #496	; 0x1f0
f0000e6c:	e3a00000 	mov	r0, #0
f0000e70:	e8830006 	stm	r3, {r1, r2}
f0000e74:	ea000a5b 	b	f00037e8 <hwspinlock_init>

f0000e78 <mem_status_clear>:
f0000e78:	e92d4010 	push	{r4, lr}
f0000e7c:	e3a00002 	mov	r0, #2
f0000e80:	e59f4080 	ldr	r4, [pc, #128]	; f0000f08 <mem_status_clear+0x90>
f0000e84:	e3041e20 	movw	r1, #20000	; 0x4e20
f0000e88:	e5943000 	ldr	r3, [r4]
f0000e8c:	e5933000 	ldr	r3, [r3]
f0000e90:	e5843008 	str	r3, [r4, #8]
f0000e94:	eb000a5f 	bl	f0003818 <hwspin_lock_timeout>
f0000e98:	e3500000 	cmp	r0, #0
f0000e9c:	18bd8010 	popne	{r4, pc}
f0000ea0:	e5942000 	ldr	r2, [r4]
f0000ea4:	e3a01001 	mov	r1, #1
f0000ea8:	e5943008 	ldr	r3, [r4, #8]
f0000eac:	e281c001 	add	ip, r1, #1
f0000eb0:	e7d13811 	bfi	r3, r1, #16, #2
f0000eb4:	e21c1003 	ands	r1, ip, #3
f0000eb8:	e5843008 	str	r3, [r4, #8]
f0000ebc:	e5c40009 	strb	r0, [r4, #9]
f0000ec0:	e594c008 	ldr	ip, [r4, #8]
f0000ec4:	e1a0300c 	mov	r3, ip
f0000ec8:	e582c000 	str	ip, [r2]
f0000ecc:	e7df3f9f 	bfc	r3, #31, #1
f0000ed0:	e5843008 	str	r3, [r4, #8]
f0000ed4:	e5823000 	str	r3, [r2]
f0000ed8:	e5943008 	ldr	r3, [r4, #8]
f0000edc:	e3833102 	orr	r3, r3, #-2147483648	; 0x80000000
f0000ee0:	e5843008 	str	r3, [r4, #8]
f0000ee4:	e5823000 	str	r3, [r2]
f0000ee8:	e5943008 	ldr	r3, [r4, #8]
f0000eec:	e7df3f9f 	bfc	r3, #31, #1
f0000ef0:	e5843008 	str	r3, [r4, #8]
f0000ef4:	e5823000 	str	r3, [r2]
f0000ef8:	1affffea 	bne	f0000ea8 <mem_status_clear+0x30>
f0000efc:	e3a00002 	mov	r0, #2
f0000f00:	e8bd4010 	pop	{r4, lr}
f0000f04:	ea000a62 	b	f0003894 <hwspin_unlock>
f0000f08:	f0003d4c 			; <UNDEFINED> instruction: 0xf0003d4c

f0000f0c <mem_status_exit>:
f0000f0c:	e12fff1e 	bx	lr

f0000f10 <save_mem_status>:
f0000f10:	e92d4010 	push	{r4, lr}
f0000f14:	e24dd008 	sub	sp, sp, #8
f0000f18:	e58d0004 	str	r0, [sp, #4]
f0000f1c:	e3041e20 	movw	r1, #20000	; 0x4e20
f0000f20:	e3a00002 	mov	r0, #2
f0000f24:	eb000a3b 	bl	f0003818 <hwspin_lock_timeout>
f0000f28:	e2503000 	subs	r3, r0, #0
f0000f2c:	1a000017 	bne	f0000f90 <save_mem_status+0x80>
f0000f30:	e59f2068 	ldr	r2, [pc, #104]	; f0000fa0 <save_mem_status+0x90>
f0000f34:	e3a04001 	mov	r4, #1
f0000f38:	e59de004 	ldr	lr, [sp, #4]
f0000f3c:	e3a00002 	mov	r0, #2
f0000f40:	e592c008 	ldr	ip, [r2, #8]
f0000f44:	e5921000 	ldr	r1, [r2]
f0000f48:	e7d1c814 	bfi	ip, r4, #16, #2
f0000f4c:	e582c008 	str	ip, [r2, #8]
f0000f50:	e5c2e009 	strb	lr, [r2, #9]
f0000f54:	e592e008 	ldr	lr, [r2, #8]
f0000f58:	e1a0c00e 	mov	ip, lr
f0000f5c:	e581e000 	str	lr, [r1]
f0000f60:	e7dfcf93 	bfi	ip, r3, #31, #1
f0000f64:	e582c008 	str	ip, [r2, #8]
f0000f68:	e581c000 	str	ip, [r1]
f0000f6c:	e592c008 	ldr	ip, [r2, #8]
f0000f70:	e38cc102 	orr	ip, ip, #-2147483648	; 0x80000000
f0000f74:	e582c008 	str	ip, [r2, #8]
f0000f78:	e581c000 	str	ip, [r1]
f0000f7c:	e592c008 	ldr	ip, [r2, #8]
f0000f80:	e7dfcf93 	bfi	ip, r3, #31, #1
f0000f84:	e582c008 	str	ip, [r2, #8]
f0000f88:	e581c000 	str	ip, [r1]
f0000f8c:	eb000a40 	bl	f0003894 <hwspin_unlock>
f0000f90:	f57ff04f 	dsb	sy
f0000f94:	f57ff06f 	isb	sy
f0000f98:	e28dd008 	add	sp, sp, #8
f0000f9c:	e8bd8010 	pop	{r4, pc}
f0000fa0:	f0003d4c 			; <UNDEFINED> instruction: 0xf0003d4c

f0000fa4 <get_mem_status>:
f0000fa4:	e92d4010 	push	{r4, lr}
f0000fa8:	e3a02001 	mov	r2, #1
f0000fac:	e59f4040 	ldr	r4, [pc, #64]	; f0000ff4 <get_mem_status+0x50>
f0000fb0:	e3a00002 	mov	r0, #2
f0000fb4:	e3041e20 	movw	r1, #20000	; 0x4e20
f0000fb8:	e5943008 	ldr	r3, [r4, #8]
f0000fbc:	e7d13812 	bfi	r3, r2, #16, #2
f0000fc0:	e5843008 	str	r3, [r4, #8]
f0000fc4:	eb000a13 	bl	f0003818 <hwspin_lock_timeout>
f0000fc8:	e3500000 	cmp	r0, #0
f0000fcc:	1a000006 	bne	f0000fec <get_mem_status+0x48>
f0000fd0:	e5943000 	ldr	r3, [r4]
f0000fd4:	e3a00002 	mov	r0, #2
f0000fd8:	e5942008 	ldr	r2, [r4, #8]
f0000fdc:	e5832000 	str	r2, [r3]
f0000fe0:	e5933000 	ldr	r3, [r3]
f0000fe4:	e5843008 	str	r3, [r4, #8]
f0000fe8:	eb000a29 	bl	f0003894 <hwspin_unlock>
f0000fec:	e5d40008 	ldrb	r0, [r4, #8]
f0000ff0:	e8bd8010 	pop	{r4, pc}
f0000ff4:	f0003d4c 			; <UNDEFINED> instruction: 0xf0003d4c

f0000ff8 <show_mem_status>:
f0000ff8:	e92d4070 	push	{r4, r5, r6, lr}
f0000ffc:	e3a04001 	mov	r4, #1
f0001000:	e59f5060 	ldr	r5, [pc, #96]	; f0001068 <show_mem_status+0x70>
f0001004:	e1a06005 	mov	r6, r5
f0001008:	e5953008 	ldr	r3, [r5, #8]
f000100c:	e3041e20 	movw	r1, #20000	; 0x4e20
f0001010:	e3a00002 	mov	r0, #2
f0001014:	e7d13814 	bfi	r3, r4, #16, #2
f0001018:	e5853008 	str	r3, [r5, #8]
f000101c:	eb0009fd 	bl	f0003818 <hwspin_lock_timeout>
f0001020:	e3500000 	cmp	r0, #0
f0001024:	0a000007 	beq	f0001048 <show_mem_status+0x50>
f0001028:	e1a01004 	mov	r1, r4
f000102c:	e59f0038 	ldr	r0, [pc, #56]	; f000106c <show_mem_status+0x74>
f0001030:	e5d52008 	ldrb	r2, [r5, #8]
f0001034:	e2844001 	add	r4, r4, #1
f0001038:	eb000434 	bl	f0002110 <printk>
f000103c:	e3540004 	cmp	r4, #4
f0001040:	1afffff0 	bne	f0001008 <show_mem_status+0x10>
f0001044:	e8bd8070 	pop	{r4, r5, r6, pc}
f0001048:	e5963000 	ldr	r3, [r6]
f000104c:	e3a00002 	mov	r0, #2
f0001050:	e5962008 	ldr	r2, [r6, #8]
f0001054:	e5832000 	str	r2, [r3]
f0001058:	e5933000 	ldr	r3, [r3]
f000105c:	e5863008 	str	r3, [r6, #8]
f0001060:	eb000a0b 	bl	f0003894 <hwspin_unlock>
f0001064:	eaffffef 	b	f0001028 <show_mem_status+0x30>
f0001068:	f0003d4c 			; <UNDEFINED> instruction: 0xf0003d4c
f000106c:	f0003ba8 			; <UNDEFINED> instruction: 0xf0003ba8

f0001070 <save_mem_status_nommu>:
f0001070:	e92d4030 	push	{r4, r5, lr}
f0001074:	e24dd00c 	sub	sp, sp, #12
f0001078:	e58d0004 	str	r0, [sp, #4]
f000107c:	e3041e20 	movw	r1, #20000	; 0x4e20
f0001080:	e3a00002 	mov	r0, #2
f0001084:	eb000a0e 	bl	f00038c4 <hwspin_lock_timeout_nommu>
f0001088:	e250c000 	subs	ip, r0, #0
f000108c:	0a000001 	beq	f0001098 <save_mem_status_nommu+0x28>
f0001090:	e28dd00c 	add	sp, sp, #12
f0001094:	e8bd8030 	pop	{r4, r5, pc}
f0001098:	e59f3060 	ldr	r3, [pc, #96]	; f0001100 <save_mem_status_nommu+0x90>
f000109c:	e3a05001 	mov	r5, #1
f00010a0:	e59d4004 	ldr	r4, [sp, #4]
f00010a4:	e3a00002 	mov	r0, #2
f00010a8:	e593100c 	ldr	r1, [r3, #12]
f00010ac:	e5932004 	ldr	r2, [r3, #4]
f00010b0:	e7d11815 	bfi	r1, r5, #16, #2
f00010b4:	e583100c 	str	r1, [r3, #12]
f00010b8:	e5c3400d 	strb	r4, [r3, #13]
f00010bc:	e593400c 	ldr	r4, [r3, #12]
f00010c0:	e1a01004 	mov	r1, r4
f00010c4:	e5824000 	str	r4, [r2]
f00010c8:	e7df1f9c 	bfi	r1, ip, #31, #1
f00010cc:	e583100c 	str	r1, [r3, #12]
f00010d0:	e5821000 	str	r1, [r2]
f00010d4:	e593100c 	ldr	r1, [r3, #12]
f00010d8:	e3811102 	orr	r1, r1, #-2147483648	; 0x80000000
f00010dc:	e583100c 	str	r1, [r3, #12]
f00010e0:	e5821000 	str	r1, [r2]
f00010e4:	e593100c 	ldr	r1, [r3, #12]
f00010e8:	e7df1f9c 	bfi	r1, ip, #31, #1
f00010ec:	e583100c 	str	r1, [r3, #12]
f00010f0:	e5821000 	str	r1, [r2]
f00010f4:	e28dd00c 	add	sp, sp, #12
f00010f8:	e8bd4030 	pop	{r4, r5, lr}
f00010fc:	ea000a0b 	b	f0003930 <hwspin_unlock_nommu>
f0001100:	f0003d4c 			; <UNDEFINED> instruction: 0xf0003d4c

f0001104 <io_init>:
f0001104:	e3a03000 	mov	r3, #0
f0001108:	e3012111 	movw	r2, #4369	; 0x1111
f000110c:	e34f31c2 	movt	r3, #61890	; 0xf1c2
f0001110:	e3402011 	movt	r2, #17
f0001114:	e5832890 	str	r2, [r3, #2192]	; 0x890
f0001118:	e12fff1e 	bx	lr

f000111c <io_init_high>:
f000111c:	e3a03000 	mov	r3, #0
f0001120:	e34f31c2 	movt	r3, #61890	; 0xf1c2
f0001124:	e59328a0 	ldr	r2, [r3, #2208]	; 0x8a0
f0001128:	e382203f 	orr	r2, r2, #63	; 0x3f
f000112c:	e58328a0 	str	r2, [r3, #2208]	; 0x8a0
f0001130:	e12fff1e 	bx	lr

f0001134 <io_init_low>:
f0001134:	e3a03000 	mov	r3, #0
f0001138:	e34f31c2 	movt	r3, #61890	; 0xf1c2
f000113c:	e59328a0 	ldr	r2, [r3, #2208]	; 0x8a0
f0001140:	e3c2203f 	bic	r2, r2, #63	; 0x3f
f0001144:	e58328a0 	str	r2, [r3, #2208]	; 0x8a0
f0001148:	e12fff1e 	bx	lr

f000114c <io_high>:
f000114c:	e92d4070 	push	{r4, r5, r6, lr}
f0001150:	e3a04000 	mov	r4, #0
f0001154:	e34f41c2 	movt	r4, #61890	; 0xf1c2
f0001158:	e3a05001 	mov	r5, #1
f000115c:	e1a05015 	lsl	r5, r5, r0
f0001160:	e3020710 	movw	r0, #10000	; 0x2710
f0001164:	e59468a0 	ldr	r6, [r4, #2208]	; 0x8a0
f0001168:	e1c66005 	bic	r6, r6, r5
f000116c:	e58468a0 	str	r6, [r4, #2208]	; 0x8a0
f0001170:	e1865005 	orr	r5, r6, r5
f0001174:	eb000031 	bl	f0001240 <delay_us>
f0001178:	e58458a0 	str	r5, [r4, #2208]	; 0x8a0
f000117c:	e8bd8070 	pop	{r4, r5, r6, pc}

f0001180 <init_perfcounters>:
f0001180:	e3500000 	cmp	r0, #0
f0001184:	13a00007 	movne	r0, #7
f0001188:	03a00001 	moveq	r0, #1
f000118c:	e3510000 	cmp	r1, #0
f0001190:	13800008 	orrne	r0, r0, #8
f0001194:	e3800010 	orr	r0, r0, #16
f0001198:	ee090f1c 	mcr	15, 0, r0, cr9, cr12, {0}
f000119c:	e3a0313e 	mov	r3, #-2147483633	; 0x8000000f
f00011a0:	ee093f3c 	mcr	15, 0, r3, cr9, cr12, {1}
f00011a4:	ee093f7c 	mcr	15, 0, r3, cr9, cr12, {3}
f00011a8:	f57ff04f 	dsb	sy
f00011ac:	f57ff06f 	isb	sy
f00011b0:	e12fff1e 	bx	lr

f00011b4 <backup_perfcounter>:
f00011b4:	ee192f1c 	mrc	15, 0, r2, cr9, cr12, {0}
f00011b8:	e3033d60 	movw	r3, #15712	; 0x3d60
f00011bc:	e34f3000 	movt	r3, #61440	; 0xf000
f00011c0:	e5832000 	str	r2, [r3]
f00011c4:	ee192f3c 	mrc	15, 0, r2, cr9, cr12, {1}
f00011c8:	e5832004 	str	r2, [r3, #4]
f00011cc:	e12fff1e 	bx	lr

f00011d0 <restore_perfcounter>:
f00011d0:	e3033d60 	movw	r3, #15712	; 0x3d60
f00011d4:	e34f3000 	movt	r3, #61440	; 0xf000
f00011d8:	e5933000 	ldr	r3, [r3]
f00011dc:	ee093f1c 	mcr	15, 0, r3, cr9, cr12, {0}
f00011e0:	e3033d60 	movw	r3, #15712	; 0x3d60
f00011e4:	e34f3000 	movt	r3, #61440	; 0xf000
f00011e8:	e5933004 	ldr	r3, [r3, #4]
f00011ec:	ee093f3c 	mcr	15, 0, r3, cr9, cr12, {1}
f00011f0:	e12fff1e 	bx	lr

f00011f4 <get_cyclecount>:
f00011f4:	ee190f1d 	mrc	15, 0, r0, cr9, cr13, {0}
f00011f8:	e12fff1e 	bx	lr

f00011fc <reset_counter>:
f00011fc:	ee193f1c 	mrc	15, 0, r3, cr9, cr12, {0}
f0001200:	e3833004 	orr	r3, r3, #4
f0001204:	ee093f1c 	mcr	15, 0, r3, cr9, cr12, {0}
f0001208:	e12fff1e 	bx	lr

f000120c <change_runtime_env>:
f000120c:	e92d4010 	push	{r4, lr}
f0001210:	ee192f1d 	mrc	15, 0, r2, cr9, cr13, {0}
f0001214:	ee193f1d 	mrc	15, 0, r3, cr9, cr13, {0}
f0001218:	e59f401c 	ldr	r4, [pc, #28]	; f000123c <change_runtime_env+0x30>
f000121c:	e1520003 	cmp	r2, r3
f0001220:	81e02002 	mvnhi	r2, r2
f0001224:	90623003 	rsbls	r3, r2, r3
f0001228:	80823003 	addhi	r3, r2, r3
f000122c:	e5843008 	str	r3, [r4, #8]
f0001230:	eb00079c 	bl	f00030a8 <mem_clk_get_cpu_freq>
f0001234:	e584000c 	str	r0, [r4, #12]
f0001238:	e8bd8010 	pop	{r4, pc}
f000123c:	f0003d60 			; <UNDEFINED> instruction: 0xf0003d60

f0001240 <delay_us>:
f0001240:	e92d4038 	push	{r3, r4, r5, lr}
f0001244:	e1a05000 	mov	r5, r0
f0001248:	e59f4074 	ldr	r4, [pc, #116]	; f00012c4 <delay_us+0x84>
f000124c:	e594000c 	ldr	r0, [r4, #12]
f0001250:	e3500ffa 	cmp	r0, #1000	; 0x3e8
f0001254:	8a000002 	bhi	f0001264 <delay_us+0x24>
f0001258:	f57ff05f 	dmb	sy
f000125c:	f57ff06f 	isb	sy
f0001260:	e8bd8038 	pop	{r3, r4, r5, pc}
f0001264:	e3a01ffa 	mov	r1, #1000	; 0x3e8
f0001268:	eb00058a 	bl	f0002898 <raw_lib_udiv>
f000126c:	ee193f1d 	mrc	15, 0, r3, cr9, cr13, {0}
f0001270:	e5942008 	ldr	r2, [r4, #8]
f0001274:	e0255590 	mla	r5, r0, r5, r5
f0001278:	e0622003 	rsb	r2, r2, r3
f000127c:	e0825005 	add	r5, r2, r5
f0001280:	ee192f3c 	mrc	15, 0, r2, cr9, cr12, {1}
f0001284:	e202213e 	and	r2, r2, #-2147483633	; 0x8000000f
f0001288:	e352013e 	cmp	r2, #-2147483633	; 0x8000000f
f000128c:	0a000008 	beq	f00012b4 <delay_us+0x74>
f0001290:	e3a02017 	mov	r2, #23
f0001294:	ee092f1c 	mcr	15, 0, r2, cr9, cr12, {0}
f0001298:	e3a0213e 	mov	r2, #-2147483633	; 0x8000000f
f000129c:	ee092f3c 	mcr	15, 0, r2, cr9, cr12, {1}
f00012a0:	ee092f7c 	mcr	15, 0, r2, cr9, cr12, {3}
f00012a4:	f57ff04f 	dsb	sy
f00012a8:	f57ff06f 	isb	sy
f00012ac:	ea000000 	b	f00012b4 <delay_us+0x74>
f00012b0:	ee193f1d 	mrc	15, 0, r3, cr9, cr13, {0}
f00012b4:	e0653003 	rsb	r3, r5, r3
f00012b8:	e3530000 	cmp	r3, #0
f00012bc:	bafffffb 	blt	f00012b0 <delay_us+0x70>
f00012c0:	eaffffe4 	b	f0001258 <delay_us+0x18>
f00012c4:	f0003d60 			; <UNDEFINED> instruction: 0xf0003d60

f00012c8 <delay_ms>:
f00012c8:	e350000a 	cmp	r0, #10
f00012cc:	e92d4010 	push	{r4, lr}
f00012d0:	e1a04000 	mov	r4, r0
f00012d4:	9a000004 	bls	f00012ec <delay_ms+0x24>
f00012d8:	e3020710 	movw	r0, #10000	; 0x2710
f00012dc:	e244400a 	sub	r4, r4, #10
f00012e0:	ebffffd6 	bl	f0001240 <delay_us>
f00012e4:	e354000a 	cmp	r4, #10
f00012e8:	8afffffa 	bhi	f00012d8 <delay_ms+0x10>
f00012ec:	e3a00ffa 	mov	r0, #1000	; 0x3e8
f00012f0:	e0000490 	mul	r0, r0, r4
f00012f4:	e8bd4010 	pop	{r4, lr}
f00012f8:	eaffffd0 	b	f0001240 <delay_us>

f00012fc <init_event_counter>:
f00012fc:	e3500000 	cmp	r0, #0
f0001300:	13a00007 	movne	r0, #7
f0001304:	03a00001 	moveq	r0, #1
f0001308:	e3510000 	cmp	r1, #0
f000130c:	13800008 	orrne	r0, r0, #8
f0001310:	e3800010 	orr	r0, r0, #16
f0001314:	ee090f1c 	mcr	15, 0, r0, cr9, cr12, {0}
f0001318:	e3a0313e 	mov	r3, #-2147483633	; 0x8000000f
f000131c:	ee093f3c 	mcr	15, 0, r3, cr9, cr12, {1}
f0001320:	ee093f7c 	mcr	15, 0, r3, cr9, cr12, {3}
f0001324:	e12fff1e 	bx	lr

f0001328 <set_event_counter>:
f0001328:	e2403002 	sub	r3, r0, #2
f000132c:	e3530003 	cmp	r3, #3
f0001330:	959f2018 	ldrls	r2, [pc, #24]	; f0001350 <set_event_counter+0x28>
f0001334:	83a03000 	movhi	r3, #0
f0001338:	97923103 	ldrls	r3, [r2, r3, lsl #2]
f000133c:	ee093fbc 	mcr	15, 0, r3, cr9, cr12, {5}
f0001340:	ee090f3d 	mcr	15, 0, r0, cr9, cr13, {1}
f0001344:	f57ff04f 	dsb	sy
f0001348:	f57ff06f 	isb	sy
f000134c:	e12fff1e 	bx	lr
f0001350:	f00039ac 			; <UNDEFINED> instruction: 0xf00039ac

f0001354 <get_event_counter>:
f0001354:	e2400002 	sub	r0, r0, #2
f0001358:	e3500003 	cmp	r0, #3
f000135c:	959f3018 	ldrls	r3, [pc, #24]	; f000137c <get_event_counter+0x28>
f0001360:	83a03000 	movhi	r3, #0
f0001364:	97933100 	ldrls	r3, [r3, r0, lsl #2]
f0001368:	ee093fbc 	mcr	15, 0, r3, cr9, cr12, {5}
f000136c:	ee190f5d 	mrc	15, 0, r0, cr9, cr13, {2}
f0001370:	f57ff04f 	dsb	sy
f0001374:	f57ff06f 	isb	sy
f0001378:	e12fff1e 	bx	lr
f000137c:	f00039ac 			; <UNDEFINED> instruction: 0xf00039ac

f0001380 <save_mmu_state>:
f0001380:	ee503f10 	mrc	15, 2, r3, cr0, cr0, {0}
f0001384:	e5803000 	str	r3, [r0]
f0001388:	ee113f50 	mrc	15, 0, r3, cr1, cr0, {2}
f000138c:	e5803008 	str	r3, [r0, #8]
f0001390:	ee133f10 	mrc	15, 0, r3, cr3, cr0, {0}
f0001394:	e5803018 	str	r3, [r0, #24]
f0001398:	ee123f10 	mrc	15, 0, r3, cr2, cr0, {0}
f000139c:	e580300c 	str	r3, [r0, #12]
f00013a0:	ee123f30 	mrc	15, 0, r3, cr2, cr0, {1}
f00013a4:	e5803010 	str	r3, [r0, #16]
f00013a8:	ee123f50 	mrc	15, 0, r3, cr2, cr0, {2}
f00013ac:	e5803014 	str	r3, [r0, #20]
f00013b0:	ee113f10 	mrc	15, 0, r3, cr1, cr0, {0}
f00013b4:	e5803004 	str	r3, [r0, #4]
f00013b8:	e12fff1e 	bx	lr

f00013bc <restore_mmu_state>:
f00013bc:	e5903000 	ldr	r3, [r0]
f00013c0:	ee403f10 	mcr	15, 2, r3, cr0, cr0, {0}
f00013c4:	e5903008 	ldr	r3, [r0, #8]
f00013c8:	ee013f50 	mcr	15, 0, r3, cr1, cr0, {2}
f00013cc:	e5903018 	ldr	r3, [r0, #24]
f00013d0:	ee033f10 	mcr	15, 0, r3, cr3, cr0, {0}
f00013d4:	e5903010 	ldr	r3, [r0, #16]
f00013d8:	ee023f10 	mcr	15, 0, r3, cr2, cr0, {0}
f00013dc:	ee023f30 	mcr	15, 0, r3, cr2, cr0, {1}
f00013e0:	e5903014 	ldr	r3, [r0, #20]
f00013e4:	ee023f50 	mcr	15, 0, r3, cr2, cr0, {2}
f00013e8:	ea000004 	b	f0001400 <__turn_mmu_on>
f00013ec:	e320f000 	nop	{0}
f00013f0:	e320f000 	nop	{0}
f00013f4:	e320f000 	nop	{0}
f00013f8:	e320f000 	nop	{0}
f00013fc:	e320f000 	nop	{0}

f0001400 <__turn_mmu_on>:
f0001400:	e1a00000 	nop			; (mov r0, r0)
f0001404:	e5903004 	ldr	r3, [r0, #4]
f0001408:	ee013f10 	mcr	15, 0, r3, cr1, cr0, {0}
f000140c:	ee103f10 	mrc	15, 0, r3, cr0, cr0, {0}
f0001410:	e1a03003 	mov	r3, r3
f0001414:	e1a03003 	mov	r3, r3
f0001418:	f57ff06f 	isb	sy
f000141c:	e12fff1e 	bx	lr

f0001420 <save_sp>:
f0001420:	e1a0000d 	mov	r0, sp
f0001424:	e59fd4bc 	ldr	sp, [pc, #1212]	; f00018e8 <jump_to_resume0_nommu+0x28>
f0001428:	e1a0f00e 	mov	pc, lr

f000142c <save_sp_nommu>:
f000142c:	e1a0000d 	mov	r0, sp
f0001430:	e59fd4b4 	ldr	sp, [pc, #1204]	; f00018ec <jump_to_resume0_nommu+0x2c>
f0001434:	e1a0f00e 	mov	pc, lr

f0001438 <restore_sp>:
f0001438:	e1a0d000 	mov	sp, r0
f000143c:	e1a0f00e 	mov	pc, lr

f0001440 <get_sp>:
f0001440:	e1a0000d 	mov	r0, sp
f0001444:	e1a0f00e 	mov	pc, lr
f0001448:	e320f000 	nop	{0}
f000144c:	e320f000 	nop	{0}

f0001450 <get_cur_cluster_id>:
f0001450:	ee100fb0 	mrc	15, 0, r0, cr0, cr0, {5}
f0001454:	e7e30450 	ubfx	r0, r0, #8, #4
f0001458:	e1a0f00e 	mov	pc, lr
f000145c:	e320f000 	nop	{0}

f0001460 <invalidate_dcache>:
f0001460:	f57ff05f 	dmb	sy
f0001464:	ee300f30 	mrc	15, 1, r0, cr0, cr0, {1}
f0001468:	e2103407 	ands	r3, r0, #117440512	; 0x7000000
f000146c:	e1a03ba3 	lsr	r3, r3, #23
f0001470:	0a00001a 	beq	f00014e0 <inv_finished>
f0001474:	e3a0a000 	mov	sl, #0

f0001478 <inv_loop1>:
f0001478:	e08a20aa 	add	r2, sl, sl, lsr #1
f000147c:	e1a01230 	lsr	r1, r0, r2
f0001480:	e2011007 	and	r1, r1, #7
f0001484:	e3510002 	cmp	r1, #2
f0001488:	ba000011 	blt	f00014d4 <inv_skip>
f000148c:	ee40af10 	mcr	15, 2, sl, cr0, cr0, {0}
f0001490:	f57ff06f 	isb	sy
f0001494:	ee301f10 	mrc	15, 1, r1, cr0, cr0, {0}
f0001498:	e2012007 	and	r2, r1, #7
f000149c:	e2822004 	add	r2, r2, #4
f00014a0:	e59f4448 	ldr	r4, [pc, #1096]	; f00018f0 <jump_to_resume0_nommu+0x30>
f00014a4:	e01441a1 	ands	r4, r4, r1, lsr #3
f00014a8:	e16f5f14 	clz	r5, r4
f00014ac:	e59f7440 	ldr	r7, [pc, #1088]	; f00018f4 <jump_to_resume0_nommu+0x34>
f00014b0:	e01776a1 	ands	r7, r7, r1, lsr #13

f00014b4 <inv_loop2>:
f00014b4:	e1a09004 	mov	r9, r4

f00014b8 <inv_loop3>:
f00014b8:	e18ab519 	orr	fp, sl, r9, lsl r5
f00014bc:	e18bb217 	orr	fp, fp, r7, lsl r2
f00014c0:	ee07bf56 	mcr	15, 0, fp, cr7, cr6, {2}
f00014c4:	e2599001 	subs	r9, r9, #1
f00014c8:	aafffffa 	bge	f00014b8 <inv_loop3>
f00014cc:	e2577001 	subs	r7, r7, #1
f00014d0:	aafffff7 	bge	f00014b4 <inv_loop2>

f00014d4 <inv_skip>:
f00014d4:	e28aa002 	add	sl, sl, #2
f00014d8:	e153000a 	cmp	r3, sl
f00014dc:	caffffe5 	bgt	f0001478 <inv_loop1>

f00014e0 <inv_finished>:
f00014e0:	e3a0a000 	mov	sl, #0
f00014e4:	ee40af10 	mcr	15, 2, sl, cr0, cr0, {0}
f00014e8:	f57ff04f 	dsb	sy
f00014ec:	f57ff06f 	isb	sy
f00014f0:	e1a0f00e 	mov	pc, lr

f00014f4 <invalidate_icache>:
f00014f4:	e3a00000 	mov	r0, #0
f00014f8:	ee070f11 	mcr	15, 0, r0, cr7, cr1, {0}
f00014fc:	ee070f15 	mcr	15, 0, r0, cr7, cr5, {0}
f0001500:	f57ff04f 	dsb	sy
f0001504:	f57ff06f 	isb	sy
f0001508:	e1a0f00e 	mov	pc, lr

f000150c <flush_dcache>:
f000150c:	e92d1fff 	push	{r0, r1, r2, r3, r4, r5, r6, r7, r8, r9, sl, fp, ip}
f0001510:	f57ff05f 	dmb	sy
f0001514:	ee300f30 	mrc	15, 1, r0, cr0, cr0, {1}
f0001518:	e2103407 	ands	r3, r0, #117440512	; 0x7000000
f000151c:	e1a03ba3 	lsr	r3, r3, #23
f0001520:	0a00001a 	beq	f0001590 <finished>
f0001524:	e3a0a000 	mov	sl, #0

f0001528 <loop1>:
f0001528:	e08a20aa 	add	r2, sl, sl, lsr #1
f000152c:	e1a01230 	lsr	r1, r0, r2
f0001530:	e2011007 	and	r1, r1, #7
f0001534:	e3510002 	cmp	r1, #2
f0001538:	ba000011 	blt	f0001584 <skip>
f000153c:	ee40af10 	mcr	15, 2, sl, cr0, cr0, {0}
f0001540:	f57ff06f 	isb	sy
f0001544:	ee301f10 	mrc	15, 1, r1, cr0, cr0, {0}
f0001548:	e2012007 	and	r2, r1, #7
f000154c:	e2822004 	add	r2, r2, #4
f0001550:	e59f4398 	ldr	r4, [pc, #920]	; f00018f0 <jump_to_resume0_nommu+0x30>
f0001554:	e01441a1 	ands	r4, r4, r1, lsr #3
f0001558:	e16f5f14 	clz	r5, r4
f000155c:	e59f7390 	ldr	r7, [pc, #912]	; f00018f4 <jump_to_resume0_nommu+0x34>
f0001560:	e01776a1 	ands	r7, r7, r1, lsr #13

f0001564 <loop2>:
f0001564:	e1a09004 	mov	r9, r4

f0001568 <loop3>:
f0001568:	e18ab519 	orr	fp, sl, r9, lsl r5
f000156c:	e18bb217 	orr	fp, fp, r7, lsl r2
f0001570:	ee07bf5e 	mcr	15, 0, fp, cr7, cr14, {2}
f0001574:	e2599001 	subs	r9, r9, #1
f0001578:	aafffffa 	bge	f0001568 <loop3>
f000157c:	e2577001 	subs	r7, r7, #1
f0001580:	aafffff7 	bge	f0001564 <loop2>

f0001584 <skip>:
f0001584:	e28aa002 	add	sl, sl, #2
f0001588:	e153000a 	cmp	r3, sl
f000158c:	caffffe5 	bgt	f0001528 <loop1>

f0001590 <finished>:
f0001590:	e3a0a000 	mov	sl, #0
f0001594:	ee40af10 	mcr	15, 2, sl, cr0, cr0, {0}
f0001598:	f57ff04f 	dsb	sy
f000159c:	f57ff06f 	isb	sy
f00015a0:	e8bd1fff 	pop	{r0, r1, r2, r3, r4, r5, r6, r7, r8, r9, sl, fp, ip}
f00015a4:	e1a0f00e 	mov	pc, lr

f00015a8 <flush_icache>:
f00015a8:	e92d000f 	push	{r0, r1, r2, r3}
f00015ac:	e3a00000 	mov	r0, #0
f00015b0:	ee070f15 	mcr	15, 0, r0, cr7, cr5, {0}
f00015b4:	ee070f11 	mcr	15, 0, r0, cr7, cr1, {0}
f00015b8:	ee070fd1 	mcr	15, 0, r0, cr7, cr1, {6}
f00015bc:	f57ff06f 	isb	sy
f00015c0:	f57ff04f 	dsb	sy
f00015c4:	e8bd000f 	pop	{r0, r1, r2, r3}
f00015c8:	e1a0f00e 	mov	pc, lr

f00015cc <disable_cache>:
f00015cc:	e92d000f 	push	{r0, r1, r2, r3}
f00015d0:	ee110f10 	mrc	15, 0, r0, cr1, cr0, {0}
f00015d4:	e3c00a01 	bic	r0, r0, #4096	; 0x1000
f00015d8:	e3c00004 	bic	r0, r0, #4
f00015dc:	ee010f10 	mcr	15, 0, r0, cr1, cr0, {0}
f00015e0:	f57ff06f 	isb	sy
f00015e4:	e8bd000f 	pop	{r0, r1, r2, r3}
f00015e8:	e1a0f00e 	mov	pc, lr

f00015ec <disable_dcache>:
f00015ec:	e92d000f 	push	{r0, r1, r2, r3}
f00015f0:	ee110f10 	mrc	15, 0, r0, cr1, cr0, {0}
f00015f4:	e3c00004 	bic	r0, r0, #4
f00015f8:	ee010f10 	mcr	15, 0, r0, cr1, cr0, {0}
f00015fc:	f57ff06f 	isb	sy
f0001600:	e8bd000f 	pop	{r0, r1, r2, r3}
f0001604:	e1a0f00e 	mov	pc, lr

f0001608 <disable_icache>:
f0001608:	e92d000f 	push	{r0, r1, r2, r3}
f000160c:	ee110f10 	mrc	15, 0, r0, cr1, cr0, {0}
f0001610:	e3c00a01 	bic	r0, r0, #4096	; 0x1000
f0001614:	ee010f10 	mcr	15, 0, r0, cr1, cr0, {0}
f0001618:	f57ff06f 	isb	sy
f000161c:	e8bd000f 	pop	{r0, r1, r2, r3}
f0001620:	e1a0f00e 	mov	pc, lr

f0001624 <disable_l2cache>:
f0001624:	e92d000f 	push	{r0, r1, r2, r3}
f0001628:	ee110f30 	mrc	15, 0, r0, cr1, cr0, {1}
f000162c:	e3c00002 	bic	r0, r0, #2
f0001630:	ee010f30 	mcr	15, 0, r0, cr1, cr0, {1}
f0001634:	f57ff06f 	isb	sy
f0001638:	e8bd000f 	pop	{r0, r1, r2, r3}
f000163c:	e1a0f00e 	mov	pc, lr

f0001640 <enable_cache>:
f0001640:	e92d000f 	push	{r0, r1, r2, r3}
f0001644:	ee110f10 	mrc	15, 0, r0, cr1, cr0, {0}
f0001648:	e3800a01 	orr	r0, r0, #4096	; 0x1000
f000164c:	e3800004 	orr	r0, r0, #4
f0001650:	ee010f10 	mcr	15, 0, r0, cr1, cr0, {0}
f0001654:	f57ff06f 	isb	sy
f0001658:	e8bd000f 	pop	{r0, r1, r2, r3}
f000165c:	e1a0f00e 	mov	pc, lr

f0001660 <enable_icache>:
f0001660:	e92d000f 	push	{r0, r1, r2, r3}
f0001664:	ee110f10 	mrc	15, 0, r0, cr1, cr0, {0}
f0001668:	e3800a01 	orr	r0, r0, #4096	; 0x1000
f000166c:	ee010f10 	mcr	15, 0, r0, cr1, cr0, {0}
f0001670:	f57ff06f 	isb	sy
f0001674:	e8bd000f 	pop	{r0, r1, r2, r3}
f0001678:	e1a0f00e 	mov	pc, lr

f000167c <invalidate_branch_predictor>:
f000167c:	e92d000f 	push	{r0, r1, r2, r3}
f0001680:	e3a00000 	mov	r0, #0
f0001684:	ee070fd5 	mcr	15, 0, r0, cr7, cr5, {6}
f0001688:	f57ff06f 	isb	sy
f000168c:	e8bd000f 	pop	{r0, r1, r2, r3}
f0001690:	e1a0f00e 	mov	pc, lr

f0001694 <disable_program_flow_prediction>:
f0001694:	e92d000f 	push	{r0, r1, r2, r3}
f0001698:	ee110f10 	mrc	15, 0, r0, cr1, cr0, {0}
f000169c:	e3c00b02 	bic	r0, r0, #2048	; 0x800
f00016a0:	ee010f10 	mcr	15, 0, r0, cr1, cr0, {0}
f00016a4:	f57ff06f 	isb	sy
f00016a8:	e8bd000f 	pop	{r0, r1, r2, r3}
f00016ac:	e1a0f00e 	mov	pc, lr

f00016b0 <enable_program_flow_prediction>:
f00016b0:	e92d000f 	push	{r0, r1, r2, r3}
f00016b4:	ee110f10 	mrc	15, 0, r0, cr1, cr0, {0}
f00016b8:	e3800b02 	orr	r0, r0, #2048	; 0x800
f00016bc:	ee010f10 	mcr	15, 0, r0, cr1, cr0, {0}
f00016c0:	f57ff06f 	isb	sy
f00016c4:	e8bd000f 	pop	{r0, r1, r2, r3}
f00016c8:	e1a0f00e 	mov	pc, lr

f00016cc <mem_flush_tlb>:
f00016cc:	e92d000f 	push	{r0, r1, r2, r3}
f00016d0:	e3a00000 	mov	r0, #0
f00016d4:	ee080f15 	mcr	15, 0, r0, cr8, cr5, {0}
f00016d8:	ee080f16 	mcr	15, 0, r0, cr8, cr6, {0}
f00016dc:	ee080f13 	mcr	15, 0, r0, cr8, cr3, {0}
f00016e0:	f57ff04f 	dsb	sy
f00016e4:	f57ff06f 	isb	sy
f00016e8:	e8bd000f 	pop	{r0, r1, r2, r3}
f00016ec:	e1a0f00e 	mov	pc, lr

f00016f0 <mem_preload_tlb>:
f00016f0:	e92d000f 	push	{r0, r1, r2, r3}
f00016f4:	e3a0020f 	mov	r0, #-268435456	; 0xf0000000
f00016f8:	e5901000 	ldr	r1, [r0]
f00016fc:	e59f01f4 	ldr	r0, [pc, #500]	; f00018f8 <jump_to_resume0_nommu+0x38>
f0001700:	e5901000 	ldr	r1, [r0]
f0001704:	e59f01f0 	ldr	r0, [pc, #496]	; f00018fc <jump_to_resume0_nommu+0x3c>
f0001708:	e5901000 	ldr	r1, [r0]
f000170c:	e59f01ec 	ldr	r0, [pc, #492]	; f0001900 <jump_to_resume0_nommu+0x40>
f0001710:	e5901000 	ldr	r1, [r0]
f0001714:	e59f01e8 	ldr	r0, [pc, #488]	; f0001904 <jump_to_resume0_nommu+0x44>
f0001718:	e5901000 	ldr	r1, [r0]
f000171c:	e59f01e4 	ldr	r0, [pc, #484]	; f0001908 <jump_to_resume0_nommu+0x48>
f0001720:	e5901000 	ldr	r1, [r0]
f0001724:	e59f01e0 	ldr	r0, [pc, #480]	; f000190c <jump_to_resume0_nommu+0x4c>
f0001728:	e5901000 	ldr	r1, [r0]
f000172c:	e59f01dc 	ldr	r0, [pc, #476]	; f0001910 <jump_to_resume0_nommu+0x50>
f0001730:	e5901000 	ldr	r1, [r0]
f0001734:	e59f01d8 	ldr	r0, [pc, #472]	; f0001914 <jump_to_resume0_nommu+0x54>
f0001738:	e5901000 	ldr	r1, [r0]
f000173c:	e59f01d4 	ldr	r0, [pc, #468]	; f0001918 <jump_to_resume0_nommu+0x58>
f0001740:	e5901000 	ldr	r1, [r0]
f0001744:	e59f01d0 	ldr	r0, [pc, #464]	; f000191c <jump_to_resume0_nommu+0x5c>
f0001748:	e5901000 	ldr	r1, [r0]
f000174c:	e59f01cc 	ldr	r0, [pc, #460]	; f0001920 <jump_to_resume0_nommu+0x60>
f0001750:	e5901000 	ldr	r1, [r0]
f0001754:	e59f01c8 	ldr	r0, [pc, #456]	; f0001924 <jump_to_resume0_nommu+0x64>
f0001758:	e5901000 	ldr	r1, [r0]
f000175c:	e59f01c4 	ldr	r0, [pc, #452]	; f0001928 <jump_to_resume0_nommu+0x68>
f0001760:	e5901000 	ldr	r1, [r0]
f0001764:	e59f01c0 	ldr	r0, [pc, #448]	; f000192c <jump_to_resume0_nommu+0x6c>
f0001768:	e5901000 	ldr	r1, [r0]
f000176c:	e59f01bc 	ldr	r0, [pc, #444]	; f0001930 <jump_to_resume0_nommu+0x70>
f0001770:	e5901000 	ldr	r1, [r0]
f0001774:	e59f01b8 	ldr	r0, [pc, #440]	; f0001934 <jump_to_resume0_nommu+0x74>
f0001778:	e5901000 	ldr	r1, [r0]
f000177c:	e59f01b4 	ldr	r0, [pc, #436]	; f0001938 <jump_to_resume0_nommu+0x78>
f0001780:	e5901000 	ldr	r1, [r0]
f0001784:	e59f01b0 	ldr	r0, [pc, #432]	; f000193c <jump_to_resume0_nommu+0x7c>
f0001788:	e5901000 	ldr	r1, [r0]
f000178c:	e59f01ac 	ldr	r0, [pc, #428]	; f0001940 <jump_to_resume0_nommu+0x80>
f0001790:	e5901000 	ldr	r1, [r0]
f0001794:	e59f01a8 	ldr	r0, [pc, #424]	; f0001944 <jump_to_resume0_nommu+0x84>
f0001798:	e5901000 	ldr	r1, [r0]
f000179c:	e59f01a4 	ldr	r0, [pc, #420]	; f0001948 <jump_to_resume0_nommu+0x88>
f00017a0:	e5901000 	ldr	r1, [r0]
f00017a4:	e59f01a0 	ldr	r0, [pc, #416]	; f000194c <jump_to_resume0_nommu+0x8c>
f00017a8:	e5901000 	ldr	r1, [r0]
f00017ac:	e59f019c 	ldr	r0, [pc, #412]	; f0001950 <jump_to_resume0_nommu+0x90>
f00017b0:	e5901000 	ldr	r1, [r0]
f00017b4:	e59f0198 	ldr	r0, [pc, #408]	; f0001954 <jump_to_resume0_nommu+0x94>
f00017b8:	e5901000 	ldr	r1, [r0]
f00017bc:	e59f0194 	ldr	r0, [pc, #404]	; f0001958 <jump_to_resume0_nommu+0x98>
f00017c0:	e5901000 	ldr	r1, [r0]
f00017c4:	e59f0190 	ldr	r0, [pc, #400]	; f000195c <jump_to_resume0_nommu+0x9c>
f00017c8:	e5901000 	ldr	r1, [r0]
f00017cc:	e59f018c 	ldr	r0, [pc, #396]	; f0001960 <jump_to_resume0_nommu+0xa0>
f00017d0:	e5901000 	ldr	r1, [r0]
f00017d4:	e59f0188 	ldr	r0, [pc, #392]	; f0001964 <jump_to_resume0_nommu+0xa4>
f00017d8:	e5901000 	ldr	r1, [r0]
f00017dc:	e3a0020f 	mov	r0, #-268435456	; 0xf0000000
f00017e0:	e5901000 	ldr	r1, [r0]
f00017e4:	e59f017c 	ldr	r0, [pc, #380]	; f0001968 <jump_to_resume0_nommu+0xa8>
f00017e8:	e5901000 	ldr	r1, [r0]
f00017ec:	f57ff04f 	dsb	sy
f00017f0:	f57ff06f 	isb	sy
f00017f4:	e8bd000f 	pop	{r0, r1, r2, r3}
f00017f8:	e1a0f00e 	mov	pc, lr

f00017fc <disable_mmu>:
f00017fc:	ee111f10 	mrc	15, 0, r1, cr1, cr0, {0}
f0001800:	e3c11a01 	bic	r1, r1, #4096	; 0x1000
f0001804:	e3c11005 	bic	r1, r1, #5
f0001808:	ea000004 	b	f0001820 <__turn_mmu_off>
f000180c:	e320f000 	nop	{0}
f0001810:	e320f000 	nop	{0}
f0001814:	e320f000 	nop	{0}
f0001818:	e320f000 	nop	{0}
f000181c:	e320f000 	nop	{0}

f0001820 <__turn_mmu_off>:
f0001820:	ee011f10 	mcr	15, 0, r1, cr1, cr0, {0}
f0001824:	ee103f10 	mrc	15, 0, r3, cr0, cr0, {0}
f0001828:	e1a03003 	mov	r3, r3
f000182c:	e1a03003 	mov	r3, r3
f0001830:	e1a0f00e 	mov	pc, lr

f0001834 <enable_mmu>:
f0001834:	ee111f10 	mrc	15, 0, r1, cr1, cr0, {0}
f0001838:	e3811a01 	orr	r1, r1, #4096	; 0x1000
f000183c:	e3811005 	orr	r1, r1, #5
f0001840:	ea000006 	b	f0001860 <__turn_mmu_on>
f0001844:	e320f000 	nop	{0}
f0001848:	e320f000 	nop	{0}
f000184c:	e320f000 	nop	{0}
f0001850:	e320f000 	nop	{0}
f0001854:	e320f000 	nop	{0}
f0001858:	e320f000 	nop	{0}
f000185c:	e320f000 	nop	{0}

f0001860 <__turn_mmu_on>:
f0001860:	ee011f10 	mcr	15, 0, r1, cr1, cr0, {0}
f0001864:	ee103f10 	mrc	15, 0, r3, cr0, cr0, {0}
f0001868:	e1a03003 	mov	r3, r3
f000186c:	e1a03003 	mov	r3, r3
f0001870:	e1a0f00e 	mov	pc, lr

f0001874 <jump_to_suspend>:
f0001874:	ee020f10 	mcr	15, 0, r0, cr2, cr0, {0}
f0001878:	f57ff04f 	dsb	sy
f000187c:	f57ff06f 	isb	sy
f0001880:	e1a0f001 	mov	pc, r1
f0001884:	e320f000 	nop	{0}
f0001888:	e320f000 	nop	{0}
f000188c:	e320f000 	nop	{0}

f0001890 <jump_to_resume>:
f0001890:	e1a0c000 	mov	ip, r0
f0001894:	e1a08001 	mov	r8, r1
f0001898:	ebfffef0 	bl	f0001460 <invalidate_dcache>
f000189c:	e1a01008 	mov	r1, r8
f00018a0:	e1a0e00c 	mov	lr, ip
f00018a4:	e8913fff 	ldm	r1, {r0, r1, r2, r3, r4, r5, r6, r7, r8, r9, sl, fp, ip, sp}
f00018a8:	e1a0f00e 	mov	pc, lr
f00018ac:	e320f000 	nop	{0}

f00018b0 <jump_to_resume0>:
f00018b0:	e1a0e000 	mov	lr, r0
f00018b4:	e1a0f00e 	mov	pc, lr
f00018b8:	e320f000 	nop	{0}
f00018bc:	e320f000 	nop	{0}

f00018c0 <jump_to_resume0_nommu>:
f00018c0:	ee111f10 	mrc	15, 0, r1, cr1, cr0, {0}
f00018c4:	e3c11a01 	bic	r1, r1, #4096	; 0x1000
f00018c8:	e3c11007 	bic	r1, r1, #7
f00018cc:	ee011f10 	mcr	15, 0, r1, cr1, cr0, {0}
f00018d0:	ee103f10 	mrc	15, 0, r3, cr0, cr0, {0}
f00018d4:	e1a03003 	mov	r3, r3
f00018d8:	e1a03003 	mov	r3, r3
f00018dc:	e1a0e000 	mov	lr, r0
f00018e0:	f57ff06f 	isb	sy
f00018e4:	e1a0f00e 	mov	pc, lr
f00018e8:	f0003ffc 			; <UNDEFINED> instruction: 0xf0003ffc
f00018ec:	00003ffc 	strdeq	r3, [r0], -ip
f00018f0:	000003ff 	strdeq	r0, [r0], -pc	; <UNPREDICTABLE>
f00018f4:	00007fff 	strdeq	r7, [r0], -pc	; <UNPREDICTABLE>
f00018f8:	f0001000 			; <UNDEFINED> instruction: 0xf0001000
f00018fc:	f0002000 			; <UNDEFINED> instruction: 0xf0002000
f0001900:	f0003000 			; <UNDEFINED> instruction: 0xf0003000
f0001904:	f0040000 			; <UNDEFINED> instruction: 0xf0040000
f0001908:	f0041000 			; <UNDEFINED> instruction: 0xf0041000
f000190c:	f0042000 			; <UNDEFINED> instruction: 0xf0042000
f0001910:	f0043000 			; <UNDEFINED> instruction: 0xf0043000
f0001914:	f0044000 			; <UNDEFINED> instruction: 0xf0044000
f0001918:	f0045000 			; <UNDEFINED> instruction: 0xf0045000
f000191c:	f0046000 			; <UNDEFINED> instruction: 0xf0046000
f0001920:	f0047000 			; <UNDEFINED> instruction: 0xf0047000
f0001924:	f0048000 			; <UNDEFINED> instruction: 0xf0048000
f0001928:	f0049000 			; <UNDEFINED> instruction: 0xf0049000
f000192c:	f004a000 			; <UNDEFINED> instruction: 0xf004a000
f0001930:	f004b000 			; <UNDEFINED> instruction: 0xf004b000
f0001934:	f004c000 			; <UNDEFINED> instruction: 0xf004c000
f0001938:	f004d000 			; <UNDEFINED> instruction: 0xf004d000
f000193c:	f004e000 			; <UNDEFINED> instruction: 0xf004e000
f0001940:	f004f000 			; <UNDEFINED> instruction: 0xf004f000
f0001944:	f0050000 			; <UNDEFINED> instruction: 0xf0050000
f0001948:	f0051000 			; <UNDEFINED> instruction: 0xf0051000
f000194c:	f0052000 			; <UNDEFINED> instruction: 0xf0052000
f0001950:	f0053000 			; <UNDEFINED> instruction: 0xf0053000
f0001954:	f1c17000 			; <UNDEFINED> instruction: 0xf1c17000
f0001958:	f1c18000 			; <UNDEFINED> instruction: 0xf1c18000
f000195c:	f1c20800 			; <UNDEFINED> instruction: 0xf1c20800
f0001960:	f1f01400 			; <UNDEFINED> instruction: 0xf1f01400
f0001964:	f1c28000 			; <UNDEFINED> instruction: 0xf1c28000
f0001968:	f1c20000 			; <UNDEFINED> instruction: 0xf1c20000
f000196c:	e320f000 	nop	{0}
f0001970:	e320f000 	nop	{0}
f0001974:	e320f000 	nop	{0}
f0001978:	e320f000 	nop	{0}
f000197c:	e320f000 	nop	{0}

f0001980 <set_serial_gpio>:
f0001980:	e92d4038 	push	{r3, r4, r5, lr}
f0001984:	e1a04000 	mov	r4, r0
f0001988:	e1a05001 	mov	r5, r1
f000198c:	eb000451 	bl	f0002ad8 <config_gpio_clk>
f0001990:	e3540000 	cmp	r4, #0
f0001994:	1a000018 	bne	f00019fc <set_serial_gpio+0x7c>
f0001998:	e30f10ff 	movw	r1, #61695	; 0xf0ff
f000199c:	e3a02c03 	mov	r2, #768	; 0x300
f00019a0:	e3000828 	movw	r0, #2088	; 0x828
f00019a4:	e30038b4 	movw	r3, #2228	; 0x8b4
f00019a8:	e3550000 	cmp	r5, #0
f00019ac:	e34f1ff0 	movt	r1, #65520	; 0xfff0
f00019b0:	e3402003 	movt	r2, #3
f00019b4:	e34001c2 	movt	r0, #450	; 0x1c2
f00019b8:	e34031c2 	movt	r3, #450	; 0x1c2
f00019bc:	03e01eff 	mvneq	r1, #4080	; 0xff0
f00019c0:	03a02e22 	moveq	r2, #544	; 0x220
f00019c4:	01a03000 	moveq	r3, r0
f00019c8:	e5930000 	ldr	r0, [r3]
f00019cc:	e0001001 	and	r1, r0, r1
f00019d0:	e5831000 	str	r1, [r3]
f00019d4:	f57ff04f 	dsb	sy
f00019d8:	f57ff06f 	isb	sy
f00019dc:	f57ff04f 	dsb	sy
f00019e0:	f57ff06f 	isb	sy
f00019e4:	e5931000 	ldr	r1, [r3]
f00019e8:	e1812002 	orr	r2, r1, r2
f00019ec:	e5832000 	str	r2, [r3]
f00019f0:	f57ff04f 	dsb	sy
f00019f4:	f57ff06f 	isb	sy
f00019f8:	e8bd8038 	pop	{r3, r4, r5, pc}
f00019fc:	e3a02000 	mov	r2, #0
f0001a00:	e59f001c 	ldr	r0, [pc, #28]	; f0001a24 <set_serial_gpio+0xa4>
f0001a04:	e34f21c2 	movt	r2, #61890	; 0xf1c2
f0001a08:	e30038b4 	movw	r3, #2228	; 0x8b4
f0001a0c:	e592c8b4 	ldr	ip, [r2, #2228]	; 0x8b4
f0001a10:	e3e01000 	mvn	r1, #0
f0001a14:	e3a02000 	mov	r2, #0
f0001a18:	e34f31c2 	movt	r3, #61890	; 0xf1c2
f0001a1c:	e580c000 	str	ip, [r0]
f0001a20:	eaffffe8 	b	f00019c8 <set_serial_gpio+0x48>
f0001a24:	f0003d70 			; <UNDEFINED> instruction: 0xf0003d70

f0001a28 <set_serial_clk>:
f0001a28:	e92d4038 	push	{r3, r4, r5, lr}
f0001a2c:	e1a04000 	mov	r4, r0
f0001a30:	eb0004d6 	bl	f0002d90 <mem_get_ba>
f0001a34:	e5903058 	ldr	r3, [r0, #88]	; 0x58
f0001a38:	e7e12c53 	ubfx	r2, r3, #24, #2
f0001a3c:	e3520003 	cmp	r2, #3
f0001a40:	159f1084 	ldrne	r1, [pc, #132]	; f0001acc <set_serial_clk+0xa4>
f0001a44:	03a00000 	moveq	r0, #0
f0001a48:	17910102 	ldrne	r0, [r1, r2, lsl #2]
f0001a4c:	e203101f 	and	r1, r3, #31
f0001a50:	e2811001 	add	r1, r1, #1
f0001a54:	e7e13853 	ubfx	r3, r3, #16, #2
f0001a58:	e1a01311 	lsl	r1, r1, r3
f0001a5c:	eb000324 	bl	f00026f4 <__aeabi_uidiv>
f0001a60:	e3540000 	cmp	r4, #0
f0001a64:	e3a04000 	mov	r4, #0
f0001a68:	134f41c2 	movtne	r4, #61890	; 0xf1c2
f0001a6c:	159f305c 	ldrne	r3, [pc, #92]	; f0001ad0 <set_serial_clk+0xa8>
f0001a70:	1594206c 	ldrne	r2, [r4, #108]	; 0x6c
f0001a74:	034041c2 	movteq	r4, #450	; 0x1c2
f0001a78:	e1a05000 	mov	r5, r0
f0001a7c:	15832004 	strne	r2, [r3, #4]
f0001a80:	159422d8 	ldrne	r2, [r4, #728]	; 0x2d8
f0001a84:	15832008 	strne	r2, [r3, #8]
f0001a88:	e59432d8 	ldr	r3, [r4, #728]	; 0x2d8
f0001a8c:	e3c33801 	bic	r3, r3, #65536	; 0x10000
f0001a90:	e58432d8 	str	r3, [r4, #728]	; 0x2d8
f0001a94:	e59432d8 	ldr	r3, [r4, #728]	; 0x2d8
f0001a98:	e3833801 	orr	r3, r3, #65536	; 0x10000
f0001a9c:	e58432d8 	str	r3, [r4, #728]	; 0x2d8
f0001aa0:	ebfffdd9 	bl	f000120c <change_runtime_env>
f0001aa4:	e3a00001 	mov	r0, #1
f0001aa8:	ebfffde4 	bl	f0001240 <delay_us>
f0001aac:	e594306c 	ldr	r3, [r4, #108]	; 0x6c
f0001ab0:	e1a00005 	mov	r0, r5
f0001ab4:	e3c33801 	bic	r3, r3, #65536	; 0x10000
f0001ab8:	e584306c 	str	r3, [r4, #108]	; 0x6c
f0001abc:	e594306c 	ldr	r3, [r4, #108]	; 0x6c
f0001ac0:	e3833801 	orr	r3, r3, #65536	; 0x10000
f0001ac4:	e584306c 	str	r3, [r4, #108]	; 0x6c
f0001ac8:	e8bd8038 	pop	{r3, r4, r5, pc}
f0001acc:	f00039bc 			; <UNDEFINED> instruction: 0xf00039bc
f0001ad0:	f0003d70 			; <UNDEFINED> instruction: 0xf0003d70

f0001ad4 <serial_exit>:
f0001ad4:	e59f3034 	ldr	r3, [pc, #52]	; f0001b10 <serial_exit+0x3c>
f0001ad8:	e3a02000 	mov	r2, #0
f0001adc:	e34f21c2 	movt	r2, #61890	; 0xf1c2
f0001ae0:	e5931004 	ldr	r1, [r3, #4]
f0001ae4:	e582106c 	str	r1, [r2, #108]	; 0x6c
f0001ae8:	e5931008 	ldr	r1, [r3, #8]
f0001aec:	e58212d8 	str	r1, [r2, #728]	; 0x2d8
f0001af0:	e593100c 	ldr	r1, [r3, #12]
f0001af4:	e3510000 	cmp	r1, #0
f0001af8:	e5931000 	ldr	r1, [r3]
f0001afc:	05821828 	streq	r1, [r2, #2088]	; 0x828
f0001b00:	158218b4 	strne	r1, [r2, #2228]	; 0x8b4
f0001b04:	e3a02000 	mov	r2, #0
f0001b08:	e5832010 	str	r2, [r3, #16]
f0001b0c:	e12fff1e 	bx	lr
f0001b10:	f0003d70 			; <UNDEFINED> instruction: 0xf0003d70

f0001b14 <serial_init_nommu>:
f0001b14:	e92d4038 	push	{r3, r4, r5, lr}
f0001b18:	e1a01000 	mov	r1, r0
f0001b1c:	e3a00000 	mov	r0, #0
f0001b20:	ebffff96 	bl	f0001980 <set_serial_gpio>
f0001b24:	e3a00000 	mov	r0, #0
f0001b28:	ebffffbe 	bl	f0001a28 <set_serial_clk>
f0001b2c:	e30b33c5 	movw	r3, #46021	; 0xb3c5
f0001b30:	e2800ae1 	add	r0, r0, #921600	; 0xe1000
f0001b34:	e34931a2 	movt	r3, #37282	; 0x91a2
f0001b38:	e3a02902 	mov	r2, #32768	; 0x8000
f0001b3c:	e0831093 	umull	r1, r3, r3, r0
f0001b40:	e34021c2 	movt	r2, #450	; 0x1c2
f0001b44:	e592000c 	ldr	r0, [r2, #12]
f0001b48:	e3a0c001 	mov	ip, #1
f0001b4c:	e582c0a4 	str	ip, [r2, #164]	; 0xa4
f0001b50:	e3031d70 	movw	r1, #15728	; 0x3d70
f0001b54:	e34f1000 	movt	r1, #61440	; 0xf000
f0001b58:	e3805080 	orr	r5, r0, #128	; 0x80
f0001b5c:	e3c00080 	bic	r0, r0, #128	; 0x80
f0001b60:	e1a04e23 	lsr	r4, r3, #28
f0001b64:	e7e73a53 	ubfx	r3, r3, #20, #8
f0001b68:	e582500c 	str	r5, [r2, #12]
f0001b6c:	e5824004 	str	r4, [r2, #4]
f0001b70:	e5823000 	str	r3, [r2]
f0001b74:	e3a03000 	mov	r3, #0
f0001b78:	e582000c 	str	r0, [r2, #12]
f0001b7c:	e58230a4 	str	r3, [r2, #164]	; 0xa4
f0001b80:	e3a03003 	mov	r3, #3
f0001b84:	e582300c 	str	r3, [r2, #12]
f0001b88:	e3a030e1 	mov	r3, #225	; 0xe1
f0001b8c:	e5823008 	str	r3, [r2, #8]
f0001b90:	e581c010 	str	ip, [r1, #16]
f0001b94:	e8bd8038 	pop	{r3, r4, r5, pc}

f0001b98 <serial_puts_nommu>:
f0001b98:	e59f30a4 	ldr	r3, [pc, #164]	; f0001c44 <serial_puts_nommu+0xac>
f0001b9c:	e52d4004 	push	{r4}		; (str r4, [sp, #-4]!)
f0001ba0:	e5933010 	ldr	r3, [r3, #16]
f0001ba4:	e3530000 	cmp	r3, #0
f0001ba8:	03e00000 	mvneq	r0, #0
f0001bac:	0a000017 	beq	f0001c10 <serial_puts_nommu+0x78>
f0001bb0:	e5d03000 	ldrb	r3, [r0]
f0001bb4:	e3530000 	cmp	r3, #0
f0001bb8:	0a000013 	beq	f0001c0c <serial_puts_nommu+0x74>
f0001bbc:	e3a01902 	mov	r1, #32768	; 0x8000
f0001bc0:	e2400001 	sub	r0, r0, #1
f0001bc4:	e34011c2 	movt	r1, #450	; 0x1c2
f0001bc8:	e3a0400d 	mov	r4, #13
f0001bcc:	e353000a 	cmp	r3, #10
f0001bd0:	0a000010 	beq	f0001c18 <serial_puts_nommu+0x80>
f0001bd4:	e5f0c001 	ldrb	ip, [r0, #1]!
f0001bd8:	e591207c 	ldr	r2, [r1, #124]	; 0x7c
f0001bdc:	e3a03902 	mov	r3, #32768	; 0x8000
f0001be0:	e34031c2 	movt	r3, #450	; 0x1c2
f0001be4:	e3120002 	tst	r2, #2
f0001be8:	0afffffa 	beq	f0001bd8 <serial_puts_nommu+0x40>
f0001bec:	f57ff04f 	dsb	sy
f0001bf0:	f57ff06f 	isb	sy
f0001bf4:	e583c000 	str	ip, [r3]
f0001bf8:	f57ff04f 	dsb	sy
f0001bfc:	f57ff06f 	isb	sy
f0001c00:	e5d03001 	ldrb	r3, [r0, #1]
f0001c04:	e3530000 	cmp	r3, #0
f0001c08:	1affffef 	bne	f0001bcc <serial_puts_nommu+0x34>
f0001c0c:	e1a00003 	mov	r0, r3
f0001c10:	e8bd0010 	pop	{r4}
f0001c14:	e12fff1e 	bx	lr
f0001c18:	e591207c 	ldr	r2, [r1, #124]	; 0x7c
f0001c1c:	e3a03902 	mov	r3, #32768	; 0x8000
f0001c20:	e34031c2 	movt	r3, #450	; 0x1c2
f0001c24:	e3120002 	tst	r2, #2
f0001c28:	0afffffa 	beq	f0001c18 <serial_puts_nommu+0x80>
f0001c2c:	f57ff04f 	dsb	sy
f0001c30:	f57ff06f 	isb	sy
f0001c34:	e5834000 	str	r4, [r3]
f0001c38:	f57ff04f 	dsb	sy
f0001c3c:	f57ff06f 	isb	sy
f0001c40:	eaffffe3 	b	f0001bd4 <serial_puts_nommu+0x3c>
f0001c44:	f0003d70 			; <UNDEFINED> instruction: 0xf0003d70

f0001c48 <serial_gets_nommu>:
f0001c48:	e59f3080 	ldr	r3, [pc, #128]	; f0001cd0 <serial_gets_nommu+0x88>
f0001c4c:	e52d4004 	push	{r4}		; (str r4, [sp, #-4]!)
f0001c50:	e5933010 	ldr	r3, [r3, #16]
f0001c54:	e3530000 	cmp	r3, #0
f0001c58:	03e00000 	mvneq	r0, #0
f0001c5c:	1a000001 	bne	f0001c68 <serial_gets_nommu+0x20>
f0001c60:	e8bd0010 	pop	{r4}
f0001c64:	e12fff1e 	bx	lr
f0001c68:	e3510000 	cmp	r1, #0
f0001c6c:	03a00001 	moveq	r0, #1
f0001c70:	0afffffa 	beq	f0001c60 <serial_gets_nommu+0x18>
f0001c74:	e3a0c902 	mov	ip, #32768	; 0x8000
f0001c78:	e3a04000 	mov	r4, #0
f0001c7c:	e340c1c2 	movt	ip, #450	; 0x1c2
f0001c80:	e30f3fff 	movw	r3, #65535	; 0xffff
f0001c84:	ea000001 	b	f0001c90 <serial_gets_nommu+0x48>
f0001c88:	e2533001 	subs	r3, r3, #1
f0001c8c:	3a000006 	bcc	f0001cac <serial_gets_nommu+0x64>
f0001c90:	e59c207c 	ldr	r2, [ip, #124]	; 0x7c
f0001c94:	e3120008 	tst	r2, #8
f0001c98:	0afffffa 	beq	f0001c88 <serial_gets_nommu+0x40>
f0001c9c:	e3530000 	cmp	r3, #0
f0001ca0:	1a000001 	bne	f0001cac <serial_gets_nommu+0x64>
f0001ca4:	e2840001 	add	r0, r4, #1
f0001ca8:	eaffffec 	b	f0001c60 <serial_gets_nommu+0x18>
f0001cac:	e59c3000 	ldr	r3, [ip]
f0001cb0:	e6ef3073 	uxtb	r3, r3
f0001cb4:	e3530000 	cmp	r3, #0
f0001cb8:	0afffff9 	beq	f0001ca4 <serial_gets_nommu+0x5c>
f0001cbc:	e7c03004 	strb	r3, [r0, r4]
f0001cc0:	e2844001 	add	r4, r4, #1
f0001cc4:	e1540001 	cmp	r4, r1
f0001cc8:	1affffec 	bne	f0001c80 <serial_gets_nommu+0x38>
f0001ccc:	eafffff4 	b	f0001ca4 <serial_gets_nommu+0x5c>
f0001cd0:	f0003d70 			; <UNDEFINED> instruction: 0xf0003d70

f0001cd4 <serial_init_manager>:
f0001cd4:	e3033d70 	movw	r3, #15728	; 0x3d70
f0001cd8:	e3a02001 	mov	r2, #1
f0001cdc:	e34f3000 	movt	r3, #61440	; 0xf000
f0001ce0:	e5832010 	str	r2, [r3, #16]
f0001ce4:	e12fff1e 	bx	lr

f0001ce8 <serial_exit_manager>:
f0001ce8:	e3033d70 	movw	r3, #15728	; 0x3d70
f0001cec:	e3a02000 	mov	r2, #0
f0001cf0:	e34f3000 	movt	r3, #61440	; 0xf000
f0001cf4:	e5832010 	str	r2, [r3, #16]
f0001cf8:	e12fff1e 	bx	lr

f0001cfc <serial_init>:
f0001cfc:	e92d4038 	push	{r3, r4, r5, lr}
f0001d00:	e1a03000 	mov	r3, r0
f0001d04:	e3034d70 	movw	r4, #15728	; 0x3d70
f0001d08:	e1a01003 	mov	r1, r3
f0001d0c:	e34f4000 	movt	r4, #61440	; 0xf000
f0001d10:	e3a00001 	mov	r0, #1
f0001d14:	e584300c 	str	r3, [r4, #12]
f0001d18:	ebffff18 	bl	f0001980 <set_serial_gpio>
f0001d1c:	e3a00001 	mov	r0, #1
f0001d20:	ebffff40 	bl	f0001a28 <set_serial_clk>
f0001d24:	e30b33c5 	movw	r3, #46021	; 0xb3c5
f0001d28:	e2800ae1 	add	r0, r0, #921600	; 0xe1000
f0001d2c:	e34931a2 	movt	r3, #37282	; 0x91a2
f0001d30:	e3a02902 	mov	r2, #32768	; 0x8000
f0001d34:	e0831093 	umull	r1, r3, r3, r0
f0001d38:	e34f21c2 	movt	r2, #61890	; 0xf1c2
f0001d3c:	e592000c 	ldr	r0, [r2, #12]
f0001d40:	e3a01001 	mov	r1, #1
f0001d44:	e58210a4 	str	r1, [r2, #164]	; 0xa4
f0001d48:	e3805080 	orr	r5, r0, #128	; 0x80
f0001d4c:	e3c00080 	bic	r0, r0, #128	; 0x80
f0001d50:	e1a0ce23 	lsr	ip, r3, #28
f0001d54:	e7e73a53 	ubfx	r3, r3, #20, #8
f0001d58:	e582500c 	str	r5, [r2, #12]
f0001d5c:	e582c004 	str	ip, [r2, #4]
f0001d60:	e5823000 	str	r3, [r2]
f0001d64:	e3a03000 	mov	r3, #0
f0001d68:	e582000c 	str	r0, [r2, #12]
f0001d6c:	e58230a4 	str	r3, [r2, #164]	; 0xa4
f0001d70:	e3a03003 	mov	r3, #3
f0001d74:	e582300c 	str	r3, [r2, #12]
f0001d78:	e3a030e1 	mov	r3, #225	; 0xe1
f0001d7c:	e5823008 	str	r3, [r2, #8]
f0001d80:	e5841010 	str	r1, [r4, #16]
f0001d84:	e8bd8038 	pop	{r3, r4, r5, pc}

f0001d88 <serial_puts>:
f0001d88:	e59f30a4 	ldr	r3, [pc, #164]	; f0001e34 <serial_puts+0xac>
f0001d8c:	e52d4004 	push	{r4}		; (str r4, [sp, #-4]!)
f0001d90:	e5933010 	ldr	r3, [r3, #16]
f0001d94:	e3530000 	cmp	r3, #0
f0001d98:	03e00000 	mvneq	r0, #0
f0001d9c:	0a000017 	beq	f0001e00 <serial_puts+0x78>
f0001da0:	e5d03000 	ldrb	r3, [r0]
f0001da4:	e3530000 	cmp	r3, #0
f0001da8:	0a000013 	beq	f0001dfc <serial_puts+0x74>
f0001dac:	e3a01902 	mov	r1, #32768	; 0x8000
f0001db0:	e2400001 	sub	r0, r0, #1
f0001db4:	e34f11c2 	movt	r1, #61890	; 0xf1c2
f0001db8:	e3a0400d 	mov	r4, #13
f0001dbc:	e353000a 	cmp	r3, #10
f0001dc0:	0a000010 	beq	f0001e08 <serial_puts+0x80>
f0001dc4:	e5f0c001 	ldrb	ip, [r0, #1]!
f0001dc8:	e591207c 	ldr	r2, [r1, #124]	; 0x7c
f0001dcc:	e3a03902 	mov	r3, #32768	; 0x8000
f0001dd0:	e34f31c2 	movt	r3, #61890	; 0xf1c2
f0001dd4:	e3120002 	tst	r2, #2
f0001dd8:	0afffffa 	beq	f0001dc8 <serial_puts+0x40>
f0001ddc:	f57ff04f 	dsb	sy
f0001de0:	f57ff06f 	isb	sy
f0001de4:	e583c000 	str	ip, [r3]
f0001de8:	f57ff04f 	dsb	sy
f0001dec:	f57ff06f 	isb	sy
f0001df0:	e5d03001 	ldrb	r3, [r0, #1]
f0001df4:	e3530000 	cmp	r3, #0
f0001df8:	1affffef 	bne	f0001dbc <serial_puts+0x34>
f0001dfc:	e1a00003 	mov	r0, r3
f0001e00:	e8bd0010 	pop	{r4}
f0001e04:	e12fff1e 	bx	lr
f0001e08:	e591207c 	ldr	r2, [r1, #124]	; 0x7c
f0001e0c:	e3a03902 	mov	r3, #32768	; 0x8000
f0001e10:	e34f31c2 	movt	r3, #61890	; 0xf1c2
f0001e14:	e3120002 	tst	r2, #2
f0001e18:	0afffffa 	beq	f0001e08 <serial_puts+0x80>
f0001e1c:	f57ff04f 	dsb	sy
f0001e20:	f57ff06f 	isb	sy
f0001e24:	e5834000 	str	r4, [r3]
f0001e28:	f57ff04f 	dsb	sy
f0001e2c:	f57ff06f 	isb	sy
f0001e30:	eaffffe3 	b	f0001dc4 <serial_puts+0x3c>
f0001e34:	f0003d70 			; <UNDEFINED> instruction: 0xf0003d70

f0001e38 <serial_gets>:
f0001e38:	e59f3080 	ldr	r3, [pc, #128]	; f0001ec0 <serial_gets+0x88>
f0001e3c:	e52d4004 	push	{r4}		; (str r4, [sp, #-4]!)
f0001e40:	e5933010 	ldr	r3, [r3, #16]
f0001e44:	e3530000 	cmp	r3, #0
f0001e48:	03e00000 	mvneq	r0, #0
f0001e4c:	1a000001 	bne	f0001e58 <serial_gets+0x20>
f0001e50:	e8bd0010 	pop	{r4}
f0001e54:	e12fff1e 	bx	lr
f0001e58:	e3510000 	cmp	r1, #0
f0001e5c:	03a00001 	moveq	r0, #1
f0001e60:	0afffffa 	beq	f0001e50 <serial_gets+0x18>
f0001e64:	e3a0c902 	mov	ip, #32768	; 0x8000
f0001e68:	e3a04000 	mov	r4, #0
f0001e6c:	e34fc1c2 	movt	ip, #61890	; 0xf1c2
f0001e70:	e30f3fff 	movw	r3, #65535	; 0xffff
f0001e74:	ea000001 	b	f0001e80 <serial_gets+0x48>
f0001e78:	e2533001 	subs	r3, r3, #1
f0001e7c:	3a000006 	bcc	f0001e9c <serial_gets+0x64>
f0001e80:	e59c207c 	ldr	r2, [ip, #124]	; 0x7c
f0001e84:	e3120008 	tst	r2, #8
f0001e88:	0afffffa 	beq	f0001e78 <serial_gets+0x40>
f0001e8c:	e3530000 	cmp	r3, #0
f0001e90:	1a000001 	bne	f0001e9c <serial_gets+0x64>
f0001e94:	e2840001 	add	r0, r4, #1
f0001e98:	eaffffec 	b	f0001e50 <serial_gets+0x18>
f0001e9c:	e59c3000 	ldr	r3, [ip]
f0001ea0:	e6ef3073 	uxtb	r3, r3
f0001ea4:	e3530000 	cmp	r3, #0
f0001ea8:	0afffff9 	beq	f0001e94 <serial_gets+0x5c>
f0001eac:	e7c03004 	strb	r3, [r0, r4]
f0001eb0:	e2844001 	add	r4, r4, #1
f0001eb4:	e1540001 	cmp	r4, r1
f0001eb8:	1affffec 	bne	f0001e70 <serial_gets+0x38>
f0001ebc:	eafffff4 	b	f0001e94 <serial_gets+0x5c>
f0001ec0:	f0003d70 			; <UNDEFINED> instruction: 0xf0003d70

f0001ec4 <utoa>:
f0001ec4:	e92d45f0 	push	{r4, r5, r6, r7, r8, sl, lr}
f0001ec8:	e3500000 	cmp	r0, #0
f0001ecc:	e59f60a8 	ldr	r6, [pc, #168]	; f0001f7c <utoa+0xb8>
f0001ed0:	e1a07001 	mov	r7, r1
f0001ed4:	e1a04000 	mov	r4, r0
f0001ed8:	e1a05002 	mov	r5, r2
f0001edc:	e24dd02c 	sub	sp, sp, #44	; 0x2c
f0001ee0:	13a08000 	movne	r8, #0
f0001ee4:	e28dc004 	add	ip, sp, #4
f0001ee8:	128da018 	addne	sl, sp, #24
f0001eec:	e8b6000f 	ldm	r6!, {r0, r1, r2, r3}
f0001ef0:	e5966000 	ldr	r6, [r6]
f0001ef4:	e8ac000f 	stmia	ip!, {r0, r1, r2, r3}
f0001ef8:	03a03030 	moveq	r3, #48	; 0x30
f0001efc:	05c74001 	strbeq	r4, [r7, #1]
f0001f00:	e5cc6000 	strb	r6, [ip]
f0001f04:	05c73000 	strbeq	r3, [r7]
f0001f08:	1a000001 	bne	f0001f14 <utoa+0x50>
f0001f0c:	ea000017 	b	f0001f70 <utoa+0xac>
f0001f10:	e1a08003 	mov	r8, r3
f0001f14:	e1a00004 	mov	r0, r4
f0001f18:	e1a01005 	mov	r1, r5
f0001f1c:	eb00024e 	bl	f000285c <__aeabi_uidivmod>
f0001f20:	e28d3028 	add	r3, sp, #40	; 0x28
f0001f24:	e1a00004 	mov	r0, r4
f0001f28:	e0831001 	add	r1, r3, r1
f0001f2c:	e5516024 	ldrb	r6, [r1, #-36]	; 0x24
f0001f30:	e1a01005 	mov	r1, r5
f0001f34:	e7ca6008 	strb	r6, [sl, r8]
f0001f38:	eb0001ed 	bl	f00026f4 <__aeabi_uidiv>
f0001f3c:	e2504000 	subs	r4, r0, #0
f0001f40:	e2883001 	add	r3, r8, #1
f0001f44:	1afffff1 	bne	f0001f10 <utoa+0x4c>
f0001f48:	e2472001 	sub	r2, r7, #1
f0001f4c:	e08a3008 	add	r3, sl, r8
f0001f50:	ea000000 	b	f0001f58 <utoa+0x94>
f0001f54:	e5736001 	ldrb	r6, [r3, #-1]!
f0001f58:	e153000a 	cmp	r3, sl
f0001f5c:	e5e26001 	strb	r6, [r2, #1]!
f0001f60:	1afffffb 	bne	f0001f54 <utoa+0x90>
f0001f64:	e0878008 	add	r8, r7, r8
f0001f68:	e3a03000 	mov	r3, #0
f0001f6c:	e5c83001 	strb	r3, [r8, #1]
f0001f70:	e1a00007 	mov	r0, r7
f0001f74:	e28dd02c 	add	sp, sp, #44	; 0x2c
f0001f78:	e8bd85f0 	pop	{r4, r5, r6, r7, r8, sl, pc}
f0001f7c:	f0003bc0 			; <UNDEFINED> instruction: 0xf0003bc0

f0001f80 <print_align>:
f0001f80:	e92d00f0 	push	{r4, r5, r6, r7}
f0001f84:	e1510002 	cmp	r1, r2
f0001f88:	e59f4094 	ldr	r4, [pc, #148]	; f0002024 <print_align+0xa4>
f0001f8c:	e1a07001 	mov	r7, r1
f0001f90:	e1a06002 	mov	r6, r2
f0001f94:	e1a05000 	mov	r5, r0
f0001f98:	e24dd018 	sub	sp, sp, #24
f0001f9c:	e28dc004 	add	ip, sp, #4
f0001fa0:	e8b4000f 	ldm	r4!, {r0, r1, r2, r3}
f0001fa4:	e5944000 	ldr	r4, [r4]
f0001fa8:	e8ac000f 	stmia	ip!, {r0, r1, r2, r3}
f0001fac:	a3a00000 	movge	r0, #0
f0001fb0:	e5cc4000 	strb	r4, [ip]
f0001fb4:	aa000017 	bge	f0002018 <print_align+0x98>
f0001fb8:	e0670006 	rsb	r0, r7, r6
f0001fbc:	e3500000 	cmp	r0, #0
f0001fc0:	e1a01000 	mov	r1, r0
f0001fc4:	0a000013 	beq	f0002018 <print_align+0x98>
f0001fc8:	e5d53000 	ldrb	r3, [r5]
f0001fcc:	e3530000 	cmp	r3, #0
f0001fd0:	0a000005 	beq	f0001fec <print_align+0x6c>
f0001fd4:	e1a03005 	mov	r3, r5
f0001fd8:	e2833001 	add	r3, r3, #1
f0001fdc:	e5d32000 	ldrb	r2, [r3]
f0001fe0:	e1a05003 	mov	r5, r3
f0001fe4:	e3520000 	cmp	r2, #0
f0001fe8:	1afffffa 	bne	f0001fd8 <print_align+0x58>
f0001fec:	e28dc003 	add	ip, sp, #3
f0001ff0:	ea000000 	b	f0001ff8 <print_align+0x78>
f0001ff4:	e1a05003 	mov	r5, r3
f0001ff8:	e5fc2001 	ldrb	r2, [ip, #1]!
f0001ffc:	e1a03005 	mov	r3, r5
f0002000:	e3520000 	cmp	r2, #0
f0002004:	e4c32001 	strb	r2, [r3], #1
f0002008:	0a000002 	beq	f0002018 <print_align+0x98>
f000200c:	e2511001 	subs	r1, r1, #1
f0002010:	1afffff7 	bne	f0001ff4 <print_align+0x74>
f0002014:	e5c51001 	strb	r1, [r5, #1]
f0002018:	e28dd018 	add	sp, sp, #24
f000201c:	e8bd00f0 	pop	{r4, r5, r6, r7}
f0002020:	e12fff1e 	bx	lr
f0002024:	f0003bd4 			; <UNDEFINED> instruction: 0xf0003bd4

f0002028 <itoa.constprop.0>:
f0002028:	e92d01f0 	push	{r4, r5, r6, r7, r8}
f000202c:	e3500000 	cmp	r0, #0
f0002030:	e59f50d4 	ldr	r5, [pc, #212]	; f000210c <itoa.constprop.0+0xe4>
f0002034:	e1a06001 	mov	r6, r1
f0002038:	e1a0c000 	mov	ip, r0
f000203c:	e24dd02c 	sub	sp, sp, #44	; 0x2c
f0002040:	e28d4004 	add	r4, sp, #4
f0002044:	e8b5000f 	ldm	r5!, {r0, r1, r2, r3}
f0002048:	e5955000 	ldr	r5, [r5]
f000204c:	e8a4000f 	stmia	r4!, {r0, r1, r2, r3}
f0002050:	03a03030 	moveq	r3, #48	; 0x30
f0002054:	05c6c001 	strbeq	ip, [r6, #1]
f0002058:	e5c45000 	strb	r5, [r4]
f000205c:	05c63000 	strbeq	r3, [r6]
f0002060:	0a000025 	beq	f00020fc <itoa.constprop.0+0xd4>
f0002064:	e3065667 	movw	r5, #26215	; 0x6667
f0002068:	b26cc000 	rsblt	ip, ip, #0
f000206c:	b3a07001 	movlt	r7, #1
f0002070:	a3a07000 	movge	r7, #0
f0002074:	e3a03000 	mov	r3, #0
f0002078:	e28d0018 	add	r0, sp, #24
f000207c:	e3465666 	movt	r5, #26214	; 0x6666
f0002080:	ea000000 	b	f0002088 <itoa.constprop.0+0x60>
f0002084:	e1a03004 	mov	r3, r4
f0002088:	e0c12c95 	smull	r2, r1, r5, ip
f000208c:	e1a02fcc 	asr	r2, ip, #31
f0002090:	e28d8028 	add	r8, sp, #40	; 0x28
f0002094:	e2834001 	add	r4, r3, #1
f0002098:	e0622141 	rsb	r2, r2, r1, asr #2
f000209c:	e0821102 	add	r1, r2, r2, lsl #2
f00020a0:	e04c1081 	sub	r1, ip, r1, lsl #1
f00020a4:	e252c000 	subs	ip, r2, #0
f00020a8:	e0882001 	add	r2, r8, r1
f00020ac:	e5522024 	ldrb	r2, [r2, #-36]	; 0x24
f00020b0:	e7c02003 	strb	r2, [r0, r3]
f00020b4:	1afffff2 	bne	f0002084 <itoa.constprop.0+0x5c>
f00020b8:	e3570000 	cmp	r7, #0
f00020bc:	e1a0c003 	mov	ip, r3
f00020c0:	13a0102d 	movne	r1, #45	; 0x2d
f00020c4:	13a07001 	movne	r7, #1
f00020c8:	15c61000 	strbne	r1, [r6]
f00020cc:	e2471001 	sub	r1, r7, #1
f00020d0:	e0861001 	add	r1, r6, r1
f00020d4:	ea000000 	b	f00020dc <itoa.constprop.0+0xb4>
f00020d8:	e7d02003 	ldrb	r2, [r0, r3]
f00020dc:	e2433001 	sub	r3, r3, #1
f00020e0:	e5e12001 	strb	r2, [r1, #1]!
f00020e4:	e3730001 	cmn	r3, #1
f00020e8:	1afffffa 	bne	f00020d8 <itoa.constprop.0+0xb0>
f00020ec:	e2877001 	add	r7, r7, #1
f00020f0:	e3a03000 	mov	r3, #0
f00020f4:	e0867007 	add	r7, r6, r7
f00020f8:	e7c7300c 	strb	r3, [r7, ip]
f00020fc:	e1a00006 	mov	r0, r6
f0002100:	e28dd02c 	add	sp, sp, #44	; 0x2c
f0002104:	e8bd01f0 	pop	{r4, r5, r6, r7, r8}
f0002108:	e12fff1e 	bx	lr
f000210c:	f0003bc0 			; <UNDEFINED> instruction: 0xf0003bc0

f0002110 <printk>:
f0002110:	e92d000f 	push	{r0, r1, r2, r3}
f0002114:	e92d47f0 	push	{r4, r5, r6, r7, r8, r9, sl, lr}
f0002118:	e24dd018 	sub	sp, sp, #24
f000211c:	e28d303c 	add	r3, sp, #60	; 0x3c
f0002120:	e59d4038 	ldr	r4, [sp, #56]	; 0x38
f0002124:	e58d3014 	str	r3, [sp, #20]
f0002128:	e59f82ac 	ldr	r8, [pc, #684]	; f00023dc <printk+0x2cc>
f000212c:	e5d43000 	ldrb	r3, [r4]
f0002130:	e3530000 	cmp	r3, #0
f0002134:	01a05008 	moveq	r5, r8
f0002138:	0a00002c 	beq	f00021f0 <printk+0xe0>
f000213c:	e3a09025 	mov	r9, #37	; 0x25
f0002140:	e28d6004 	add	r6, sp, #4
f0002144:	e1a05008 	mov	r5, r8
f0002148:	ea000003 	b	f000215c <printk+0x4c>
f000214c:	e5d43001 	ldrb	r3, [r4, #1]
f0002150:	e2844001 	add	r4, r4, #1
f0002154:	e3530000 	cmp	r3, #0
f0002158:	0a000024 	beq	f00021f0 <printk+0xe0>
f000215c:	e3530025 	cmp	r3, #37	; 0x25
f0002160:	14c53001 	strbne	r3, [r5], #1
f0002164:	1afffff8 	bne	f000214c <printk+0x3c>
f0002168:	e5d43001 	ldrb	r3, [r4, #1]
f000216c:	e2432031 	sub	r2, r3, #49	; 0x31
f0002170:	e3520008 	cmp	r2, #8
f0002174:	92437030 	subls	r7, r3, #48	; 0x30
f0002178:	95d43002 	ldrbls	r3, [r4, #2]
f000217c:	82844001 	addhi	r4, r4, #1
f0002180:	83a07000 	movhi	r7, #0
f0002184:	92844002 	addls	r4, r4, #2
f0002188:	e2433063 	sub	r3, r3, #99	; 0x63
f000218c:	e3530015 	cmp	r3, #21
f0002190:	979ff103 	ldrls	pc, [pc, r3, lsl #2]
f0002194:	ea000070 	b	f000235c <printk+0x24c>
f0002198:	f0002344 			; <UNDEFINED> instruction: 0xf0002344
f000219c:	f0002370 			; <UNDEFINED> instruction: 0xf0002370
f00021a0:	f000235c 			; <UNDEFINED> instruction: 0xf000235c
f00021a4:	f000235c 			; <UNDEFINED> instruction: 0xf000235c
f00021a8:	f000235c 			; <UNDEFINED> instruction: 0xf000235c
f00021ac:	f000235c 			; <UNDEFINED> instruction: 0xf000235c
f00021b0:	f000235c 			; <UNDEFINED> instruction: 0xf000235c
f00021b4:	f000235c 			; <UNDEFINED> instruction: 0xf000235c
f00021b8:	f000235c 			; <UNDEFINED> instruction: 0xf000235c
f00021bc:	f000235c 			; <UNDEFINED> instruction: 0xf000235c
f00021c0:	f000235c 			; <UNDEFINED> instruction: 0xf000235c
f00021c4:	f000235c 			; <UNDEFINED> instruction: 0xf000235c
f00021c8:	f000235c 			; <UNDEFINED> instruction: 0xf000235c
f00021cc:	f00022d4 			; <UNDEFINED> instruction: 0xf00022d4
f00021d0:	f000235c 			; <UNDEFINED> instruction: 0xf000235c
f00021d4:	f000235c 			; <UNDEFINED> instruction: 0xf000235c
f00021d8:	f0002284 			; <UNDEFINED> instruction: 0xf0002284
f00021dc:	f000235c 			; <UNDEFINED> instruction: 0xf000235c
f00021e0:	f0002214 			; <UNDEFINED> instruction: 0xf0002214
f00021e4:	f000235c 			; <UNDEFINED> instruction: 0xf000235c
f00021e8:	f000235c 			; <UNDEFINED> instruction: 0xf000235c
f00021ec:	f00022d4 			; <UNDEFINED> instruction: 0xf00022d4
f00021f0:	e3a03000 	mov	r3, #0
f00021f4:	e59f01e0 	ldr	r0, [pc, #480]	; f00023dc <printk+0x2cc>
f00021f8:	e4c53001 	strb	r3, [r5], #1
f00021fc:	ebfffee1 	bl	f0001d88 <serial_puts>
f0002200:	e0680005 	rsb	r0, r8, r5
f0002204:	e28dd018 	add	sp, sp, #24
f0002208:	e8bd47f0 	pop	{r4, r5, r6, r7, r8, r9, sl, lr}
f000220c:	e28dd010 	add	sp, sp, #16
f0002210:	e12fff1e 	bx	lr
f0002214:	e59d0014 	ldr	r0, [sp, #20]
f0002218:	e1a01006 	mov	r1, r6
f000221c:	e3a0200a 	mov	r2, #10
f0002220:	e2803004 	add	r3, r0, #4
f0002224:	e5900000 	ldr	r0, [r0]
f0002228:	e58d3014 	str	r3, [sp, #20]
f000222c:	ebffff24 	bl	f0001ec4 <utoa>
f0002230:	e5d6a000 	ldrb	sl, [r6]
f0002234:	e35a0000 	cmp	sl, #0
f0002238:	0a000004 	beq	f0002250 <printk+0x140>
f000223c:	e1a0a006 	mov	sl, r6
f0002240:	e5fa3001 	ldrb	r3, [sl, #1]!
f0002244:	e3530000 	cmp	r3, #0
f0002248:	1afffffc 	bne	f0002240 <printk+0x130>
f000224c:	e066a00a 	rsb	sl, r6, sl
f0002250:	e1a0100a 	mov	r1, sl
f0002254:	e1a00006 	mov	r0, r6
f0002258:	e1a02007 	mov	r2, r7
f000225c:	ebffff47 	bl	f0001f80 <print_align>
f0002260:	e28d3003 	add	r3, sp, #3
f0002264:	e080000a 	add	r0, r0, sl
f0002268:	e1a01005 	mov	r1, r5
f000226c:	e5f32001 	ldrb	r2, [r3, #1]!
f0002270:	e3520000 	cmp	r2, #0
f0002274:	e4c12001 	strb	r2, [r1], #1
f0002278:	1afffffb 	bne	f000226c <printk+0x15c>
f000227c:	e0855000 	add	r5, r5, r0
f0002280:	eaffffb1 	b	f000214c <printk+0x3c>
f0002284:	e59d3014 	ldr	r3, [sp, #20]
f0002288:	e1a01005 	mov	r1, r5
f000228c:	e2832004 	add	r2, r3, #4
f0002290:	e58d2014 	str	r2, [sp, #20]
f0002294:	e5930000 	ldr	r0, [r3]
f0002298:	e2402001 	sub	r2, r0, #1
f000229c:	e5f23001 	ldrb	r3, [r2, #1]!
f00022a0:	e3530000 	cmp	r3, #0
f00022a4:	e4c13001 	strb	r3, [r1], #1
f00022a8:	1afffffb 	bne	f000229c <printk+0x18c>
f00022ac:	e5d03000 	ldrb	r3, [r0]
f00022b0:	e3530000 	cmp	r3, #0
f00022b4:	0a000004 	beq	f00022cc <printk+0x1bc>
f00022b8:	e1a03000 	mov	r3, r0
f00022bc:	e5f32001 	ldrb	r2, [r3, #1]!
f00022c0:	e3520000 	cmp	r2, #0
f00022c4:	1afffffc 	bne	f00022bc <printk+0x1ac>
f00022c8:	e0603003 	rsb	r3, r0, r3
f00022cc:	e0855003 	add	r5, r5, r3
f00022d0:	eaffff9d 	b	f000214c <printk+0x3c>
f00022d4:	e59d0014 	ldr	r0, [sp, #20]
f00022d8:	e1a01006 	mov	r1, r6
f00022dc:	e3a02010 	mov	r2, #16
f00022e0:	e2803004 	add	r3, r0, #4
f00022e4:	e5900000 	ldr	r0, [r0]
f00022e8:	e58d3014 	str	r3, [sp, #20]
f00022ec:	ebfffef4 	bl	f0001ec4 <utoa>
f00022f0:	e5d6a000 	ldrb	sl, [r6]
f00022f4:	e35a0000 	cmp	sl, #0
f00022f8:	0a000004 	beq	f0002310 <printk+0x200>
f00022fc:	e1a0a006 	mov	sl, r6
f0002300:	e5fa3001 	ldrb	r3, [sl, #1]!
f0002304:	e3530000 	cmp	r3, #0
f0002308:	1afffffc 	bne	f0002300 <printk+0x1f0>
f000230c:	e066a00a 	rsb	sl, r6, sl
f0002310:	e1a0100a 	mov	r1, sl
f0002314:	e1a00006 	mov	r0, r6
f0002318:	e1a02007 	mov	r2, r7
f000231c:	ebffff17 	bl	f0001f80 <print_align>
f0002320:	e28d3003 	add	r3, sp, #3
f0002324:	e080000a 	add	r0, r0, sl
f0002328:	e1a01005 	mov	r1, r5
f000232c:	e5f32001 	ldrb	r2, [r3, #1]!
f0002330:	e3520000 	cmp	r2, #0
f0002334:	e4c12001 	strb	r2, [r1], #1
f0002338:	1afffffb 	bne	f000232c <printk+0x21c>
f000233c:	e0855000 	add	r5, r5, r0
f0002340:	eaffff81 	b	f000214c <printk+0x3c>
f0002344:	e59d3014 	ldr	r3, [sp, #20]
f0002348:	e5932000 	ldr	r2, [r3]
f000234c:	e2833004 	add	r3, r3, #4
f0002350:	e58d3014 	str	r3, [sp, #20]
f0002354:	e5c52000 	strb	r2, [r5]
f0002358:	eaffff7b 	b	f000214c <printk+0x3c>
f000235c:	e5c59000 	strb	r9, [r5]
f0002360:	e5d43000 	ldrb	r3, [r4]
f0002364:	e5c53001 	strb	r3, [r5, #1]
f0002368:	e2855002 	add	r5, r5, #2
f000236c:	eaffff76 	b	f000214c <printk+0x3c>
f0002370:	e59d2014 	ldr	r2, [sp, #20]
f0002374:	e1a01006 	mov	r1, r6
f0002378:	e2823004 	add	r3, r2, #4
f000237c:	e5920000 	ldr	r0, [r2]
f0002380:	e58d3014 	str	r3, [sp, #20]
f0002384:	ebffff27 	bl	f0002028 <itoa.constprop.0>
f0002388:	e5d6a000 	ldrb	sl, [r6]
f000238c:	e35a0000 	cmp	sl, #0
f0002390:	0a000004 	beq	f00023a8 <printk+0x298>
f0002394:	e1a0a006 	mov	sl, r6
f0002398:	e5fa3001 	ldrb	r3, [sl, #1]!
f000239c:	e3530000 	cmp	r3, #0
f00023a0:	1afffffc 	bne	f0002398 <printk+0x288>
f00023a4:	e066a00a 	rsb	sl, r6, sl
f00023a8:	e1a0100a 	mov	r1, sl
f00023ac:	e1a00006 	mov	r0, r6
f00023b0:	e1a02007 	mov	r2, r7
f00023b4:	ebfffef1 	bl	f0001f80 <print_align>
f00023b8:	e28d3003 	add	r3, sp, #3
f00023bc:	e080000a 	add	r0, r0, sl
f00023c0:	e1a01005 	mov	r1, r5
f00023c4:	e5f32001 	ldrb	r2, [r3, #1]!
f00023c8:	e3520000 	cmp	r2, #0
f00023cc:	e4c12001 	strb	r2, [r1], #1
f00023d0:	1afffffb 	bne	f00023c4 <printk+0x2b4>
f00023d4:	e0855000 	add	r5, r5, r0
f00023d8:	eaffff5b 	b	f000214c <printk+0x3c>
f00023dc:	f0003d84 			; <UNDEFINED> instruction: 0xf0003d84

f00023e0 <printk_nommu>:
f00023e0:	e92d000f 	push	{r0, r1, r2, r3}
f00023e4:	e92d47f0 	push	{r4, r5, r6, r7, r8, r9, sl, lr}
f00023e8:	e24dd018 	sub	sp, sp, #24
f00023ec:	e28d303c 	add	r3, sp, #60	; 0x3c
f00023f0:	e59d4038 	ldr	r4, [sp, #56]	; 0x38
f00023f4:	e58d3014 	str	r3, [sp, #20]
f00023f8:	e59f82ac 	ldr	r8, [pc, #684]	; f00026ac <printk_nommu+0x2cc>
f00023fc:	e5d43000 	ldrb	r3, [r4]
f0002400:	e3530000 	cmp	r3, #0
f0002404:	01a05008 	moveq	r5, r8
f0002408:	0a00002c 	beq	f00024c0 <printk_nommu+0xe0>
f000240c:	e3a09025 	mov	r9, #37	; 0x25
f0002410:	e28d6004 	add	r6, sp, #4
f0002414:	e1a05008 	mov	r5, r8
f0002418:	ea000003 	b	f000242c <printk_nommu+0x4c>
f000241c:	e5d43001 	ldrb	r3, [r4, #1]
f0002420:	e2844001 	add	r4, r4, #1
f0002424:	e3530000 	cmp	r3, #0
f0002428:	0a000024 	beq	f00024c0 <printk_nommu+0xe0>
f000242c:	e3530025 	cmp	r3, #37	; 0x25
f0002430:	14c53001 	strbne	r3, [r5], #1
f0002434:	1afffff8 	bne	f000241c <printk_nommu+0x3c>
f0002438:	e5d43001 	ldrb	r3, [r4, #1]
f000243c:	e2432031 	sub	r2, r3, #49	; 0x31
f0002440:	e3520008 	cmp	r2, #8
f0002444:	92437030 	subls	r7, r3, #48	; 0x30
f0002448:	95d43002 	ldrbls	r3, [r4, #2]
f000244c:	82844001 	addhi	r4, r4, #1
f0002450:	83a07000 	movhi	r7, #0
f0002454:	92844002 	addls	r4, r4, #2
f0002458:	e2433063 	sub	r3, r3, #99	; 0x63
f000245c:	e3530015 	cmp	r3, #21
f0002460:	979ff103 	ldrls	pc, [pc, r3, lsl #2]
f0002464:	ea000070 	b	f000262c <printk_nommu+0x24c>
f0002468:	f0002614 			; <UNDEFINED> instruction: 0xf0002614
f000246c:	f0002640 			; <UNDEFINED> instruction: 0xf0002640
f0002470:	f000262c 			; <UNDEFINED> instruction: 0xf000262c
f0002474:	f000262c 			; <UNDEFINED> instruction: 0xf000262c
f0002478:	f000262c 			; <UNDEFINED> instruction: 0xf000262c
f000247c:	f000262c 			; <UNDEFINED> instruction: 0xf000262c
f0002480:	f000262c 			; <UNDEFINED> instruction: 0xf000262c
f0002484:	f000262c 			; <UNDEFINED> instruction: 0xf000262c
f0002488:	f000262c 			; <UNDEFINED> instruction: 0xf000262c
f000248c:	f000262c 			; <UNDEFINED> instruction: 0xf000262c
f0002490:	f000262c 			; <UNDEFINED> instruction: 0xf000262c
f0002494:	f000262c 			; <UNDEFINED> instruction: 0xf000262c
f0002498:	f000262c 			; <UNDEFINED> instruction: 0xf000262c
f000249c:	f00025a4 			; <UNDEFINED> instruction: 0xf00025a4
f00024a0:	f000262c 			; <UNDEFINED> instruction: 0xf000262c
f00024a4:	f000262c 			; <UNDEFINED> instruction: 0xf000262c
f00024a8:	f0002554 			; <UNDEFINED> instruction: 0xf0002554
f00024ac:	f000262c 			; <UNDEFINED> instruction: 0xf000262c
f00024b0:	f00024e4 			; <UNDEFINED> instruction: 0xf00024e4
f00024b4:	f000262c 			; <UNDEFINED> instruction: 0xf000262c
f00024b8:	f000262c 			; <UNDEFINED> instruction: 0xf000262c
f00024bc:	f00025a4 			; <UNDEFINED> instruction: 0xf00025a4
f00024c0:	e3a03000 	mov	r3, #0
f00024c4:	e59f01e0 	ldr	r0, [pc, #480]	; f00026ac <printk_nommu+0x2cc>
f00024c8:	e4c53001 	strb	r3, [r5], #1
f00024cc:	ebfffdb1 	bl	f0001b98 <serial_puts_nommu>
f00024d0:	e0680005 	rsb	r0, r8, r5
f00024d4:	e28dd018 	add	sp, sp, #24
f00024d8:	e8bd47f0 	pop	{r4, r5, r6, r7, r8, r9, sl, lr}
f00024dc:	e28dd010 	add	sp, sp, #16
f00024e0:	e12fff1e 	bx	lr
f00024e4:	e59d0014 	ldr	r0, [sp, #20]
f00024e8:	e1a01006 	mov	r1, r6
f00024ec:	e3a0200a 	mov	r2, #10
f00024f0:	e2803004 	add	r3, r0, #4
f00024f4:	e5900000 	ldr	r0, [r0]
f00024f8:	e58d3014 	str	r3, [sp, #20]
f00024fc:	ebfffe70 	bl	f0001ec4 <utoa>
f0002500:	e5d6a000 	ldrb	sl, [r6]
f0002504:	e35a0000 	cmp	sl, #0
f0002508:	0a000004 	beq	f0002520 <printk_nommu+0x140>
f000250c:	e1a0a006 	mov	sl, r6
f0002510:	e5fa3001 	ldrb	r3, [sl, #1]!
f0002514:	e3530000 	cmp	r3, #0
f0002518:	1afffffc 	bne	f0002510 <printk_nommu+0x130>
f000251c:	e066a00a 	rsb	sl, r6, sl
f0002520:	e1a0100a 	mov	r1, sl
f0002524:	e1a00006 	mov	r0, r6
f0002528:	e1a02007 	mov	r2, r7
f000252c:	ebfffe93 	bl	f0001f80 <print_align>
f0002530:	e28d3003 	add	r3, sp, #3
f0002534:	e080000a 	add	r0, r0, sl
f0002538:	e1a01005 	mov	r1, r5
f000253c:	e5f32001 	ldrb	r2, [r3, #1]!
f0002540:	e3520000 	cmp	r2, #0
f0002544:	e4c12001 	strb	r2, [r1], #1
f0002548:	1afffffb 	bne	f000253c <printk_nommu+0x15c>
f000254c:	e0855000 	add	r5, r5, r0
f0002550:	eaffffb1 	b	f000241c <printk_nommu+0x3c>
f0002554:	e59d3014 	ldr	r3, [sp, #20]
f0002558:	e1a01005 	mov	r1, r5
f000255c:	e2832004 	add	r2, r3, #4
f0002560:	e58d2014 	str	r2, [sp, #20]
f0002564:	e5930000 	ldr	r0, [r3]
f0002568:	e2402001 	sub	r2, r0, #1
f000256c:	e5f23001 	ldrb	r3, [r2, #1]!
f0002570:	e3530000 	cmp	r3, #0
f0002574:	e4c13001 	strb	r3, [r1], #1
f0002578:	1afffffb 	bne	f000256c <printk_nommu+0x18c>
f000257c:	e5d03000 	ldrb	r3, [r0]
f0002580:	e3530000 	cmp	r3, #0
f0002584:	0a000004 	beq	f000259c <printk_nommu+0x1bc>
f0002588:	e1a03000 	mov	r3, r0
f000258c:	e5f32001 	ldrb	r2, [r3, #1]!
f0002590:	e3520000 	cmp	r2, #0
f0002594:	1afffffc 	bne	f000258c <printk_nommu+0x1ac>
f0002598:	e0603003 	rsb	r3, r0, r3
f000259c:	e0855003 	add	r5, r5, r3
f00025a0:	eaffff9d 	b	f000241c <printk_nommu+0x3c>
f00025a4:	e59d0014 	ldr	r0, [sp, #20]
f00025a8:	e1a01006 	mov	r1, r6
f00025ac:	e3a02010 	mov	r2, #16
f00025b0:	e2803004 	add	r3, r0, #4
f00025b4:	e5900000 	ldr	r0, [r0]
f00025b8:	e58d3014 	str	r3, [sp, #20]
f00025bc:	ebfffe40 	bl	f0001ec4 <utoa>
f00025c0:	e5d6a000 	ldrb	sl, [r6]
f00025c4:	e35a0000 	cmp	sl, #0
f00025c8:	0a000004 	beq	f00025e0 <printk_nommu+0x200>
f00025cc:	e1a0a006 	mov	sl, r6
f00025d0:	e5fa3001 	ldrb	r3, [sl, #1]!
f00025d4:	e3530000 	cmp	r3, #0
f00025d8:	1afffffc 	bne	f00025d0 <printk_nommu+0x1f0>
f00025dc:	e066a00a 	rsb	sl, r6, sl
f00025e0:	e1a0100a 	mov	r1, sl
f00025e4:	e1a00006 	mov	r0, r6
f00025e8:	e1a02007 	mov	r2, r7
f00025ec:	ebfffe63 	bl	f0001f80 <print_align>
f00025f0:	e28d3003 	add	r3, sp, #3
f00025f4:	e080000a 	add	r0, r0, sl
f00025f8:	e1a01005 	mov	r1, r5
f00025fc:	e5f32001 	ldrb	r2, [r3, #1]!
f0002600:	e3520000 	cmp	r2, #0
f0002604:	e4c12001 	strb	r2, [r1], #1
f0002608:	1afffffb 	bne	f00025fc <printk_nommu+0x21c>
f000260c:	e0855000 	add	r5, r5, r0
f0002610:	eaffff81 	b	f000241c <printk_nommu+0x3c>
f0002614:	e59d3014 	ldr	r3, [sp, #20]
f0002618:	e5932000 	ldr	r2, [r3]
f000261c:	e2833004 	add	r3, r3, #4
f0002620:	e58d3014 	str	r3, [sp, #20]
f0002624:	e5c52000 	strb	r2, [r5]
f0002628:	eaffff7b 	b	f000241c <printk_nommu+0x3c>
f000262c:	e5c59000 	strb	r9, [r5]
f0002630:	e5d43000 	ldrb	r3, [r4]
f0002634:	e5c53001 	strb	r3, [r5, #1]
f0002638:	e2855002 	add	r5, r5, #2
f000263c:	eaffff76 	b	f000241c <printk_nommu+0x3c>
f0002640:	e59d2014 	ldr	r2, [sp, #20]
f0002644:	e1a01006 	mov	r1, r6
f0002648:	e2823004 	add	r3, r2, #4
f000264c:	e5920000 	ldr	r0, [r2]
f0002650:	e58d3014 	str	r3, [sp, #20]
f0002654:	ebfffe73 	bl	f0002028 <itoa.constprop.0>
f0002658:	e5d6a000 	ldrb	sl, [r6]
f000265c:	e35a0000 	cmp	sl, #0
f0002660:	0a000004 	beq	f0002678 <printk_nommu+0x298>
f0002664:	e1a0a006 	mov	sl, r6
f0002668:	e5fa3001 	ldrb	r3, [sl, #1]!
f000266c:	e3530000 	cmp	r3, #0
f0002670:	1afffffc 	bne	f0002668 <printk_nommu+0x288>
f0002674:	e066a00a 	rsb	sl, r6, sl
f0002678:	e1a0100a 	mov	r1, sl
f000267c:	e1a00006 	mov	r0, r6
f0002680:	e1a02007 	mov	r2, r7
f0002684:	ebfffe3d 	bl	f0001f80 <print_align>
f0002688:	e28d3003 	add	r3, sp, #3
f000268c:	e080000a 	add	r0, r0, sl
f0002690:	e1a01005 	mov	r1, r5
f0002694:	e5f32001 	ldrb	r2, [r3, #1]!
f0002698:	e3520000 	cmp	r2, #0
f000269c:	e4c12001 	strb	r2, [r1], #1
f00026a0:	1afffffb 	bne	f0002694 <printk_nommu+0x2b4>
f00026a4:	e0855000 	add	r5, r5, r0
f00026a8:	eaffff5b 	b	f000241c <printk_nommu+0x3c>
f00026ac:	f0003d84 			; <UNDEFINED> instruction: 0xf0003d84

f00026b0 <standby_delay>:
f00026b0:	e92d000f 	push	{r0, r1, r2, r3}
f00026b4:	e3a01011 	mov	r1, #17
f00026b8:	e1a03000 	mov	r3, r0

f00026bc <standby_delay_loop2>:
f00026bc:	e2500001 	subs	r0, r0, #1
f00026c0:	8afffffd 	bhi	f00026bc <standby_delay_loop2>
f00026c4:	e1a00003 	mov	r0, r3
f00026c8:	e2511001 	subs	r1, r1, #1
f00026cc:	8afffffa 	bhi	f00026bc <standby_delay_loop2>
f00026d0:	e8bd000f 	pop	{r0, r1, r2, r3}
f00026d4:	e1a0f00e 	mov	pc, lr

f00026d8 <standby_delay_cycle>:
f00026d8:	e2500001 	subs	r0, r0, #1
f00026dc:	8afffffd 	bhi	f00026d8 <standby_delay_cycle>
f00026e0:	e1a0f00e 	mov	pc, lr

f00026e4 <Ldiv0>:
f00026e4:	e52de008 	str	lr, [sp, #-8]!
f00026e8:	eb000067 	bl	f000288c <__mem_div0>
f00026ec:	e3a00000 	mov	r0, #0
f00026f0:	e49df008 	ldr	pc, [sp], #8

f00026f4 <__aeabi_uidiv>:
f00026f4:	e2512001 	subs	r2, r1, #1
f00026f8:	01a0f00e 	moveq	pc, lr
f00026fc:	3afffff8 	bcc	f00026e4 <Ldiv0>
f0002700:	e1500001 	cmp	r0, r1
f0002704:	9a00001a 	bls	f0002774 <__aeabi_uidiv+0x80>
f0002708:	e1110002 	tst	r1, r2
f000270c:	0a00001b 	beq	f0002780 <__aeabi_uidiv+0x8c>
f0002710:	e16f3f11 	clz	r3, r1
f0002714:	e16f2f10 	clz	r2, r0
f0002718:	e0432002 	sub	r2, r3, r2
f000271c:	e3a03001 	mov	r3, #1
f0002720:	e1a01211 	lsl	r1, r1, r2
f0002724:	e1a03213 	lsl	r3, r3, r2
f0002728:	e3a02000 	mov	r2, #0
f000272c:	e1500001 	cmp	r0, r1
f0002730:	20400001 	subcs	r0, r0, r1
f0002734:	21822003 	orrcs	r2, r2, r3
f0002738:	e15000a1 	cmp	r0, r1, lsr #1
f000273c:	204000a1 	subcs	r0, r0, r1, lsr #1
f0002740:	218220a3 	orrcs	r2, r2, r3, lsr #1
f0002744:	e1500121 	cmp	r0, r1, lsr #2
f0002748:	20400121 	subcs	r0, r0, r1, lsr #2
f000274c:	21822123 	orrcs	r2, r2, r3, lsr #2
f0002750:	e15001a1 	cmp	r0, r1, lsr #3
f0002754:	204001a1 	subcs	r0, r0, r1, lsr #3
f0002758:	218221a3 	orrcs	r2, r2, r3, lsr #3
f000275c:	e3500000 	cmp	r0, #0
f0002760:	11b03223 	lsrsne	r3, r3, #4
f0002764:	11a01221 	lsrne	r1, r1, #4
f0002768:	1affffef 	bne	f000272c <__aeabi_uidiv+0x38>
f000276c:	e1a00002 	mov	r0, r2
f0002770:	e1a0f00e 	mov	pc, lr
f0002774:	03a00001 	moveq	r0, #1
f0002778:	13a00000 	movne	r0, #0
f000277c:	e1a0f00e 	mov	pc, lr
f0002780:	e16f2f11 	clz	r2, r1
f0002784:	e262201f 	rsb	r2, r2, #31
f0002788:	e1a00230 	lsr	r0, r0, r2
f000278c:	e1a0f00e 	mov	pc, lr

f0002790 <__aeabi_idiv>:
f0002790:	e3510000 	cmp	r1, #0
f0002794:	e020c001 	eor	ip, r0, r1
f0002798:	0affffd1 	beq	f00026e4 <Ldiv0>
f000279c:	42611000 	rsbmi	r1, r1, #0
f00027a0:	e2512001 	subs	r2, r1, #1
f00027a4:	0a00001f 	beq	f0002828 <__aeabi_idiv+0x98>
f00027a8:	e1b03000 	movs	r3, r0
f00027ac:	42603000 	rsbmi	r3, r0, #0
f00027b0:	e1530001 	cmp	r3, r1
f00027b4:	9a00001e 	bls	f0002834 <__aeabi_idiv+0xa4>
f00027b8:	e1110002 	tst	r1, r2
f00027bc:	0a000020 	beq	f0002844 <__aeabi_idiv+0xb4>
f00027c0:	e16f2f11 	clz	r2, r1
f00027c4:	e16f0f13 	clz	r0, r3
f00027c8:	e0420000 	sub	r0, r2, r0
f00027cc:	e3a02001 	mov	r2, #1
f00027d0:	e1a01011 	lsl	r1, r1, r0
f00027d4:	e1a02012 	lsl	r2, r2, r0
f00027d8:	e3a00000 	mov	r0, #0
f00027dc:	e1530001 	cmp	r3, r1
f00027e0:	20433001 	subcs	r3, r3, r1
f00027e4:	21800002 	orrcs	r0, r0, r2
f00027e8:	e15300a1 	cmp	r3, r1, lsr #1
f00027ec:	204330a1 	subcs	r3, r3, r1, lsr #1
f00027f0:	218000a2 	orrcs	r0, r0, r2, lsr #1
f00027f4:	e1530121 	cmp	r3, r1, lsr #2
f00027f8:	20433121 	subcs	r3, r3, r1, lsr #2
f00027fc:	21800122 	orrcs	r0, r0, r2, lsr #2
f0002800:	e15301a1 	cmp	r3, r1, lsr #3
f0002804:	204331a1 	subcs	r3, r3, r1, lsr #3
f0002808:	218001a2 	orrcs	r0, r0, r2, lsr #3
f000280c:	e3530000 	cmp	r3, #0
f0002810:	11b02222 	lsrsne	r2, r2, #4
f0002814:	11a01221 	lsrne	r1, r1, #4
f0002818:	1affffef 	bne	f00027dc <__aeabi_idiv+0x4c>
f000281c:	e35c0000 	cmp	ip, #0
f0002820:	42600000 	rsbmi	r0, r0, #0
f0002824:	e1a0f00e 	mov	pc, lr
f0002828:	e13c0000 	teq	ip, r0
f000282c:	42600000 	rsbmi	r0, r0, #0
f0002830:	e1a0f00e 	mov	pc, lr
f0002834:	33a00000 	movcc	r0, #0
f0002838:	01a00fcc 	asreq	r0, ip, #31
f000283c:	03800001 	orreq	r0, r0, #1
f0002840:	e1a0f00e 	mov	pc, lr
f0002844:	e16f2f11 	clz	r2, r1
f0002848:	e262201f 	rsb	r2, r2, #31
f000284c:	e35c0000 	cmp	ip, #0
f0002850:	e1a00233 	lsr	r0, r3, r2
f0002854:	42600000 	rsbmi	r0, r0, #0
f0002858:	e1a0f00e 	mov	pc, lr

f000285c <__aeabi_uidivmod>:
f000285c:	e92d5003 	push	{r0, r1, ip, lr}
f0002860:	ebffffa3 	bl	f00026f4 <__aeabi_uidiv>
f0002864:	e8bd5006 	pop	{r1, r2, ip, lr}
f0002868:	e0030290 	mul	r3, r0, r2
f000286c:	e0411003 	sub	r1, r1, r3
f0002870:	e1a0f00e 	mov	pc, lr

f0002874 <__aeabi_idivmod>:
f0002874:	e92d5003 	push	{r0, r1, ip, lr}
f0002878:	ebffffc4 	bl	f0002790 <__aeabi_idiv>
f000287c:	e8bd5006 	pop	{r1, r2, ip, lr}
f0002880:	e0030290 	mul	r3, r0, r2
f0002884:	e0411003 	sub	r1, r1, r3
f0002888:	e1a0f00e 	mov	pc, lr

f000288c <__mem_div0>:
f000288c:	e3030be8 	movw	r0, #15336	; 0x3be8
f0002890:	e34f0000 	movt	r0, #61440	; 0xf000
f0002894:	eafffe1d 	b	f0002110 <printk>

f0002898 <raw_lib_udiv>:
f0002898:	e3510000 	cmp	r1, #0
f000289c:	01a02001 	moveq	r2, r1
f00028a0:	0a00000d 	beq	f00028dc <raw_lib_udiv+0x44>
f00028a4:	e3a03000 	mov	r3, #0
f00028a8:	ba000002 	blt	f00028b8 <raw_lib_udiv+0x20>
f00028ac:	e1b01081 	lsls	r1, r1, #1
f00028b0:	e2833001 	add	r3, r3, #1
f00028b4:	5afffffc 	bpl	f00028ac <raw_lib_udiv+0x14>
f00028b8:	e3a02000 	mov	r2, #0
f00028bc:	e1a0c082 	lsl	ip, r2, #1
f00028c0:	e1500001 	cmp	r0, r1
f00028c4:	20610000 	rsbcs	r0, r1, r0
f00028c8:	31a02082 	lslcc	r2, r2, #1
f00028cc:	238c2001 	orrcs	r2, ip, #1
f00028d0:	e1a010a1 	lsr	r1, r1, #1
f00028d4:	e2533001 	subs	r3, r3, #1
f00028d8:	5afffff7 	bpl	f00028bc <raw_lib_udiv+0x24>
f00028dc:	e1a00002 	mov	r0, r2
f00028e0:	e12fff1e 	bx	lr

f00028e4 <mem_int_init>:
f00028e4:	e59f0080 	ldr	r0, [pc, #128]	; f000296c <mem_int_init+0x88>
f00028e8:	e3013184 	movw	r3, #4484	; 0x1184
f00028ec:	e3a02d47 	mov	r2, #4544	; 0x11c0
f00028f0:	e92d4010 	push	{r4, lr}
f00028f4:	e3a0ca02 	mov	ip, #8192	; 0x2000
f00028f8:	e3a04a01 	mov	r4, #4096	; 0x1000
f00028fc:	e34f31c8 	movt	r3, #61896	; 0xf1c8
f0002900:	e3e01000 	mvn	r1, #0
f0002904:	e34f21c8 	movt	r2, #61896	; 0xf1c8
f0002908:	e34f41c8 	movt	r4, #61896	; 0xf1c8
f000290c:	e34fc1c8 	movt	ip, #61896	; 0xf1c8
f0002910:	e8801010 	stm	r0, {r4, ip}
f0002914:	e4831004 	str	r1, [r3], #4
f0002918:	e1530002 	cmp	r3, r2
f000291c:	1afffffc 	bne	f0002914 <mem_int_init+0x30>
f0002920:	e3013284 	movw	r3, #4740	; 0x1284
f0002924:	e3a02d4b 	mov	r2, #4800	; 0x12c0
f0002928:	e34f31c8 	movt	r3, #61896	; 0xf1c8
f000292c:	e3e01000 	mvn	r1, #0
f0002930:	e34f21c8 	movt	r2, #61896	; 0xf1c8
f0002934:	e4831004 	str	r1, [r3], #4
f0002938:	e1530002 	cmp	r3, r2
f000293c:	1afffffc 	bne	f0002934 <mem_int_init+0x50>
f0002940:	e3a03a02 	mov	r3, #8192	; 0x2000
f0002944:	e30023ff 	movw	r2, #1023	; 0x3ff
f0002948:	e34f31c8 	movt	r3, #61896	; 0xf1c8
f000294c:	e593100c 	ldr	r1, [r3, #12]
f0002950:	e1510002 	cmp	r1, r2
f0002954:	0a000002 	beq	f0002964 <mem_int_init+0x80>
f0002958:	e5831010 	str	r1, [r3, #16]
f000295c:	e59f000c 	ldr	r0, [pc, #12]	; f0002970 <mem_int_init+0x8c>
f0002960:	ebfffdea 	bl	f0002110 <printk>
f0002964:	e3a00000 	mov	r0, #0
f0002968:	e8bd8010 	pop	{r4, pc}
f000296c:	f0003e84 			; <UNDEFINED> instruction: 0xf0003e84
f0002970:	f0003c04 			; <UNDEFINED> instruction: 0xf0003c04

f0002974 <mem_int_exit>:
f0002974:	e3a02000 	mov	r2, #0
f0002978:	e24dd008 	sub	sp, sp, #8
f000297c:	e1a03002 	mov	r3, r2
f0002980:	e58d2004 	str	r2, [sp, #4]
f0002984:	e59f2038 	ldr	r2, [pc, #56]	; f00029c4 <mem_int_exit+0x50>
f0002988:	e5922000 	ldr	r2, [r2]
f000298c:	e282cc01 	add	ip, r2, #256	; 0x100
f0002990:	e2822d0a 	add	r2, r2, #640	; 0x280
f0002994:	e79c1003 	ldr	r1, [ip, r3]
f0002998:	e58d1004 	str	r1, [sp, #4]
f000299c:	e7921003 	ldr	r1, [r2, r3]
f00029a0:	e59d0004 	ldr	r0, [sp, #4]
f00029a4:	e1c11000 	bic	r1, r1, r0
f00029a8:	e7821003 	str	r1, [r2, r3]
f00029ac:	e2833004 	add	r3, r3, #4
f00029b0:	e3530040 	cmp	r3, #64	; 0x40
f00029b4:	1afffff6 	bne	f0002994 <mem_int_exit+0x20>
f00029b8:	e3a00000 	mov	r0, #0
f00029bc:	e28dd008 	add	sp, sp, #8
f00029c0:	e12fff1e 	bx	lr
f00029c4:	f0003e84 			; <UNDEFINED> instruction: 0xf0003e84

f00029c8 <mem_enable_int>:
f00029c8:	e59f3050 	ldr	r3, [pc, #80]	; f0002a20 <mem_enable_int+0x58>
f00029cc:	e3a01a01 	mov	r1, #4096	; 0x1000
f00029d0:	e3a02a02 	mov	r2, #8192	; 0x2000
f00029d4:	e3500000 	cmp	r0, #0
f00029d8:	e34f11c8 	movt	r1, #61896	; 0xf1c8
f00029dc:	e34f21c8 	movt	r2, #61896	; 0xf1c8
f00029e0:	e8830006 	stm	r3, {r1, r2}
f00029e4:	0a00000b 	beq	f0002a18 <mem_enable_int+0x50>
f00029e8:	e1a032a0 	lsr	r3, r0, #5
f00029ec:	e200201f 	and	r2, r0, #31
f00029f0:	e3a0c001 	mov	ip, #1
f00029f4:	e2833040 	add	r3, r3, #64	; 0x40
f00029f8:	e3a00000 	mov	r0, #0
f00029fc:	e1a03103 	lsl	r3, r3, #2
f0002a00:	e24336e3 	sub	r3, r3, #238026752	; 0xe300000
f0002a04:	e2433a7f 	sub	r3, r3, #520192	; 0x7f000
f0002a08:	e5931000 	ldr	r1, [r3]
f0002a0c:	e181221c 	orr	r2, r1, ip, lsl r2
f0002a10:	e5832000 	str	r2, [r3]
f0002a14:	e12fff1e 	bx	lr
f0002a18:	e3e00000 	mvn	r0, #0
f0002a1c:	e12fff1e 	bx	lr
f0002a20:	f0003e84 			; <UNDEFINED> instruction: 0xf0003e84

f0002a24 <mem_query_int>:
f0002a24:	e59f3050 	ldr	r3, [pc, #80]	; f0002a7c <mem_query_int+0x58>
f0002a28:	e3a01a01 	mov	r1, #4096	; 0x1000
f0002a2c:	e3a02a02 	mov	r2, #8192	; 0x2000
f0002a30:	e3500000 	cmp	r0, #0
f0002a34:	e34f11c8 	movt	r1, #61896	; 0xf1c8
f0002a38:	e34f21c8 	movt	r2, #61896	; 0xf1c8
f0002a3c:	e8830006 	stm	r3, {r1, r2}
f0002a40:	0a00000b 	beq	f0002a74 <mem_query_int+0x50>
f0002a44:	e1a032a0 	lsr	r3, r0, #5
f0002a48:	e3a02001 	mov	r2, #1
f0002a4c:	e200001f 	and	r0, r0, #31
f0002a50:	e2833080 	add	r3, r3, #128	; 0x80
f0002a54:	e1a03103 	lsl	r3, r3, #2
f0002a58:	e24336e3 	sub	r3, r3, #238026752	; 0xe300000
f0002a5c:	e2433a7f 	sub	r3, r3, #520192	; 0x7f000
f0002a60:	e5933000 	ldr	r3, [r3]
f0002a64:	e0132012 	ands	r2, r3, r2, lsl r0
f0002a68:	03e00000 	mvneq	r0, #0
f0002a6c:	13a00000 	movne	r0, #0
f0002a70:	e12fff1e 	bx	lr
f0002a74:	e3e00000 	mvn	r0, #0
f0002a78:	e12fff1e 	bx	lr
f0002a7c:	f0003e84 			; <UNDEFINED> instruction: 0xf0003e84

f0002a80 <mem_gpio_save>:
f0002a80:	e3a03b02 	mov	r3, #2048	; 0x800
f0002a84:	e3a02eb2 	mov	r2, #2848	; 0xb20
f0002a88:	e2400004 	sub	r0, r0, #4
f0002a8c:	e34f31c2 	movt	r3, #61890	; 0xf1c2
f0002a90:	e34f21c2 	movt	r2, #61890	; 0xf1c2
f0002a94:	e4931004 	ldr	r1, [r3], #4
f0002a98:	e1530002 	cmp	r3, r2
f0002a9c:	e5a01004 	str	r1, [r0, #4]!
f0002aa0:	1afffffb 	bne	f0002a94 <mem_gpio_save+0x14>
f0002aa4:	e3a00000 	mov	r0, #0
f0002aa8:	e12fff1e 	bx	lr

f0002aac <mem_gpio_restore>:
f0002aac:	e3a03b02 	mov	r3, #2048	; 0x800
f0002ab0:	e3a02eb2 	mov	r2, #2848	; 0xb20
f0002ab4:	e2400004 	sub	r0, r0, #4
f0002ab8:	e34f31c2 	movt	r3, #61890	; 0xf1c2
f0002abc:	e34f21c2 	movt	r2, #61890	; 0xf1c2
f0002ac0:	e5b01004 	ldr	r1, [r0, #4]!
f0002ac4:	e4831004 	str	r1, [r3], #4
f0002ac8:	e1530002 	cmp	r3, r2
f0002acc:	1afffffb 	bne	f0002ac0 <mem_gpio_restore+0x14>
f0002ad0:	e3a00000 	mov	r0, #0
f0002ad4:	e12fff1e 	bx	lr

f0002ad8 <config_gpio_clk>:
f0002ad8:	e59f303c 	ldr	r3, [pc, #60]	; f0002b1c <config_gpio_clk+0x44>
f0002adc:	e5932000 	ldr	r2, [r3]
f0002ae0:	e3520000 	cmp	r2, #0
f0002ae4:	112fff1e 	bxne	lr
f0002ae8:	e3a01068 	mov	r1, #104	; 0x68
f0002aec:	e3500000 	cmp	r0, #0
f0002af0:	e1a02001 	mov	r2, r1
f0002af4:	e34011c2 	movt	r1, #450	; 0x1c2
f0002af8:	e34f21c2 	movt	r2, #61890	; 0xf1c2
f0002afc:	01a00001 	moveq	r0, r1
f0002b00:	11a00002 	movne	r0, r2
f0002b04:	e3a01001 	mov	r1, #1
f0002b08:	e5902000 	ldr	r2, [r0]
f0002b0c:	e5831000 	str	r1, [r3]
f0002b10:	e3823020 	orr	r3, r2, #32
f0002b14:	e5803000 	str	r3, [r0]
f0002b18:	e12fff1e 	bx	lr
f0002b1c:	f0003e8c 			; <UNDEFINED> instruction: 0xf0003e8c

f0002b20 <mem_tmr_save>:
f0002b20:	e3a03000 	mov	r3, #0
f0002b24:	e1a02000 	mov	r2, r0
f0002b28:	e34f31c2 	movt	r3, #61890	; 0xf1c2
f0002b2c:	e3030e90 	movw	r0, #16016	; 0x3e90
f0002b30:	e5931c00 	ldr	r1, [r3, #3072]	; 0xc00
f0002b34:	e3a0cb03 	mov	ip, #3072	; 0xc00
f0002b38:	e34f0000 	movt	r0, #61440	; 0xf000
f0002b3c:	e34fc1c2 	movt	ip, #61890	; 0xf1c2
f0002b40:	e580c000 	str	ip, [r0]
f0002b44:	e3a00000 	mov	r0, #0
f0002b48:	e5821000 	str	r1, [r2]
f0002b4c:	e5931c10 	ldr	r1, [r3, #3088]	; 0xc10
f0002b50:	e5821010 	str	r1, [r2, #16]
f0002b54:	e5931c14 	ldr	r1, [r3, #3092]	; 0xc14
f0002b58:	e5821014 	str	r1, [r2, #20]
f0002b5c:	e5931c18 	ldr	r1, [r3, #3096]	; 0xc18
f0002b60:	e5821018 	str	r1, [r2, #24]
f0002b64:	e5931c20 	ldr	r1, [r3, #3104]	; 0xc20
f0002b68:	e5821020 	str	r1, [r2, #32]
f0002b6c:	e5931c24 	ldr	r1, [r3, #3108]	; 0xc24
f0002b70:	e5821024 	str	r1, [r2, #36]	; 0x24
f0002b74:	e5933c28 	ldr	r3, [r3, #3112]	; 0xc28
f0002b78:	e5823028 	str	r3, [r2, #40]	; 0x28
f0002b7c:	e12fff1e 	bx	lr

f0002b80 <mem_tmr_restore>:
f0002b80:	e3033e90 	movw	r3, #16016	; 0x3e90
f0002b84:	e5901014 	ldr	r1, [r0, #20]
f0002b88:	e34f3000 	movt	r3, #61440	; 0xf000
f0002b8c:	e1a02000 	mov	r2, r0
f0002b90:	e5933000 	ldr	r3, [r3]
f0002b94:	e3a00000 	mov	r0, #0
f0002b98:	e5831014 	str	r1, [r3, #20]
f0002b9c:	e5921018 	ldr	r1, [r2, #24]
f0002ba0:	e5831018 	str	r1, [r3, #24]
f0002ba4:	e5921010 	ldr	r1, [r2, #16]
f0002ba8:	e5831010 	str	r1, [r3, #16]
f0002bac:	e5921024 	ldr	r1, [r2, #36]	; 0x24
f0002bb0:	e5831024 	str	r1, [r3, #36]	; 0x24
f0002bb4:	e5921028 	ldr	r1, [r2, #40]	; 0x28
f0002bb8:	e5831028 	str	r1, [r3, #40]	; 0x28
f0002bbc:	e5921020 	ldr	r1, [r2, #32]
f0002bc0:	e5831020 	str	r1, [r3, #32]
f0002bc4:	e5922000 	ldr	r2, [r2]
f0002bc8:	e5832000 	str	r2, [r3]
f0002bcc:	e12fff1e 	bx	lr

f0002bd0 <mem_tmr_init>:
f0002bd0:	e3a02000 	mov	r2, #0
f0002bd4:	e3033e90 	movw	r3, #16016	; 0x3e90
f0002bd8:	e34f21c2 	movt	r2, #61890	; 0xf1c2
f0002bdc:	e3a01b03 	mov	r1, #3072	; 0xc00
f0002be0:	e592ccb4 	ldr	ip, [r2, #3252]	; 0xcb4
f0002be4:	e34f3000 	movt	r3, #61440	; 0xf000
f0002be8:	e34f11c2 	movt	r1, #61890	; 0xf1c2
f0002bec:	e3a00000 	mov	r0, #0
f0002bf0:	e8831002 	stm	r3, {r1, ip}
f0002bf4:	e5921cb8 	ldr	r1, [r2, #3256]	; 0xcb8
f0002bf8:	e5831008 	str	r1, [r3, #8]
f0002bfc:	e5922ca0 	ldr	r2, [r2, #3232]	; 0xca0
f0002c00:	e583200c 	str	r2, [r3, #12]
f0002c04:	e12fff1e 	bx	lr

f0002c08 <mem_tmr_exit>:
f0002c08:	e3033e90 	movw	r3, #16016	; 0x3e90
f0002c0c:	e3a00000 	mov	r0, #0
f0002c10:	e34f3000 	movt	r3, #61440	; 0xf000
f0002c14:	e8931004 	ldm	r3, {r2, ip}
f0002c18:	e5931008 	ldr	r1, [r3, #8]
f0002c1c:	e593300c 	ldr	r3, [r3, #12]
f0002c20:	e582c0b4 	str	ip, [r2, #180]	; 0xb4
f0002c24:	e58210b8 	str	r1, [r2, #184]	; 0xb8
f0002c28:	e58230a0 	str	r3, [r2, #160]	; 0xa0
f0002c2c:	e12fff1e 	bx	lr

f0002c30 <mem_tmr_enable_watchdog>:
f0002c30:	e3033e90 	movw	r3, #16016	; 0x3e90
f0002c34:	e34f3000 	movt	r3, #61440	; 0xf000
f0002c38:	e5933000 	ldr	r3, [r3]
f0002c3c:	e59320b4 	ldr	r2, [r3, #180]	; 0xb4
f0002c40:	e3c22003 	bic	r2, r2, #3
f0002c44:	e58320b4 	str	r2, [r3, #180]	; 0xb4
f0002c48:	e59320b4 	ldr	r2, [r3, #180]	; 0xb4
f0002c4c:	e3822001 	orr	r2, r2, #1
f0002c50:	e58320b4 	str	r2, [r3, #180]	; 0xb4
f0002c54:	e3a020b0 	mov	r2, #176	; 0xb0
f0002c58:	e58320b8 	str	r2, [r3, #184]	; 0xb8
f0002c5c:	e59320a0 	ldr	r2, [r3, #160]	; 0xa0
f0002c60:	e3822001 	orr	r2, r2, #1
f0002c64:	e58320a0 	str	r2, [r3, #160]	; 0xa0
f0002c68:	e59320b8 	ldr	r2, [r3, #184]	; 0xb8
f0002c6c:	e3822001 	orr	r2, r2, #1
f0002c70:	e58320b8 	str	r2, [r3, #184]	; 0xb8
f0002c74:	e12fff1e 	bx	lr

f0002c78 <mem_tmr_disable_watchdog>:
f0002c78:	e3033e90 	movw	r3, #16016	; 0x3e90
f0002c7c:	e34f3000 	movt	r3, #61440	; 0xf000
f0002c80:	e5933000 	ldr	r3, [r3]
f0002c84:	e59320b4 	ldr	r2, [r3, #180]	; 0xb4
f0002c88:	e3c22003 	bic	r2, r2, #3
f0002c8c:	e58320b4 	str	r2, [r3, #180]	; 0xb4
f0002c90:	e59320b4 	ldr	r2, [r3, #180]	; 0xb4
f0002c94:	e3822002 	orr	r2, r2, #2
f0002c98:	e58320b4 	str	r2, [r3, #180]	; 0xb4
f0002c9c:	e59320a0 	ldr	r2, [r3, #160]	; 0xa0
f0002ca0:	e3c22001 	bic	r2, r2, #1
f0002ca4:	e58320a0 	str	r2, [r3, #160]	; 0xa0
f0002ca8:	e59320b8 	ldr	r2, [r3, #184]	; 0xb8
f0002cac:	e3c22001 	bic	r2, r2, #1
f0002cb0:	e58320b8 	str	r2, [r3, #184]	; 0xb8
f0002cb4:	e12fff1e 	bx	lr

f0002cb8 <mem_tmr_set>:
f0002cb8:	e3033e90 	movw	r3, #16016	; 0x3e90
f0002cbc:	e3a01001 	mov	r1, #1
f0002cc0:	e34f3000 	movt	r3, #61440	; 0xf000
f0002cc4:	e1a0c500 	lsl	ip, r0, #10
f0002cc8:	e5933000 	ldr	r3, [r3]
f0002ccc:	e3a02000 	mov	r2, #0
f0002cd0:	e1a00002 	mov	r0, r2
f0002cd4:	e5831004 	str	r1, [r3, #4]
f0002cd8:	e5831000 	str	r1, [r3]
f0002cdc:	e5832010 	str	r2, [r3, #16]
f0002ce0:	e3a020d0 	mov	r2, #208	; 0xd0
f0002ce4:	e583c014 	str	ip, [r3, #20]
f0002ce8:	e5832010 	str	r2, [r3, #16]
f0002cec:	e5932010 	ldr	r2, [r3, #16]
f0002cf0:	e3822002 	orr	r2, r2, #2
f0002cf4:	e5832010 	str	r2, [r3, #16]
f0002cf8:	e5932010 	ldr	r2, [r3, #16]
f0002cfc:	e1822001 	orr	r2, r2, r1
f0002d00:	e5832010 	str	r2, [r3, #16]
f0002d04:	e12fff1e 	bx	lr

f0002d08 <mem_tmstmp_save>:
f0002d08:	e3a03000 	mov	r3, #0
f0002d0c:	e1a02000 	mov	r2, r0
f0002d10:	e34f3172 	movt	r3, #61810	; 0xf172
f0002d14:	e3030ea0 	movw	r0, #16032	; 0x3ea0
f0002d18:	e5931000 	ldr	r1, [r3]
f0002d1c:	e34f0000 	movt	r0, #61440	; 0xf000
f0002d20:	e5803000 	str	r3, [r0]
f0002d24:	e3a00000 	mov	r0, #0
f0002d28:	e5821000 	str	r1, [r2]
f0002d2c:	e5933020 	ldr	r3, [r3, #32]
f0002d30:	e5823020 	str	r3, [r2, #32]
f0002d34:	e12fff1e 	bx	lr

f0002d38 <mem_tmstmp_restore>:
f0002d38:	e3033ea0 	movw	r3, #16032	; 0x3ea0
f0002d3c:	e5901000 	ldr	r1, [r0]
f0002d40:	e34f3000 	movt	r3, #61440	; 0xf000
f0002d44:	e1a02000 	mov	r2, r0
f0002d48:	e5933000 	ldr	r3, [r3]
f0002d4c:	e3a00000 	mov	r0, #0
f0002d50:	e5831000 	str	r1, [r3]
f0002d54:	e5922020 	ldr	r2, [r2, #32]
f0002d58:	e5832020 	str	r2, [r3, #32]
f0002d5c:	e12fff1e 	bx	lr

f0002d60 <mem_clk_init>:
f0002d60:	e3500001 	cmp	r0, #1
f0002d64:	e3a03000 	mov	r3, #0
f0002d68:	059f201c 	ldreq	r2, [pc, #28]	; f0002d8c <mem_clk_init+0x2c>
f0002d6c:	034f31c2 	movteq	r3, #61890	; 0xf1c2
f0002d70:	159f2014 	ldrne	r2, [pc, #20]	; f0002d8c <mem_clk_init+0x2c>
f0002d74:	134031c2 	movtne	r3, #450	; 0x1c2
f0002d78:	01a00003 	moveq	r0, r3
f0002d7c:	11a00003 	movne	r0, r3
f0002d80:	05823000 	streq	r3, [r2]
f0002d84:	15823000 	strne	r3, [r2]
f0002d88:	e12fff1e 	bx	lr
f0002d8c:	f0003ea4 			; <UNDEFINED> instruction: 0xf0003ea4

f0002d90 <mem_get_ba>:
f0002d90:	e3033ea4 	movw	r3, #16036	; 0x3ea4
f0002d94:	e34f3000 	movt	r3, #61440	; 0xf000
f0002d98:	e5930000 	ldr	r0, [r3]
f0002d9c:	e12fff1e 	bx	lr

f0002da0 <mem_clk_save>:
f0002da0:	e3a03000 	mov	r3, #0
f0002da4:	e1a02000 	mov	r2, r0
f0002da8:	e34f31c2 	movt	r3, #61890	; 0xf1c2
f0002dac:	e3030ea4 	movw	r0, #16036	; 0x3ea4
f0002db0:	e5931050 	ldr	r1, [r3, #80]	; 0x50
f0002db4:	e34f0000 	movt	r0, #61440	; 0xf000
f0002db8:	e5803000 	str	r3, [r0]
f0002dbc:	e3a00000 	mov	r0, #0
f0002dc0:	e5823000 	str	r3, [r2]
f0002dc4:	e5821004 	str	r1, [r2, #4]
f0002dc8:	e5931058 	ldr	r1, [r3, #88]	; 0x58
f0002dcc:	e5821008 	str	r1, [r2, #8]
f0002dd0:	e5933054 	ldr	r3, [r3, #84]	; 0x54
f0002dd4:	e582300c 	str	r3, [r2, #12]
f0002dd8:	e12fff1e 	bx	lr

f0002ddc <mem_clk_restore>:
f0002ddc:	e5903000 	ldr	r3, [r0]
f0002de0:	e3031ea4 	movw	r1, #16036	; 0x3ea4
f0002de4:	e590c004 	ldr	ip, [r0, #4]
f0002de8:	e1a02000 	mov	r2, r0
f0002dec:	e34f1000 	movt	r1, #61440	; 0xf000
f0002df0:	e3a00000 	mov	r0, #0
f0002df4:	e5813000 	str	r3, [r1]
f0002df8:	e583c050 	str	ip, [r3, #80]	; 0x50
f0002dfc:	e5921008 	ldr	r1, [r2, #8]
f0002e00:	e5831058 	str	r1, [r3, #88]	; 0x58
f0002e04:	e592200c 	ldr	r2, [r2, #12]
f0002e08:	e5832054 	str	r2, [r3, #84]	; 0x54
f0002e0c:	e12fff1e 	bx	lr

f0002e10 <mem_clk_setdiv>:
f0002e10:	e92d4038 	push	{r3, r4, r5, lr}
f0002e14:	e2504000 	subs	r4, r0, #0
f0002e18:	0a000015 	beq	f0002e74 <mem_clk_setdiv+0x64>
f0002e1c:	e59f5058 	ldr	r5, [pc, #88]	; f0002e7c <mem_clk_setdiv+0x6c>
f0002e20:	e3a03000 	mov	r3, #0
f0002e24:	e34031c2 	movt	r3, #450	; 0x1c2
f0002e28:	e5941000 	ldr	r1, [r4]
f0002e2c:	e3a00005 	mov	r0, #5
f0002e30:	e5853000 	str	r3, [r5]
f0002e34:	e5932050 	ldr	r2, [r3, #80]	; 0x50
f0002e38:	e7c12011 	bfi	r2, r1, #0, #2
f0002e3c:	e5852004 	str	r2, [r5, #4]
f0002e40:	e5832050 	str	r2, [r3, #80]	; 0x50
f0002e44:	e5942004 	ldr	r2, [r4, #4]
f0002e48:	e3c22a03 	bic	r2, r2, #12288	; 0x3000
f0002e4c:	e3822a01 	orr	r2, r2, #4096	; 0x1000
f0002e50:	e5832054 	str	r2, [r3, #84]	; 0x54
f0002e54:	ebfff8f9 	bl	f0001240 <delay_us>
f0002e58:	e5953000 	ldr	r3, [r5]
f0002e5c:	e3a00005 	mov	r0, #5
f0002e60:	e5942004 	ldr	r2, [r4, #4]
f0002e64:	e5832054 	str	r2, [r3, #84]	; 0x54
f0002e68:	ebfff8f4 	bl	f0001240 <delay_us>
f0002e6c:	e3a00000 	mov	r0, #0
f0002e70:	e8bd8038 	pop	{r3, r4, r5, pc}
f0002e74:	e3e00000 	mvn	r0, #0
f0002e78:	e8bd8038 	pop	{r3, r4, r5, pc}
f0002e7c:	f0003ea4 			; <UNDEFINED> instruction: 0xf0003ea4

f0002e80 <mem_clk_getdiv>:
f0002e80:	e2502000 	subs	r2, r0, #0
f0002e84:	e52d4004 	push	{r4}		; (str r4, [sp, #-4]!)
f0002e88:	03e00000 	mvneq	r0, #0
f0002e8c:	0a00000a 	beq	f0002ebc <mem_clk_getdiv+0x3c>
f0002e90:	e59f102c 	ldr	r1, [pc, #44]	; f0002ec4 <mem_clk_getdiv+0x44>
f0002e94:	e3a03000 	mov	r3, #0
f0002e98:	e34f31c2 	movt	r3, #61890	; 0xf1c2
f0002e9c:	e3a00000 	mov	r0, #0
f0002ea0:	e5813000 	str	r3, [r1]
f0002ea4:	e593c050 	ldr	ip, [r3, #80]	; 0x50
f0002ea8:	e20c4003 	and	r4, ip, #3
f0002eac:	e581c004 	str	ip, [r1, #4]
f0002eb0:	e5824000 	str	r4, [r2]
f0002eb4:	e5933054 	ldr	r3, [r3, #84]	; 0x54
f0002eb8:	e5823004 	str	r3, [r2, #4]
f0002ebc:	e8bd0010 	pop	{r4}
f0002ec0:	e12fff1e 	bx	lr
f0002ec4:	f0003ea4 			; <UNDEFINED> instruction: 0xf0003ea4

f0002ec8 <mem_clk_set_pll_factor>:
f0002ec8:	e3033ea4 	movw	r3, #16036	; 0x3ea4
f0002ecc:	e3a02000 	mov	r2, #0
f0002ed0:	e34f3000 	movt	r3, #61440	; 0xf000
f0002ed4:	e34021c2 	movt	r2, #450	; 0x1c2
f0002ed8:	e1a01000 	mov	r1, r0
f0002edc:	e52d4004 	push	{r4}		; (str r4, [sp, #-4]!)
f0002ee0:	e5832000 	str	r2, [r3]
f0002ee4:	e3a00000 	mov	r0, #0
f0002ee8:	e5d14003 	ldrb	r4, [r1, #3]
f0002eec:	e592c000 	ldr	ip, [r2]
f0002ef0:	e7d0c814 	bfi	ip, r4, #16, #1
f0002ef4:	e583c008 	str	ip, [r3, #8]
f0002ef8:	e5d14002 	ldrb	r4, [r1, #2]
f0002efc:	e7c1c014 	bfi	ip, r4, #0, #2
f0002f00:	e583c008 	str	ip, [r3, #8]
f0002f04:	e5d11000 	ldrb	r1, [r1]
f0002f08:	e5c31009 	strb	r1, [r3, #9]
f0002f0c:	e5933008 	ldr	r3, [r3, #8]
f0002f10:	e5823000 	str	r3, [r2]
f0002f14:	e8bd0010 	pop	{r4}
f0002f18:	e12fff1e 	bx	lr

f0002f1c <mem_clk_get_pll_factor>:
f0002f1c:	e3033ea4 	movw	r3, #16036	; 0x3ea4
f0002f20:	e3a02000 	mov	r2, #0
f0002f24:	e34f3000 	movt	r3, #61440	; 0xf000
f0002f28:	e34f21c2 	movt	r2, #61890	; 0xf1c2
f0002f2c:	e92d0030 	push	{r4, r5}
f0002f30:	e1a01000 	mov	r1, r0
f0002f34:	e5832000 	str	r2, [r3]
f0002f38:	e3a00000 	mov	r0, #0
f0002f3c:	e5922000 	ldr	r2, [r2]
f0002f40:	e7e75452 	ubfx	r5, r2, #8, #8
f0002f44:	e7e14052 	ubfx	r4, r2, #0, #2
f0002f48:	e7e0c852 	ubfx	ip, r2, #16, #1
f0002f4c:	e5832008 	str	r2, [r3, #8]
f0002f50:	e5c15000 	strb	r5, [r1]
f0002f54:	e5c14002 	strb	r4, [r1, #2]
f0002f58:	e5c1c003 	strb	ip, [r1, #3]
f0002f5c:	e8bd0030 	pop	{r4, r5}
f0002f60:	e12fff1e 	bx	lr

f0002f64 <mem_clk_set_misc>:
f0002f64:	e1a02000 	mov	r2, r0
f0002f68:	e5900000 	ldr	r0, [r0]
f0002f6c:	e3031ea4 	movw	r1, #16036	; 0x3ea4
f0002f70:	e3a03000 	mov	r3, #0
f0002f74:	e34031c2 	movt	r3, #450	; 0x1c2
f0002f78:	e34f1000 	movt	r1, #61440	; 0xf000
f0002f7c:	e5813000 	str	r3, [r1]
f0002f80:	e5830220 	str	r0, [r3, #544]	; 0x220
f0002f84:	e3a00000 	mov	r0, #0
f0002f88:	e592c008 	ldr	ip, [r2, #8]
f0002f8c:	e583c250 	str	ip, [r3, #592]	; 0x250
f0002f90:	e592c00c 	ldr	ip, [r2, #12]
f0002f94:	e583c238 	str	ip, [r3, #568]	; 0x238
f0002f98:	e592c010 	ldr	ip, [r2, #16]
f0002f9c:	e583c254 	str	ip, [r3, #596]	; 0x254
f0002fa0:	e592c014 	ldr	ip, [r2, #20]
f0002fa4:	e583c004 	str	ip, [r3, #4]
f0002fa8:	e592c024 	ldr	ip, [r2, #36]	; 0x24
f0002fac:	e583c228 	str	ip, [r3, #552]	; 0x228
f0002fb0:	e592c028 	ldr	ip, [r2, #40]	; 0x28
f0002fb4:	e583c22c 	str	ip, [r3, #556]	; 0x22c
f0002fb8:	e592c02c 	ldr	ip, [r2, #44]	; 0x2c
f0002fbc:	e583c234 	str	ip, [r3, #564]	; 0x234
f0002fc0:	e592c030 	ldr	ip, [r2, #48]	; 0x30
f0002fc4:	e583c288 	str	ip, [r3, #648]	; 0x288
f0002fc8:	e592c034 	ldr	ip, [r2, #52]	; 0x34
f0002fcc:	e583c2a8 	str	ip, [r3, #680]	; 0x2a8
f0002fd0:	e592c018 	ldr	ip, [r2, #24]
f0002fd4:	e583c010 	str	ip, [r3, #16]
f0002fd8:	e592c01c 	ldr	ip, [r2, #28]
f0002fdc:	e583c018 	str	ip, [r3, #24]
f0002fe0:	e592c020 	ldr	ip, [r2, #32]
f0002fe4:	e583c028 	str	ip, [r3, #40]	; 0x28
f0002fe8:	e5922038 	ldr	r2, [r2, #56]	; 0x38
f0002fec:	e5832058 	str	r2, [r3, #88]	; 0x58
f0002ff0:	e3a02002 	mov	r2, #2
f0002ff4:	e593c050 	ldr	ip, [r3, #80]	; 0x50
f0002ff8:	e7c1c012 	bfi	ip, r2, #0, #2
f0002ffc:	e583c050 	str	ip, [r3, #80]	; 0x50
f0003000:	e1a0200c 	mov	r2, ip
f0003004:	e3a0c001 	mov	ip, #1
f0003008:	e7c1201c 	bfi	r2, ip, #0, #2
f000300c:	e5812004 	str	r2, [r1, #4]
f0003010:	e5832050 	str	r2, [r3, #80]	; 0x50
f0003014:	e12fff1e 	bx	lr

f0003018 <mem_clk_get_misc>:
f0003018:	e3a03000 	mov	r3, #0
f000301c:	e1a02000 	mov	r2, r0
f0003020:	e34f31c2 	movt	r3, #61890	; 0xf1c2
f0003024:	e3030ea4 	movw	r0, #16036	; 0x3ea4
f0003028:	e5931220 	ldr	r1, [r3, #544]	; 0x220
f000302c:	e34f0000 	movt	r0, #61440	; 0xf000
f0003030:	e5803000 	str	r3, [r0]
f0003034:	e3a00000 	mov	r0, #0
f0003038:	e5821000 	str	r1, [r2]
f000303c:	e5931250 	ldr	r1, [r3, #592]	; 0x250
f0003040:	e5821008 	str	r1, [r2, #8]
f0003044:	e5931238 	ldr	r1, [r3, #568]	; 0x238
f0003048:	e582100c 	str	r1, [r2, #12]
f000304c:	e5931254 	ldr	r1, [r3, #596]	; 0x254
f0003050:	e5821010 	str	r1, [r2, #16]
f0003054:	e5931004 	ldr	r1, [r3, #4]
f0003058:	e5821014 	str	r1, [r2, #20]
f000305c:	e5931228 	ldr	r1, [r3, #552]	; 0x228
f0003060:	e5821024 	str	r1, [r2, #36]	; 0x24
f0003064:	e593122c 	ldr	r1, [r3, #556]	; 0x22c
f0003068:	e5821028 	str	r1, [r2, #40]	; 0x28
f000306c:	e5931288 	ldr	r1, [r3, #648]	; 0x288
f0003070:	e5821030 	str	r1, [r2, #48]	; 0x30
f0003074:	e59312a8 	ldr	r1, [r3, #680]	; 0x2a8
f0003078:	e5821034 	str	r1, [r2, #52]	; 0x34
f000307c:	e5931010 	ldr	r1, [r3, #16]
f0003080:	e5821018 	str	r1, [r2, #24]
f0003084:	e5931018 	ldr	r1, [r3, #24]
f0003088:	e582101c 	str	r1, [r2, #28]
f000308c:	e5931234 	ldr	r1, [r3, #564]	; 0x234
f0003090:	e582102c 	str	r1, [r2, #44]	; 0x2c
f0003094:	e5931028 	ldr	r1, [r3, #40]	; 0x28
f0003098:	e5821020 	str	r1, [r2, #32]
f000309c:	e5933058 	ldr	r3, [r3, #88]	; 0x58
f00030a0:	e5823038 	str	r3, [r2, #56]	; 0x38
f00030a4:	e12fff1e 	bx	lr

f00030a8 <mem_clk_get_cpu_freq>:
f00030a8:	e59f3050 	ldr	r3, [pc, #80]	; f0003100 <mem_clk_get_cpu_freq+0x58>
f00030ac:	e52d4004 	push	{r4}		; (str r4, [sp, #-4]!)
f00030b0:	e5931000 	ldr	r1, [r3]
f00030b4:	e5912050 	ldr	r2, [r1, #80]	; 0x50
f00030b8:	e3120a01 	tst	r2, #4096	; 0x1000
f00030bc:	e5832004 	str	r2, [r3, #4]
f00030c0:	1a000002 	bne	f00030d0 <mem_clk_get_cpu_freq+0x28>
f00030c4:	e3050dc0 	movw	r0, #24000	; 0x5dc0
f00030c8:	e8bd0010 	pop	{r4}
f00030cc:	e12fff1e 	bx	lr
f00030d0:	e5912000 	ldr	r2, [r1]
f00030d4:	e3054dc0 	movw	r4, #24000	; 0x5dc0
f00030d8:	e3120801 	tst	r2, #65536	; 0x10000
f00030dc:	e7e70452 	ubfx	r0, r2, #8, #8
f00030e0:	e202c003 	and	ip, r2, #3
f00030e4:	13a01004 	movne	r1, #4
f00030e8:	03a01001 	moveq	r1, #1
f00030ec:	e0000094 	mul	r0, r4, r0
f00030f0:	e5832008 	str	r2, [r3, #8]
f00030f4:	e021119c 	mla	r1, ip, r1, r1
f00030f8:	e8bd0010 	pop	{r4}
f00030fc:	eafffde5 	b	f0002898 <raw_lib_udiv>
f0003100:	f0003ea4 			; <UNDEFINED> instruction: 0xf0003ea4

f0003104 <standby_arisc_init>:
f0003104:	e3033eb0 	movw	r3, #16048	; 0x3eb0
f0003108:	e92d4010 	push	{r4, lr}
f000310c:	e34f3000 	movt	r3, #61440	; 0xf000
f0003110:	e3a04000 	mov	r4, #0
f0003114:	e5834000 	str	r4, [r3]
f0003118:	e5834004 	str	r4, [r3, #4]
f000311c:	eb000160 	bl	f00036a4 <arisc_hwspinlock_init>
f0003120:	eb000091 	bl	f000336c <arisc_hwmsgbox_init>
f0003124:	eb000173 	bl	f00036f8 <arisc_message_manager_init>
f0003128:	e1a00004 	mov	r0, r4
f000312c:	e8bd8010 	pop	{r4, pc}

f0003130 <standby_arisc_exit>:
f0003130:	e92d4008 	push	{r3, lr}
f0003134:	eb000179 	bl	f0003720 <arisc_message_manager_exit>
f0003138:	eb00008d 	bl	f0003374 <arisc_hwmsgbox_exit>
f000313c:	eb00015a 	bl	f00036ac <arisc_hwspinlock_exit>
f0003140:	e3033eb0 	movw	r3, #16048	; 0x3eb0
f0003144:	e3a02000 	mov	r2, #0
f0003148:	e34f3000 	movt	r3, #61440	; 0xf000
f000314c:	e1a00002 	mov	r0, r2
f0003150:	e5832004 	str	r2, [r3, #4]
f0003154:	e5832000 	str	r2, [r3]
f0003158:	e8bd8008 	pop	{r3, pc}

f000315c <standby_arisc_notify_restore>:
f000315c:	e92d4038 	push	{r3, r4, r5, lr}
f0003160:	e1a05000 	mov	r5, r0
f0003164:	e3a00000 	mov	r0, #0
f0003168:	eb00016e 	bl	f0003728 <arisc_message_allocate>
f000316c:	e2504000 	subs	r4, r0, #0
f0003170:	0a000015 	beq	f00031cc <standby_arisc_notify_restore+0x70>
f0003174:	e2155002 	ands	r5, r5, #2
f0003178:	0a00000a 	beq	f00031a8 <standby_arisc_notify_restore+0x4c>
f000317c:	e3a03002 	mov	r3, #2
f0003180:	e3a02014 	mov	r2, #20
f0003184:	e5c42002 	strb	r2, [r4, #2]
f0003188:	e3a0100a 	mov	r1, #10
f000318c:	e5c43001 	strb	r3, [r4, #1]
f0003190:	e5c43000 	strb	r3, [r4]
f0003194:	eb000078 	bl	f000337c <arisc_hwmsgbox_send_message>
f0003198:	e1a00004 	mov	r0, r4
f000319c:	eb000186 	bl	f00037bc <arisc_message_free>
f00031a0:	e3a00000 	mov	r0, #0
f00031a4:	e8bd8038 	pop	{r3, r4, r5, pc}
f00031a8:	e3a03014 	mov	r3, #20
f00031ac:	e3a0100a 	mov	r1, #10
f00031b0:	e5c43002 	strb	r3, [r4, #2]
f00031b4:	e3a03002 	mov	r3, #2
f00031b8:	e5c45001 	strb	r5, [r4, #1]
f00031bc:	e5c43000 	strb	r3, [r4]
f00031c0:	eb00006d 	bl	f000337c <arisc_hwmsgbox_send_message>
f00031c4:	e1a00005 	mov	r0, r5
f00031c8:	e8bd8038 	pop	{r3, r4, r5, pc}
f00031cc:	e3e0000b 	mvn	r0, #11
f00031d0:	e8bd8038 	pop	{r3, r4, r5, pc}

f00031d4 <standby_arisc_check_restore_status>:
f00031d4:	e92d4010 	push	{r4, lr}
f00031d8:	e59f4074 	ldr	r4, [pc, #116]	; f0003254 <standby_arisc_check_restore_status+0x80>
f00031dc:	e5943004 	ldr	r3, [r4, #4]
f00031e0:	e3530000 	cmp	r3, #0
f00031e4:	13a00000 	movne	r0, #0
f00031e8:	18bd8010 	popne	{r4, pc}
f00031ec:	eb0000e4 	bl	f0003584 <arisc_hwmsgbox_query_message>
f00031f0:	e2503000 	subs	r3, r0, #0
f00031f4:	03e00015 	mvneq	r0, #21
f00031f8:	08bd8010 	popeq	{r4, pc}
f00031fc:	e5d32002 	ldrb	r2, [r3, #2]
f0003200:	e3520015 	cmp	r2, #21
f0003204:	1a000010 	bne	f000324c <standby_arisc_check_restore_status+0x78>
f0003208:	e3a02005 	mov	r2, #5
f000320c:	e5c32000 	strb	r2, [r3]
f0003210:	e5d32001 	ldrb	r2, [r3, #1]
f0003214:	e3120001 	tst	r2, #1
f0003218:	1a000002 	bne	f0003228 <standby_arisc_check_restore_status+0x54>
f000321c:	e5d32001 	ldrb	r2, [r3, #1]
f0003220:	e3120002 	tst	r2, #2
f0003224:	0a000006 	beq	f0003244 <standby_arisc_check_restore_status+0x70>
f0003228:	e1a00003 	mov	r0, r3
f000322c:	e3a0100a 	mov	r1, #10
f0003230:	eb000082 	bl	f0003440 <arisc_hwmsgbox_feedback_message>
f0003234:	e3a03001 	mov	r3, #1
f0003238:	e3a00000 	mov	r0, #0
f000323c:	e5843004 	str	r3, [r4, #4]
f0003240:	e8bd8010 	pop	{r4, pc}
f0003244:	eb00015c 	bl	f00037bc <arisc_message_free>
f0003248:	eafffff9 	b	f0003234 <standby_arisc_check_restore_status+0x60>
f000324c:	e3e00015 	mvn	r0, #21
f0003250:	e8bd8010 	pop	{r4, pc}
f0003254:	f0003eb0 			; <UNDEFINED> instruction: 0xf0003eb0

f0003258 <standby_arisc_query_wakeup_src>:
f0003258:	e92d4038 	push	{r3, r4, r5, lr}
f000325c:	e2505000 	subs	r5, r0, #0
f0003260:	0a000020 	beq	f00032e8 <standby_arisc_query_wakeup_src+0x90>
f0003264:	e59f4084 	ldr	r4, [pc, #132]	; f00032f0 <standby_arisc_query_wakeup_src+0x98>
f0003268:	e5943000 	ldr	r3, [r4]
f000326c:	e3530000 	cmp	r3, #0
f0003270:	15853000 	strne	r3, [r5]
f0003274:	13a00000 	movne	r0, #0
f0003278:	18bd8038 	popne	{r3, r4, r5, pc}
f000327c:	eb0000c0 	bl	f0003584 <arisc_hwmsgbox_query_message>
f0003280:	e2503000 	subs	r3, r0, #0
f0003284:	0a000017 	beq	f00032e8 <standby_arisc_query_wakeup_src+0x90>
f0003288:	e5d32002 	ldrb	r2, [r3, #2]
f000328c:	e3520013 	cmp	r2, #19
f0003290:	1a000012 	bne	f00032e0 <standby_arisc_query_wakeup_src+0x88>
f0003294:	e3a02005 	mov	r2, #5
f0003298:	e5931014 	ldr	r1, [r3, #20]
f000329c:	e5c32000 	strb	r2, [r3]
f00032a0:	e5d32001 	ldrb	r2, [r3, #1]
f00032a4:	e5841000 	str	r1, [r4]
f00032a8:	e3120001 	tst	r2, #1
f00032ac:	1a000002 	bne	f00032bc <standby_arisc_query_wakeup_src+0x64>
f00032b0:	e5d32001 	ldrb	r2, [r3, #1]
f00032b4:	e3120002 	tst	r2, #2
f00032b8:	0a000006 	beq	f00032d8 <standby_arisc_query_wakeup_src+0x80>
f00032bc:	e1a00003 	mov	r0, r3
f00032c0:	e3a0100a 	mov	r1, #10
f00032c4:	eb00005d 	bl	f0003440 <arisc_hwmsgbox_feedback_message>
f00032c8:	e5943000 	ldr	r3, [r4]
f00032cc:	e3a00000 	mov	r0, #0
f00032d0:	e5853000 	str	r3, [r5]
f00032d4:	e8bd8038 	pop	{r3, r4, r5, pc}
f00032d8:	eb000137 	bl	f00037bc <arisc_message_free>
f00032dc:	eafffff9 	b	f00032c8 <standby_arisc_query_wakeup_src+0x70>
f00032e0:	e3e00015 	mvn	r0, #21
f00032e4:	e8bd8038 	pop	{r3, r4, r5, pc}
f00032e8:	e3e00015 	mvn	r0, #21
f00032ec:	e8bd8038 	pop	{r3, r4, r5, pc}
f00032f0:	f0003eb0 			; <UNDEFINED> instruction: 0xf0003eb0

f00032f4 <standby_arisc_standby_normal>:
f00032f4:	e92d4038 	push	{r3, r4, r5, lr}
f00032f8:	e1a05000 	mov	r5, r0
f00032fc:	e3a00000 	mov	r0, #0
f0003300:	eb000108 	bl	f0003728 <arisc_message_allocate>
f0003304:	e2504000 	subs	r4, r0, #0
f0003308:	03e0400b 	mvneq	r4, #11
f000330c:	0a00000e 	beq	f000334c <standby_arisc_standby_normal+0x58>
f0003310:	e3a03012 	mov	r3, #18
f0003314:	e2840014 	add	r0, r4, #20
f0003318:	e5c43002 	strb	r3, [r4, #2]
f000331c:	e1a01005 	mov	r1, r5
f0003320:	e3a02014 	mov	r2, #20
f0003324:	ebfff42c 	bl	f00003dc <standby_memcpy>
f0003328:	e3a03002 	mov	r3, #2
f000332c:	e1a00004 	mov	r0, r4
f0003330:	e5c43000 	strb	r3, [r4]
f0003334:	e3a0100a 	mov	r1, #10
f0003338:	eb00000f 	bl	f000337c <arisc_hwmsgbox_send_message>
f000333c:	e5d43001 	ldrb	r3, [r4, #1]
f0003340:	e3530000 	cmp	r3, #0
f0003344:	01a04003 	moveq	r4, r3
f0003348:	1a000001 	bne	f0003354 <standby_arisc_standby_normal+0x60>
f000334c:	e1a00004 	mov	r0, r4
f0003350:	e8bd8038 	pop	{r3, r4, r5, pc}
f0003354:	e5d43003 	ldrb	r3, [r4, #3]
f0003358:	e1a00004 	mov	r0, r4
f000335c:	e1a04003 	mov	r4, r3
f0003360:	eb000115 	bl	f00037bc <arisc_message_free>
f0003364:	e1a00004 	mov	r0, r4
f0003368:	e8bd8038 	pop	{r3, r4, r5, pc}

f000336c <arisc_hwmsgbox_init>:
f000336c:	e3a00000 	mov	r0, #0
f0003370:	e12fff1e 	bx	lr

f0003374 <arisc_hwmsgbox_exit>:
f0003374:	e3a00000 	mov	r0, #0
f0003378:	e12fff1e 	bx	lr

f000337c <arisc_hwmsgbox_send_message>:
f000337c:	e3500000 	cmp	r0, #0
f0003380:	e24dd008 	sub	sp, sp, #8
f0003384:	03e00015 	mvneq	r0, #21
f0003388:	0a00001a 	beq	f00033f8 <arisc_hwmsgbox_send_message+0x7c>
f000338c:	e5d03001 	ldrb	r3, [r0, #1]
f0003390:	e3071fff 	movw	r1, #32767	; 0x7fff
f0003394:	e34f11c1 	movt	r1, #61889	; 0xf1c1
f0003398:	e3130002 	tst	r3, #2
f000339c:	0a000017 	beq	f0003400 <arisc_hwmsgbox_send_message+0x84>
f00033a0:	e5112eef 	ldr	r2, [r1, #-3823]	; 0xeef
f00033a4:	e3073fff 	movw	r3, #32767	; 0x7fff
f00033a8:	e34f31c1 	movt	r3, #61889	; 0xf1c1
f00033ac:	e3520001 	cmp	r2, #1
f00033b0:	0afffffa 	beq	f00033a0 <arisc_hwmsgbox_send_message+0x24>
f00033b4:	e59f2080 	ldr	r2, [pc, #128]	; f000343c <arisc_hwmsgbox_send_message+0xc0>
f00033b8:	e1a01003 	mov	r1, r3
f00033bc:	e5922000 	ldr	r2, [r2]
f00033c0:	e0620000 	rsb	r0, r2, r0
f00033c4:	e58d0004 	str	r0, [sp, #4]
f00033c8:	e59d2004 	ldr	r2, [sp, #4]
f00033cc:	e5032e6f 	str	r2, [r3, #-3695]	; 0xe6f
f00033d0:	e5112eab 	ldr	r2, [r1, #-3755]	; 0xeab
f00033d4:	e3073fff 	movw	r3, #32767	; 0x7fff
f00033d8:	e34f31c1 	movt	r3, #61889	; 0xf1c1
f00033dc:	e3520000 	cmp	r2, #0
f00033e0:	0afffffa 	beq	f00033d0 <arisc_hwmsgbox_send_message+0x54>
f00033e4:	e5132e6b 	ldr	r2, [r3, #-3691]	; 0xe6b
f00033e8:	e59d3004 	ldr	r3, [sp, #4]
f00033ec:	e1520003 	cmp	r2, r3
f00033f0:	03a00000 	moveq	r0, #0
f00033f4:	13e00015 	mvnne	r0, #21
f00033f8:	e28dd008 	add	sp, sp, #8
f00033fc:	e12fff1e 	bx	lr
f0003400:	e5112efb 	ldr	r2, [r1, #-3835]	; 0xefb
f0003404:	e3073fff 	movw	r3, #32767	; 0x7fff
f0003408:	e34f31c1 	movt	r3, #61889	; 0xf1c1
f000340c:	e3520001 	cmp	r2, #1
f0003410:	0afffffa 	beq	f0003400 <arisc_hwmsgbox_send_message+0x84>
f0003414:	e59f2020 	ldr	r2, [pc, #32]	; f000343c <arisc_hwmsgbox_send_message+0xc0>
f0003418:	e5922000 	ldr	r2, [r2]
f000341c:	e0622000 	rsb	r2, r2, r0
f0003420:	e58d2004 	str	r2, [sp, #4]
f0003424:	e59d2004 	ldr	r2, [sp, #4]
f0003428:	e5032e7b 	str	r2, [r3, #-3707]	; 0xe7b
f000342c:	e5d00001 	ldrb	r0, [r0, #1]
f0003430:	e2100001 	ands	r0, r0, #1
f0003434:	13e00015 	mvnne	r0, #21
f0003438:	eaffffee 	b	f00033f8 <arisc_hwmsgbox_send_message+0x7c>
f000343c:	f0003ce4 			; <UNDEFINED> instruction: 0xf0003ce4

f0003440 <arisc_hwmsgbox_feedback_message>:
f0003440:	e5d03001 	ldrb	r3, [r0, #1]
f0003444:	e24dd008 	sub	sp, sp, #8
f0003448:	e3130002 	tst	r3, #2
f000344c:	0a000010 	beq	f0003494 <arisc_hwmsgbox_feedback_message+0x54>
f0003450:	e3071fff 	movw	r1, #32767	; 0x7fff
f0003454:	e34f11c1 	movt	r1, #61889	; 0xf1c1
f0003458:	e5112ef3 	ldr	r2, [r1, #-3827]	; 0xef3
f000345c:	e3073fff 	movw	r3, #32767	; 0x7fff
f0003460:	e34f31c1 	movt	r3, #61889	; 0xf1c1
f0003464:	e3520001 	cmp	r2, #1
f0003468:	0afffffa 	beq	f0003458 <arisc_hwmsgbox_feedback_message+0x18>
f000346c:	e59f106c 	ldr	r1, [pc, #108]	; f00034e0 <arisc_hwmsgbox_feedback_message+0xa0>
f0003470:	e3a02000 	mov	r2, #0
f0003474:	e5911000 	ldr	r1, [r1]
f0003478:	e0610000 	rsb	r0, r1, r0
f000347c:	e58d0004 	str	r0, [sp, #4]
f0003480:	e59d1004 	ldr	r1, [sp, #4]
f0003484:	e5031e73 	str	r1, [r3, #-3699]	; 0xe73
f0003488:	e1a00002 	mov	r0, r2
f000348c:	e28dd008 	add	sp, sp, #8
f0003490:	e12fff1e 	bx	lr
f0003494:	e5d03001 	ldrb	r3, [r0, #1]
f0003498:	e3130001 	tst	r3, #1
f000349c:	03e02015 	mvneq	r2, #21
f00034a0:	0afffff8 	beq	f0003488 <arisc_hwmsgbox_feedback_message+0x48>
f00034a4:	e3071fff 	movw	r1, #32767	; 0x7fff
f00034a8:	e34f11c1 	movt	r1, #61889	; 0xf1c1
f00034ac:	e5112efb 	ldr	r2, [r1, #-3835]	; 0xefb
f00034b0:	e3073fff 	movw	r3, #32767	; 0x7fff
f00034b4:	e34f31c1 	movt	r3, #61889	; 0xf1c1
f00034b8:	e3520001 	cmp	r2, #1
f00034bc:	0afffffa 	beq	f00034ac <arisc_hwmsgbox_feedback_message+0x6c>
f00034c0:	e59f1018 	ldr	r1, [pc, #24]	; f00034e0 <arisc_hwmsgbox_feedback_message+0xa0>
f00034c4:	e3a02000 	mov	r2, #0
f00034c8:	e5911000 	ldr	r1, [r1]
f00034cc:	e0610000 	rsb	r0, r1, r0
f00034d0:	e58d0004 	str	r0, [sp, #4]
f00034d4:	e59d1004 	ldr	r1, [sp, #4]
f00034d8:	e5031e7b 	str	r1, [r3, #-3707]	; 0xe7b
f00034dc:	eaffffe9 	b	f0003488 <arisc_hwmsgbox_feedback_message+0x48>
f00034e0:	f0003ce4 			; <UNDEFINED> instruction: 0xf0003ce4

f00034e4 <arisc_hwmsgbox_enable_receiver_int>:
f00034e4:	e3003b82 	movw	r3, #2946	; 0xb82
f00034e8:	e24dd008 	sub	sp, sp, #8
f00034ec:	e340378e 	movt	r3, #1934	; 0x78e
f00034f0:	e1a00080 	lsl	r0, r0, #1
f00034f4:	e0813003 	add	r3, r1, r3
f00034f8:	e1a03283 	lsl	r3, r3, #5
f00034fc:	e3a02001 	mov	r2, #1
f0003500:	e1a02012 	lsl	r2, r2, r0
f0003504:	e3a00000 	mov	r0, #0
f0003508:	e5931000 	ldr	r1, [r3]
f000350c:	e58d1004 	str	r1, [sp, #4]
f0003510:	e59d1004 	ldr	r1, [sp, #4]
f0003514:	e1c11002 	bic	r1, r1, r2
f0003518:	e58d1004 	str	r1, [sp, #4]
f000351c:	e59d1004 	ldr	r1, [sp, #4]
f0003520:	e1822001 	orr	r2, r2, r1
f0003524:	e58d2004 	str	r2, [sp, #4]
f0003528:	e59d2004 	ldr	r2, [sp, #4]
f000352c:	e5832000 	str	r2, [r3]
f0003530:	e28dd008 	add	sp, sp, #8
f0003534:	e12fff1e 	bx	lr

f0003538 <arisc_hwmsgbox_query_receiver_pending>:
f0003538:	e3073050 	movw	r3, #28752	; 0x7050
f000353c:	e24dd008 	sub	sp, sp, #8
f0003540:	e34f31c1 	movt	r3, #61889	; 0xf1c1
f0003544:	e1a00080 	lsl	r0, r0, #1
f0003548:	e7933281 	ldr	r3, [r3, r1, lsl #5]
f000354c:	e3a02001 	mov	r2, #1
f0003550:	e58d3004 	str	r3, [sp, #4]
f0003554:	e59d3004 	ldr	r3, [sp, #4]
f0003558:	e0030012 	and	r0, r3, r2, lsl r0
f000355c:	e28dd008 	add	sp, sp, #8
f0003560:	e12fff1e 	bx	lr

f0003564 <arisc_hwmsgbox_clear_receiver_pending>:
f0003564:	e1a00080 	lsl	r0, r0, #1
f0003568:	e3a02001 	mov	r2, #1
f000356c:	e3073050 	movw	r3, #28752	; 0x7050
f0003570:	e1a00012 	lsl	r0, r2, r0
f0003574:	e34f31c1 	movt	r3, #61889	; 0xf1c1
f0003578:	e7830281 	str	r0, [r3, r1, lsl #5]
f000357c:	e3a00000 	mov	r0, #0
f0003580:	e12fff1e 	bx	lr

f0003584 <arisc_hwmsgbox_query_message>:
f0003584:	e3073fff 	movw	r3, #32767	; 0x7fff
f0003588:	e24dd008 	sub	sp, sp, #8
f000358c:	e34f31c1 	movt	r3, #61889	; 0xf1c1
f0003590:	e5130ebf 	ldr	r0, [r3, #-3775]	; 0xebf
f0003594:	e3500000 	cmp	r0, #0
f0003598:	0a000016 	beq	f00035f8 <arisc_hwmsgbox_query_message+0x74>
f000359c:	e5133e7f 	ldr	r3, [r3, #-3711]	; 0xe7f
f00035a0:	e58d3004 	str	r3, [sp, #4]
f00035a4:	e59f30c0 	ldr	r3, [pc, #192]	; f000366c <arisc_hwmsgbox_query_message+0xe8>
f00035a8:	e59d2004 	ldr	r2, [sp, #4]
f00035ac:	e5933000 	ldr	r3, [r3]
f00035b0:	e2831a13 	add	r1, r3, #77824	; 0x13000
f00035b4:	e0830002 	add	r0, r3, r2
f00035b8:	e1500001 	cmp	r0, r1
f00035bc:	3a000028 	bcc	f0003664 <arisc_hwmsgbox_query_message+0xe0>
f00035c0:	e2831905 	add	r1, r3, #81920	; 0x14000
f00035c4:	e1500001 	cmp	r0, r1
f00035c8:	2a000025 	bcs	f0003664 <arisc_hwmsgbox_query_message+0xe0>
f00035cc:	e7d31002 	ldrb	r1, [r3, r2]
f00035d0:	e3510005 	cmp	r1, #5
f00035d4:	03a01006 	moveq	r1, #6
f00035d8:	13a01003 	movne	r1, #3
f00035dc:	e7c31002 	strb	r1, [r3, r2]
f00035e0:	e3073fff 	movw	r3, #32767	; 0x7fff
f00035e4:	e34f31c1 	movt	r3, #61889	; 0xf1c1
f00035e8:	e3a02001 	mov	r2, #1
f00035ec:	e5032f8f 	str	r2, [r3, #-3983]	; 0xf8f
f00035f0:	e28dd008 	add	sp, sp, #8
f00035f4:	e12fff1e 	bx	lr
f00035f8:	e5132eb7 	ldr	r2, [r3, #-3767]	; 0xeb7
f00035fc:	e3520000 	cmp	r2, #0
f0003600:	01a00002 	moveq	r0, r2
f0003604:	0afffff9 	beq	f00035f0 <arisc_hwmsgbox_query_message+0x6c>
f0003608:	e5133e77 	ldr	r3, [r3, #-3703]	; 0xe77
f000360c:	e58d3004 	str	r3, [sp, #4]
f0003610:	e59f3054 	ldr	r3, [pc, #84]	; f000366c <arisc_hwmsgbox_query_message+0xe8>
f0003614:	e59d2004 	ldr	r2, [sp, #4]
f0003618:	e5933000 	ldr	r3, [r3]
f000361c:	e283ca13 	add	ip, r3, #77824	; 0x13000
f0003620:	e0831002 	add	r1, r3, r2
f0003624:	e151000c 	cmp	r1, ip
f0003628:	3afffff0 	bcc	f00035f0 <arisc_hwmsgbox_query_message+0x6c>
f000362c:	e283c905 	add	ip, r3, #81920	; 0x14000
f0003630:	e151000c 	cmp	r1, ip
f0003634:	2affffed 	bcs	f00035f0 <arisc_hwmsgbox_query_message+0x6c>
f0003638:	e7d3c002 	ldrb	ip, [r3, r2]
f000363c:	e1a00001 	mov	r0, r1
f0003640:	e35c0005 	cmp	ip, #5
f0003644:	03a01006 	moveq	r1, #6
f0003648:	13a01003 	movne	r1, #3
f000364c:	e7c31002 	strb	r1, [r3, r2]
f0003650:	e3073fff 	movw	r3, #32767	; 0x7fff
f0003654:	e34f31c1 	movt	r3, #61889	; 0xf1c1
f0003658:	e3a02010 	mov	r2, #16
f000365c:	e5032f8f 	str	r2, [r3, #-3983]	; 0xf8f
f0003660:	eaffffe2 	b	f00035f0 <arisc_hwmsgbox_query_message+0x6c>
f0003664:	e3a00000 	mov	r0, #0
f0003668:	eaffffe0 	b	f00035f0 <arisc_hwmsgbox_query_message+0x6c>
f000366c:	f0003ce4 			; <UNDEFINED> instruction: 0xf0003ce4

f0003670 <arisc_message_valid>:
f0003670:	e59f3028 	ldr	r3, [pc, #40]	; f00036a0 <arisc_message_valid+0x30>
f0003674:	e5933000 	ldr	r3, [r3]
f0003678:	e2832a13 	add	r2, r3, #77824	; 0x13000
f000367c:	e1500002 	cmp	r0, r2
f0003680:	3a000004 	bcc	f0003698 <arisc_message_valid+0x28>
f0003684:	e2833905 	add	r3, r3, #81920	; 0x14000
f0003688:	e1500003 	cmp	r0, r3
f000368c:	23a00000 	movcs	r0, #0
f0003690:	33a00001 	movcc	r0, #1
f0003694:	e12fff1e 	bx	lr
f0003698:	e3a00000 	mov	r0, #0
f000369c:	e12fff1e 	bx	lr
f00036a0:	f0003ce4 			; <UNDEFINED> instruction: 0xf0003ce4

f00036a4 <arisc_hwspinlock_init>:
f00036a4:	e3a00000 	mov	r0, #0
f00036a8:	e12fff1e 	bx	lr

f00036ac <arisc_hwspinlock_exit>:
f00036ac:	e3a00000 	mov	r0, #0
f00036b0:	e12fff1e 	bx	lr

f00036b4 <arisc_hwspin_lock_timeout>:
f00036b4:	e3063040 	movw	r3, #24640	; 0x6040
f00036b8:	e3433c70 	movt	r3, #15472	; 0x3c70
f00036bc:	e0803003 	add	r3, r0, r3
f00036c0:	e1a03103 	lsl	r3, r3, #2
f00036c4:	e5932000 	ldr	r2, [r3]
f00036c8:	e3520001 	cmp	r2, #1
f00036cc:	0afffffc 	beq	f00036c4 <arisc_hwspin_lock_timeout+0x10>
f00036d0:	e3a00000 	mov	r0, #0
f00036d4:	e12fff1e 	bx	lr

f00036d8 <arisc_hwspin_unlock>:
f00036d8:	e3063040 	movw	r3, #24640	; 0x6040
f00036dc:	e3a02000 	mov	r2, #0
f00036e0:	e3433c70 	movt	r3, #15472	; 0x3c70
f00036e4:	e0803003 	add	r3, r0, r3
f00036e8:	e1a00002 	mov	r0, r2
f00036ec:	e1a03103 	lsl	r3, r3, #2
f00036f0:	e5832000 	str	r2, [r3]
f00036f4:	e12fff1e 	bx	lr

f00036f8 <arisc_message_manager_init>:
f00036f8:	e3032ce4 	movw	r2, #15588	; 0x3ce4
f00036fc:	e3033eb8 	movw	r3, #16056	; 0x3eb8
f0003700:	e34f2000 	movt	r2, #61440	; 0xf000
f0003704:	e34f3000 	movt	r3, #61440	; 0xf000
f0003708:	e5922000 	ldr	r2, [r2]
f000370c:	e3a00000 	mov	r0, #0
f0003710:	e2821a13 	add	r1, r2, #77824	; 0x13000
f0003714:	e2822905 	add	r2, r2, #81920	; 0x14000
f0003718:	e8830006 	stm	r3, {r1, r2}
f000371c:	e12fff1e 	bx	lr

f0003720 <arisc_message_manager_exit>:
f0003720:	e3a00000 	mov	r0, #0
f0003724:	e12fff1e 	bx	lr

f0003728 <arisc_message_allocate>:
f0003728:	e92d4038 	push	{r3, r4, r5, lr}
f000372c:	e3a0100a 	mov	r1, #10
f0003730:	e1a04000 	mov	r4, r0
f0003734:	e3a00000 	mov	r0, #0
f0003738:	ebffffdd 	bl	f00036b4 <arisc_hwspin_lock_timeout>
f000373c:	e59f2074 	ldr	r2, [pc, #116]	; f00037b8 <arisc_message_allocate+0x90>
f0003740:	e5923000 	ldr	r3, [r2]
f0003744:	e5921004 	ldr	r1, [r2, #4]
f0003748:	e1530001 	cmp	r3, r1
f000374c:	2a00000a 	bcs	f000377c <arisc_message_allocate+0x54>
f0003750:	e5d32000 	ldrb	r2, [r3]
f0003754:	e3520000 	cmp	r2, #0
f0003758:	1a000004 	bne	f0003770 <arisc_message_allocate+0x48>
f000375c:	ea00000a 	b	f000378c <arisc_message_allocate+0x64>
f0003760:	e5d32040 	ldrb	r2, [r3, #64]	; 0x40
f0003764:	e1a03005 	mov	r3, r5
f0003768:	e3520000 	cmp	r2, #0
f000376c:	0a000007 	beq	f0003790 <arisc_message_allocate+0x68>
f0003770:	e2835040 	add	r5, r3, #64	; 0x40
f0003774:	e1550001 	cmp	r5, r1
f0003778:	3afffff8 	bcc	f0003760 <arisc_message_allocate+0x38>
f000377c:	e3a00000 	mov	r0, #0
f0003780:	ebffffd4 	bl	f00036d8 <arisc_hwspin_unlock>
f0003784:	e3a00000 	mov	r0, #0
f0003788:	e8bd8038 	pop	{r3, r4, r5, pc}
f000378c:	e1a05003 	mov	r5, r3
f0003790:	e3a03001 	mov	r3, #1
f0003794:	e3a00000 	mov	r0, #0
f0003798:	e5c53000 	strb	r3, [r5]
f000379c:	e6ef4074 	uxtb	r4, r4
f00037a0:	ebffffcc 	bl	f00036d8 <arisc_hwspin_unlock>
f00037a4:	e3a03000 	mov	r3, #0
f00037a8:	e1a00005 	mov	r0, r5
f00037ac:	e5853004 	str	r3, [r5, #4]
f00037b0:	e5c54001 	strb	r4, [r5, #1]
f00037b4:	e8bd8038 	pop	{r3, r4, r5, pc}
f00037b8:	f0003eb8 			; <UNDEFINED> instruction: 0xf0003eb8

f00037bc <arisc_message_free>:
f00037bc:	e92d4010 	push	{r4, lr}
f00037c0:	e3a0100a 	mov	r1, #10
f00037c4:	e1a04000 	mov	r4, r0
f00037c8:	e3a00000 	mov	r0, #0
f00037cc:	ebffffb8 	bl	f00036b4 <arisc_hwspin_lock_timeout>
f00037d0:	e3a03000 	mov	r3, #0
f00037d4:	e5c43000 	strb	r3, [r4]
f00037d8:	e1a00003 	mov	r0, r3
f00037dc:	e5843004 	str	r3, [r4, #4]
f00037e0:	e8bd4010 	pop	{r4, lr}
f00037e4:	eaffffbb 	b	f00036d8 <arisc_hwspin_unlock>

f00037e8 <hwspinlock_init>:
f00037e8:	e3a03000 	mov	r3, #0
f00037ec:	e3500001 	cmp	r0, #1
f00037f0:	034f31c2 	movteq	r3, #61890	; 0xf1c2
f00037f4:	134031c2 	movtne	r3, #450	; 0x1c2
f00037f8:	e59322c4 	ldr	r2, [r3, #708]	; 0x2c4
f00037fc:	e3a00000 	mov	r0, #0
f0003800:	e3822501 	orr	r2, r2, #4194304	; 0x400000
f0003804:	e58322c4 	str	r2, [r3, #708]	; 0x2c4
f0003808:	e5932064 	ldr	r2, [r3, #100]	; 0x64
f000380c:	e3822501 	orr	r2, r2, #4194304	; 0x400000
f0003810:	e5832064 	str	r2, [r3, #100]	; 0x64
f0003814:	e12fff1e 	bx	lr

f0003818 <hwspin_lock_timeout>:
f0003818:	e92d4008 	push	{r3, lr}
f000381c:	e10fc000 	mrs	ip, CPSR
f0003820:	f10c0080 	cpsid	i
f0003824:	e3062040 	movw	r2, #24640	; 0x6040
f0003828:	e3432c70 	movt	r2, #15472	; 0x3c70
f000382c:	e59f3058 	ldr	r3, [pc, #88]	; f000388c <hwspin_lock_timeout+0x74>
f0003830:	e0802002 	add	r2, r0, r2
f0003834:	e1a02102 	lsl	r2, r2, #2
f0003838:	e583c000 	str	ip, [r3]
f000383c:	e5923000 	ldr	r3, [r2]
f0003840:	e3530001 	cmp	r3, #1
f0003844:	1a00000e 	bne	f0003884 <hwspin_lock_timeout+0x6c>
f0003848:	e1b01501 	lsls	r1, r1, #10
f000384c:	1a000002 	bne	f000385c <hwspin_lock_timeout+0x44>
f0003850:	ea000006 	b	f0003870 <hwspin_lock_timeout+0x58>
f0003854:	e2511001 	subs	r1, r1, #1
f0003858:	0a000004 	beq	f0003870 <hwspin_lock_timeout+0x58>
f000385c:	e5923000 	ldr	r3, [r2]
f0003860:	e3530001 	cmp	r3, #1
f0003864:	0afffffa 	beq	f0003854 <hwspin_lock_timeout+0x3c>
f0003868:	e3a00000 	mov	r0, #0
f000386c:	e8bd8008 	pop	{r3, pc}
f0003870:	e121f00c 	msr	CPSR_c, ip
f0003874:	e59f0014 	ldr	r0, [pc, #20]	; f0003890 <hwspin_lock_timeout+0x78>
f0003878:	ebfffa24 	bl	f0002110 <printk>
f000387c:	e3e00000 	mvn	r0, #0
f0003880:	e8bd8008 	pop	{r3, pc}
f0003884:	e3a00000 	mov	r0, #0
f0003888:	e8bd8008 	pop	{r3, pc}
f000388c:	f0003ec0 			; <UNDEFINED> instruction: 0xf0003ec0
f0003890:	f0003c20 			; <UNDEFINED> instruction: 0xf0003c20

f0003894 <hwspin_unlock>:
f0003894:	e3063040 	movw	r3, #24640	; 0x6040
f0003898:	e3032ec0 	movw	r2, #16064	; 0x3ec0
f000389c:	e3433c70 	movt	r3, #15472	; 0x3c70
f00038a0:	e3a01000 	mov	r1, #0
f00038a4:	e0803003 	add	r3, r0, r3
f00038a8:	e34f2000 	movt	r2, #61440	; 0xf000
f00038ac:	e1a03103 	lsl	r3, r3, #2
f00038b0:	e5922000 	ldr	r2, [r2]
f00038b4:	e5831000 	str	r1, [r3]
f00038b8:	e121f002 	msr	CPSR_c, r2
f00038bc:	e1a00001 	mov	r0, r1
f00038c0:	e12fff1e 	bx	lr

f00038c4 <hwspin_lock_timeout_nommu>:
f00038c4:	e10fc000 	mrs	ip, CPSR
f00038c8:	f10c0080 	cpsid	i
f00038cc:	e3062040 	movw	r2, #24640	; 0x6040
f00038d0:	e59f3054 	ldr	r3, [pc, #84]	; f000392c <hwspin_lock_timeout_nommu+0x68>
f00038d4:	e3402070 	movt	r2, #112	; 0x70
f00038d8:	e0802002 	add	r2, r0, r2
f00038dc:	e1a02102 	lsl	r2, r2, #2
f00038e0:	e583c000 	str	ip, [r3]
f00038e4:	e5923000 	ldr	r3, [r2]
f00038e8:	e3530001 	cmp	r3, #1
f00038ec:	1a00000c 	bne	f0003924 <hwspin_lock_timeout_nommu+0x60>
f00038f0:	e1b01501 	lsls	r1, r1, #10
f00038f4:	1a000002 	bne	f0003904 <hwspin_lock_timeout_nommu+0x40>
f00038f8:	ea000006 	b	f0003918 <hwspin_lock_timeout_nommu+0x54>
f00038fc:	e2511001 	subs	r1, r1, #1
f0003900:	0a000004 	beq	f0003918 <hwspin_lock_timeout_nommu+0x54>
f0003904:	e5923000 	ldr	r3, [r2]
f0003908:	e3530001 	cmp	r3, #1
f000390c:	0afffffa 	beq	f00038fc <hwspin_lock_timeout_nommu+0x38>
f0003910:	e3a00000 	mov	r0, #0
f0003914:	e12fff1e 	bx	lr
f0003918:	e121f00c 	msr	CPSR_c, ip
f000391c:	e3e00000 	mvn	r0, #0
f0003920:	e12fff1e 	bx	lr
f0003924:	e3a00000 	mov	r0, #0
f0003928:	e12fff1e 	bx	lr
f000392c:	f0003ec0 			; <UNDEFINED> instruction: 0xf0003ec0

f0003930 <hwspin_unlock_nommu>:
f0003930:	e3063040 	movw	r3, #24640	; 0x6040
f0003934:	e3032ec0 	movw	r2, #16064	; 0x3ec0
f0003938:	e3403070 	movt	r3, #112	; 0x70
f000393c:	e3a01000 	mov	r1, #0
f0003940:	e0803003 	add	r3, r0, r3
f0003944:	e34f2000 	movt	r2, #61440	; 0xf000
f0003948:	e1a03103 	lsl	r3, r3, #2
f000394c:	e5922000 	ldr	r2, [r2]
f0003950:	e5831000 	str	r1, [r3]
f0003954:	e121f002 	msr	CPSR_c, r2
f0003958:	e1a00001 	mov	r0, r1
f000395c:	e12fff1e 	bx	lr

f0003960 <axp20_ldo4_data>:
f0003960:	000004e2 	andeq	r0, r0, r2, ror #9
f0003964:	00000514 	andeq	r0, r0, r4, lsl r5
f0003968:	00000578 	andeq	r0, r0, r8, ror r5
f000396c:	000005dc 	ldrdeq	r0, [r0], -ip
f0003970:	00000640 	andeq	r0, r0, r0, asr #12
f0003974:	000006a4 	andeq	r0, r0, r4, lsr #13
f0003978:	00000708 	andeq	r0, r0, r8, lsl #14
f000397c:	0000076c 	andeq	r0, r0, ip, ror #14
f0003980:	000007d0 	ldrdeq	r0, [r0], -r0	; <UNPREDICTABLE>
f0003984:	000009c4 	andeq	r0, r0, r4, asr #19
f0003988:	00000a8c 	andeq	r0, r0, ip, lsl #21
f000398c:	00000af0 	strdeq	r0, [r0], -r0	; <UNPREDICTABLE>
f0003990:	00000bb8 			; <UNDEFINED> instruction: 0x00000bb8
f0003994:	00000c1c 	andeq	r0, r0, ip, lsl ip
f0003998:	00000c80 	andeq	r0, r0, r0, lsl #25
f000399c:	00000ce4 	andeq	r0, r0, r4, ror #25

f00039a0 <TWI_REG_BASE>:
f00039a0:	f1c2ac00 			; <UNDEFINED> instruction: 0xf1c2ac00
f00039a4:	f1c2b000 			; <UNDEFINED> instruction: 0xf1c2b000
f00039a8:	f1c2b400 			; <UNDEFINED> instruction: 0xf1c2b400

f00039ac <CSWTCH.9>:
f00039ac:	00000001 	andeq	r0, r0, r1
f00039b0:	00000002 	andeq	r0, r0, r2
f00039b4:	00000000 	andeq	r0, r0, r0
f00039b8:	00000003 	andeq	r0, r0, r3

f00039bc <CSWTCH.12>:
f00039bc:	00007d00 	andeq	r7, r0, r0, lsl #26
f00039c0:	016e3600 	cmneq	lr, r0, lsl #12
f00039c4:	47868c00 	strmi	r8, [r6, r0, lsl #24]

Disassembly of section .rodata.str1.4:

f00039c8 <.rodata.str1.4>:
f00039c8:	6d726f6e 	ldclvs	15, cr6, [r2, #-440]!	; 0xfffffe48
f00039cc:	73206c61 	teqvc	r0, #24832	; 0x6100
f00039d0:	646e6174 	strbtvs	r6, [lr], #-372	; 0x174
f00039d4:	77207962 	strvc	r7, [r0, -r2, ror #18]!
f00039d8:	75656b61 	strbvc	r6, [r5, #-2913]!	; 0xb61
f00039dc:	72732070 	rsbsvc	r2, r3, #112	; 0x70
f00039e0:	6f632063 	svcvs	0x00632063
f00039e4:	6769666e 	strbvs	r6, [r9, -lr, ror #12]!
f00039e8:	30203d20 	eorcc	r3, r0, r0, lsr #26
f00039ec:	2e782578 	mrccs	5, 3, r2, cr8, cr8, {3}
f00039f0:	00000a20 	andeq	r0, r0, r0, lsr #20
f00039f4:	20657375 	rsbcs	r7, r5, r5, ror r3
f00039f8:	65747865 	ldrbvs	r7, [r4, #-2149]!	; 0x865
f00039fc:	6465646e 	strbtvs	r6, [r5], #-1134	; 0x46e
f0003a00:	6174735f 	cmnvs	r4, pc, asr r3
f0003a04:	7962646e 	stmdbvc	r2!, {r1, r2, r3, r5, r6, sl, sp, lr}^
f0003a08:	67666320 	strbvs	r6, [r6, -r0, lsr #6]!
f0003a0c:	00000a2e 	andeq	r0, r0, lr, lsr #20
f0003a10:	31667830 	cmncc	r6, r0, lsr r8
f0003a14:	30303263 	eorscc	r3, r0, r3, ror #4
f0003a18:	76203035 			; <UNDEFINED> instruction: 0x76203035
f0003a1c:	65756c61 	ldrbvs	r6, [r5, #-3169]!	; 0xc61
f0003a20:	7830203a 	ldmdavc	r0!, {r1, r3, r4, r5, sp}
f0003a24:	202e7825 	eorcs	r7, lr, r5, lsr #16
f0003a28:	0000000a 	andeq	r0, r0, sl
f0003a2c:	31667830 	cmncc	r6, r0, lsr r8
f0003a30:	30303263 	eorscc	r3, r0, r3, ror #4
f0003a34:	76203030 			; <UNDEFINED> instruction: 0x76203030
f0003a38:	65756c61 	ldrbvs	r6, [r5, #-3169]!	; 0xc61
f0003a3c:	7830203a 	ldmdavc	r0!, {r1, r3, r4, r5, sp}
f0003a40:	202e7825 	eorcs	r7, lr, r5, lsr #16
f0003a44:	0000000a 	andeq	r0, r0, sl
f0003a48:	3d3d3d3d 	ldccc	13, cr3, [sp, #-244]!	; 0xffffff0c
f0003a4c:	3d3d3d3d 	ldccc	13, cr3, [sp, #-244]!	; 0xffffff0c
f0003a50:	3d3d3d3d 	ldccc	13, cr3, [sp, #-244]!	; 0xffffff0c
f0003a54:	3d3d3d3d 	ldccc	13, cr3, [sp, #-244]!	; 0xffffff0c
f0003a58:	3d3d3d3d 	ldccc	13, cr3, [sp, #-244]!	; 0xffffff0c
f0003a5c:	3d3d3d3d 	ldccc	13, cr3, [sp, #-244]!	; 0xffffff0c
f0003a60:	3d3d3d3d 	ldccc	13, cr3, [sp, #-244]!	; 0xffffff0c
f0003a64:	544f4e3d 	strbpl	r4, [pc], #-3645	; f0003a6c <CSWTCH.12+0xb0>
f0003a68:	3d454349 	stclcc	3, cr4, [r5, #-292]	; 0xfffffedc
f0003a6c:	3d3d3d3d 	ldccc	13, cr3, [sp, #-244]!	; 0xffffff0c
f0003a70:	3d3d3d3d 	ldccc	13, cr3, [sp, #-244]!	; 0xffffff0c
f0003a74:	3d3d3d3d 	ldccc	13, cr3, [sp, #-244]!	; 0xffffff0c
f0003a78:	3d3d3d3d 	ldccc	13, cr3, [sp, #-244]!	; 0xffffff0c
f0003a7c:	3d3d3d3d 	ldccc	13, cr3, [sp, #-244]!	; 0xffffff0c
f0003a80:	3d3d3d3d 	ldccc	13, cr3, [sp, #-244]!	; 0xffffff0c
f0003a84:	3d3d3d3d 	ldccc	13, cr3, [sp, #-244]!	; 0xffffff0c
f0003a88:	3d3d3d3d 	ldccc	13, cr3, [sp, #-244]!	; 0xffffff0c
f0003a8c:	2e3d3d3d 	mrccs	13, 1, r3, cr13, cr13, {1}
f0003a90:	00000a20 	andeq	r0, r0, r0, lsr #20
f0003a94:	61635f64 	cmnvs	r3, r4, ror #30
f0003a98:	5f656863 	svcpl	0x00656863
f0003a9c:	7373696d 	cmnvc	r3, #1785856	; 0x1b4000
f0003aa0:	6174735f 	cmnvs	r4, pc, asr r3
f0003aa4:	3d207472 	cfstrscc	mvf7, [r0, #-456]!	; 0xfffffe38
f0003aa8:	2c642520 	cfstr64cs	mvdx2, [r4], #-128	; 0xffffff80
f0003aac:	635f6420 	cmpvs	pc, #536870912	; 0x20000000
f0003ab0:	65686361 	strbvs	r6, [r8, #-865]!	; 0x361
f0003ab4:	73696d5f 	cmnvc	r9, #6080	; 0x17c0
f0003ab8:	6e655f73 	mcrvs	15, 3, r5, cr5, cr3, {3}
f0003abc:	25203d64 	strcs	r3, [r0, #-3428]!	; 0xd64
f0003ac0:	0a202e64 	beq	f080f458 <__bss_end+0x80b358>
f0003ac4:	00000000 	andeq	r0, r0, r0
f0003ac8:	6c745f64 	ldclvs	15, cr5, [r4], #-400	; 0xfffffe70
f0003acc:	696d5f62 	stmdbvs	sp!, {r1, r5, r6, r8, r9, sl, fp, ip, lr}^
f0003ad0:	735f7373 	cmpvc	pc, #-872415231	; 0xcc000001
f0003ad4:	74726174 	ldrbtvc	r6, [r2], #-372	; 0x174
f0003ad8:	25203d20 	strcs	r3, [r0, #-3360]!	; 0xd20
f0003adc:	64202c64 	strtvs	r2, [r0], #-3172	; 0xc64
f0003ae0:	626c745f 	rsbvs	r7, ip, #1593835520	; 0x5f000000
f0003ae4:	73696d5f 	cmnvc	r9, #6080	; 0x17c0
f0003ae8:	6e655f73 	mcrvs	15, 3, r5, cr5, cr3, {3}
f0003aec:	25203d64 	strcs	r3, [r0, #-3428]!	; 0xd64
f0003af0:	0a202e64 	beq	f080f488 <__bss_end+0x80b388>
f0003af4:	00000000 	andeq	r0, r0, r0
f0003af8:	61635f69 	cmnvs	r3, r9, ror #30
f0003afc:	5f656863 	svcpl	0x00656863
f0003b00:	7373696d 	cmnvc	r3, #1785856	; 0x1b4000
f0003b04:	6174735f 	cmnvs	r4, pc, asr r3
f0003b08:	3d207472 	cfstrscc	mvf7, [r0, #-456]!	; 0xfffffe38
f0003b0c:	2c642520 	cfstr64cs	mvdx2, [r4], #-128	; 0xffffff80
f0003b10:	635f6920 	cmpvs	pc, #524288	; 0x80000
f0003b14:	65686361 	strbvs	r6, [r8, #-865]!	; 0x361
f0003b18:	73696d5f 	cmnvc	r9, #6080	; 0x17c0
f0003b1c:	6e655f73 	mcrvs	15, 3, r5, cr5, cr3, {3}
f0003b20:	25203d64 	strcs	r3, [r0, #-3428]!	; 0xd64
f0003b24:	0a202e64 	beq	f080f4bc <__bss_end+0x80b3bc>
f0003b28:	00000000 	andeq	r0, r0, r0
f0003b2c:	6c745f69 	ldclvs	15, cr5, [r4], #-420	; 0xfffffe5c
f0003b30:	696d5f62 	stmdbvs	sp!, {r1, r5, r6, r8, r9, sl, fp, ip, lr}^
f0003b34:	735f7373 	cmpvc	pc, #-872415231	; 0xcc000001
f0003b38:	74726174 	ldrbtvc	r6, [r2], #-372	; 0x174
f0003b3c:	25203d20 	strcs	r3, [r0, #-3360]!	; 0xd20
f0003b40:	69202c64 	stmdbvs	r0!, {r2, r5, r6, sl, fp, sp}
f0003b44:	626c745f 	rsbvs	r7, ip, #1593835520	; 0x5f000000
f0003b48:	73696d5f 	cmnvc	r9, #6080	; 0x17c0
f0003b4c:	6e655f73 	mcrvs	15, 3, r5, cr5, cr3, {3}
f0003b50:	25203d64 	strcs	r3, [r0, #-3428]!	; 0xd64
f0003b54:	0a202e64 	beq	f080f4ec <__bss_end+0x80b3ec>
f0003b58:	00000000 	andeq	r0, r0, r0
f0003b5c:	6d206f6e 	stcvs	15, cr6, [r0, #-440]!	; 0xfffffe48
f0003b60:	2e737369 	cdpcs	3, 7, cr7, cr3, cr9, {3}
f0003b64:	00000a20 	andeq	r0, r0, r0, lsr #20
f0003b68:	65746661 	ldrbvs	r6, [r4, #-1633]!	; 0x661
f0003b6c:	656d2072 	strbvs	r2, [sp, #-114]!	; 0x72
f0003b70:	6d745f6d 	ldclvs	15, cr5, [r4, #-436]!	; 0xfffffe4c
f0003b74:	69645f72 	stmdbvs	r4!, {r1, r4, r5, r6, r8, r9, sl, fp, ip, lr}^
f0003b78:	6c626173 	stfvse	f6, [r2], #-460	; 0xfffffe34
f0003b7c:	61775f65 	cmnvs	r7, r5, ror #30
f0003b80:	64686374 	strbtvs	r6, [r8], #-884	; 0x374
f0003b84:	202e676f 	eorcs	r6, lr, pc, ror #14
f0003b88:	0000000a 	andeq	r0, r0, sl
f0003b8c:	65776f70 	ldrbvs	r6, [r7, #-3952]!	; 0xf70
f0003b90:	72742072 	rsbsvc	r2, r4, #114	; 0x72
f0003b94:	25206565 	strcs	r6, [r0, #-1381]!	; 0x565
f0003b98:	61762064 	cmnvs	r6, r4, rrx
f0003b9c:	2065756c 	rsbcs	r7, r5, ip, ror #10
f0003ba0:	30207369 	eorcc	r7, r0, r9, ror #6
f0003ba4:	0000000a 	andeq	r0, r0, sl
f0003ba8:	72646461 	rsbvc	r6, r4, #1627389952	; 0x61000000
f0003bac:	2c782520 	cfldr64cs	mvdx2, [r8], #-128	; 0xffffff80
f0003bb0:	6c617620 	stclvs	6, cr7, [r1], #-128	; 0xffffff80
f0003bb4:	3d206575 	cfstr32cc	mvfx6, [r0, #-468]!	; 0xfffffe2c
f0003bb8:	2e782520 	cdpcs	5, 7, cr2, cr8, cr0, {1}
f0003bbc:	00000a20 	andeq	r0, r0, r0, lsr #20
f0003bc0:	33323130 	teqcc	r2, #12
f0003bc4:	37363534 			; <UNDEFINED> instruction: 0x37363534
f0003bc8:	42413938 	submi	r3, r1, #917504	; 0xe0000
f0003bcc:	46454443 	strbmi	r4, [r5], -r3, asr #8
f0003bd0:	00000000 	andeq	r0, r0, r0
f0003bd4:	20202020 	eorcs	r2, r0, r0, lsr #32
f0003bd8:	20202020 	eorcs	r2, r0, r0, lsr #32
f0003bdc:	20202020 	eorcs	r2, r0, r0, lsr #32
f0003be0:	20202020 	eorcs	r2, r0, r0, lsr #32
f0003be4:	00000000 	andeq	r0, r0, r0
f0003be8:	65747441 	ldrbvs	r7, [r4, #-1089]!	; 0x441
f0003bec:	6974706d 	ldmdbvs	r4!, {r0, r2, r3, r5, r6, ip, sp, lr}^
f0003bf0:	6420676e 	strtvs	r6, [r0], #-1902	; 0x76e
f0003bf4:	73697669 	cmnvc	r9, #110100480	; 0x6900000
f0003bf8:	206e6f69 	rsbcs	r6, lr, r9, ror #30
f0003bfc:	30207962 	eorcc	r7, r0, r2, ror #18
f0003c00:	00000021 	andeq	r0, r0, r1, lsr #32
f0003c04:	69746f6e 	ldmdbvs	r4!, {r1, r2, r3, r5, r6, r8, r9, sl, fp, sp, lr}^
f0003c08:	203a6563 	eorscs	r6, sl, r3, ror #10
f0003c0c:	20636967 	rsbcs	r6, r3, r7, ror #18
f0003c10:	20726169 	rsbscs	r6, r2, r9, ror #2
f0003c14:	30203d3d 	eorcc	r3, r0, sp, lsr sp
f0003c18:	2e782578 	mrccs	5, 3, r2, cr8, cr8, {3}
f0003c1c:	00000a20 	andeq	r0, r0, r0, lsr #20
f0003c20:	656b6174 	strbvs	r6, [fp, #-372]!	; 0x174
f0003c24:	73776820 	cmnvc	r7, #2097152	; 0x200000
f0003c28:	6c6e6970 	stclvs	9, cr6, [lr], #-448	; 0xfffffe40
f0003c2c:	206b636f 	rsbcs	r6, fp, pc, ror #6
f0003c30:	656d6974 	strbvs	r6, [sp, #-2420]!	; 0x974
f0003c34:	0a74756f 	beq	f1d211f8 <__bss_end+0x1d1d0f8>
f0003c38:	00000000 	andeq	r0, r0, r0

Disassembly of section .data:

f0003c3c <axp20_info>:
f0003c3c:	00000002 	andeq	r0, r0, r2
f0003c40:	00000514 	andeq	r0, r0, r4, lsl r5
f0003c44:	00000514 	andeq	r0, r0, r4, lsl r5
	...
f0003c58:	00000003 	andeq	r0, r0, r3
f0003c5c:	00000708 	andeq	r0, r0, r8, lsl #14
f0003c60:	00000ce4 	andeq	r0, r0, r4, ror #25
f0003c64:	00000064 	andeq	r0, r0, r4, rrx
f0003c68:	00000028 	andeq	r0, r0, r8, lsr #32
f0003c6c:	00000004 	andeq	r0, r0, r4
f0003c70:	00000004 	andeq	r0, r0, r4
f0003c74:	00000004 	andeq	r0, r0, r4
f0003c78:	000002bc 			; <UNDEFINED> instruction: 0x000002bc
f0003c7c:	00000dac 	andeq	r0, r0, ip, lsr #27
f0003c80:	00000019 	andeq	r0, r0, r9, lsl r0
f0003c84:	00000029 	andeq	r0, r0, r9, lsr #32
f0003c88:	00000000 	andeq	r0, r0, r0
f0003c8c:	00000007 	andeq	r0, r0, r7
f0003c90:	00000005 	andeq	r0, r0, r5
f0003c94:	000004e2 	andeq	r0, r0, r2, ror #9
f0003c98:	00000ce4 	andeq	r0, r0, r4, ror #25
f0003c9c:	00000064 	andeq	r0, r0, r4, rrx
f0003ca0:	00000028 	andeq	r0, r0, r8, lsr #32
f0003ca4:	00000000 	andeq	r0, r0, r0
f0003ca8:	00000004 	andeq	r0, r0, r4
f0003cac:	00000000 	andeq	r0, r0, r0
f0003cb0:	000002bc 			; <UNDEFINED> instruction: 0x000002bc
f0003cb4:	000008e3 	andeq	r0, r0, r3, ror #17
f0003cb8:	00000019 	andeq	r0, r0, r9, lsl r0
f0003cbc:	00000023 	andeq	r0, r0, r3, lsr #32
f0003cc0:	00000000 	andeq	r0, r0, r0
f0003cc4:	00000006 	andeq	r0, r0, r6
f0003cc8:	00000001 	andeq	r0, r0, r1
f0003ccc:	000002bc 			; <UNDEFINED> instruction: 0x000002bc
f0003cd0:	00000dac 	andeq	r0, r0, ip, lsr #27
f0003cd4:	00000019 	andeq	r0, r0, r9, lsl r0
f0003cd8:	00000027 	andeq	r0, r0, r7, lsr #32
f0003cdc:	00000000 	andeq	r0, r0, r0
f0003ce0:	00000007 	andeq	r0, r0, r7

f0003ce4 <arisc_sram_a2_vbase>:
f0003ce4:	f0040000 			; <UNDEFINED> instruction: 0xf0040000

Disassembly of section .bss:

f0003ce8 <sp_backup>:
f0003ce8:	00000000 	andeq	r0, r0, r0

f0003cec <d_cache_miss_start>:
f0003cec:	00000000 	andeq	r0, r0, r0

f0003cf0 <d_tlb_miss_start>:
f0003cf0:	00000000 	andeq	r0, r0, r0

f0003cf4 <i_tlb_miss_start>:
f0003cf4:	00000000 	andeq	r0, r0, r0

f0003cf8 <i_cache_miss_start>:
f0003cf8:	00000000 	andeq	r0, r0, r0

f0003cfc <d_cache_miss_end>:
f0003cfc:	00000000 	andeq	r0, r0, r0

f0003d00 <d_tlb_miss_end>:
f0003d00:	00000000 	andeq	r0, r0, r0

f0003d04 <i_tlb_miss_end>:
f0003d04:	00000000 	andeq	r0, r0, r0

f0003d08 <i_cache_miss_end>:
f0003d08:	00000000 	andeq	r0, r0, r0

f0003d0c <r_prcm>:
f0003d0c:	00000000 	andeq	r0, r0, r0

f0003d10 <CmuReg>:
f0003d10:	00000000 	andeq	r0, r0, r0

f0003d14 <CmuReg_SysClkDiv_tmp>:
f0003d14:	00000000 	andeq	r0, r0, r0

f0003d18 <CmuReg_Pll1Ctl_tmp>:
f0003d18:	00000000 	andeq	r0, r0, r0

f0003d1c <KeyReg>:
f0003d1c:	00000000 	andeq	r0, r0, r0

f0003d20 <KeyCtrl>:
f0003d20:	00000000 	andeq	r0, r0, r0

f0003d24 <KeyIntc>:
f0003d24:	00000000 	andeq	r0, r0, r0

f0003d28 <axp209_volt_data>:
	...

f0003d40 <twi_reg>:
f0003d40:	00000000 	andeq	r0, r0, r0

f0003d44 <TwiClkRegBak>:
f0003d44:	00000000 	andeq	r0, r0, r0

f0003d48 <TwiCtlRegBak>:
f0003d48:	00000000 	andeq	r0, r0, r0

f0003d4c <status_reg>:
f0003d4c:	00000000 	andeq	r0, r0, r0

f0003d50 <status_reg_pa>:
f0003d50:	00000000 	andeq	r0, r0, r0

f0003d54 <status_reg_tmp>:
f0003d54:	00000000 	andeq	r0, r0, r0

f0003d58 <status_reg_pa_tmp>:
f0003d58:	00000000 	andeq	r0, r0, r0

f0003d5c <print_flag>:
f0003d5c:	00000000 	andeq	r0, r0, r0

f0003d60 <backup_perf_counter_ctrl_reg>:
f0003d60:	00000000 	andeq	r0, r0, r0

f0003d64 <backup_perf_counter_enable_reg>:
f0003d64:	00000000 	andeq	r0, r0, r0

f0003d68 <overhead>:
f0003d68:	00000000 	andeq	r0, r0, r0

f0003d6c <cpu_freq>:
f0003d6c:	00000000 	andeq	r0, r0, r0

f0003d70 <backup_gpio_uart>:
f0003d70:	00000000 	andeq	r0, r0, r0

f0003d74 <backup_ccu_uart>:
f0003d74:	00000000 	andeq	r0, r0, r0

f0003d78 <backup_ccu_uart_reset>:
f0003d78:	00000000 	andeq	r0, r0, r0

f0003d7c <backup_port_id>:
f0003d7c:	00000000 	andeq	r0, r0, r0

f0003d80 <serial_inited_flag>:
f0003d80:	00000000 	andeq	r0, r0, r0

f0003d84 <debugger_buffer>:
	...

f0003e84 <GicDDisc>:
f0003e84:	00000000 	andeq	r0, r0, r0

f0003e88 <GicCDisc>:
f0003e88:	00000000 	andeq	r0, r0, r0

f0003e8c <gpio_clk_inited.2452>:
f0003e8c:	00000000 	andeq	r0, r0, r0

f0003e90 <TmrReg>:
f0003e90:	00000000 	andeq	r0, r0, r0

f0003e94 <WatchDog1_Config_Reg_Bak>:
f0003e94:	00000000 	andeq	r0, r0, r0

f0003e98 <WatchDog1_Mod_Reg_Bak>:
f0003e98:	00000000 	andeq	r0, r0, r0

f0003e9c <WatchDog1_Irq_En_Bak>:
f0003e9c:	00000000 	andeq	r0, r0, r0

f0003ea0 <TmstmpReg>:
f0003ea0:	00000000 	andeq	r0, r0, r0

f0003ea4 <CmuReg>:
f0003ea4:	00000000 	andeq	r0, r0, r0

f0003ea8 <CmuReg_SysClkDiv_tmp>:
f0003ea8:	00000000 	andeq	r0, r0, r0

f0003eac <CmuReg_Pll1Ctl_tmp>:
f0003eac:	00000000 	andeq	r0, r0, r0

f0003eb0 <wakeup_event>:
f0003eb0:	00000000 	andeq	r0, r0, r0

f0003eb4 <restore_completed>:
f0003eb4:	00000000 	andeq	r0, r0, r0

f0003eb8 <message_start>:
f0003eb8:	00000000 	andeq	r0, r0, r0

f0003ebc <message_end>:
f0003ebc:	00000000 	andeq	r0, r0, r0

f0003ec0 <cpsr_backup>:
f0003ec0:	00000000 	andeq	r0, r0, r0

f0003ec4 <extended_standby_para_info>:
	...

f0004088 <power_regu_tree>:
	...

f00040c4 <pm_info>:
	...

f00040ec <normal_standby_para_info>:
	...

Disassembly of section .debug_info:

00000000 <.debug_info>:
       0:	000008a3 	andeq	r0, r0, r3, lsr #17
       4:	00000002 	andeq	r0, r0, r2
       8:	01040000 	mrseq	r0, (UNDEF: 4)
       c:	000003fd 	strdeq	r0, [r0], -sp
      10:	00067d01 	andeq	r7, r6, r1, lsl #26
      14:	00053500 	andeq	r3, r5, r0, lsl #10
      18:	00000000 	andeq	r0, r0, r0
      1c:	0003dcf0 	strdeq	sp, [r3], -r0
      20:	000000f0 	strdeq	r0, [r0], -r0	; <UNPREDICTABLE>
      24:	06010200 	streq	r0, [r1], -r0, lsl #4
      28:	000007af 	andeq	r0, r0, pc, lsr #15
      2c:	ad080102 	stfges	f0, [r8, #-8]
      30:	02000007 	andeq	r0, r0, #7
      34:	06680502 	strbteq	r0, [r8], -r2, lsl #10
      38:	02020000 	andeq	r0, r2, #0
      3c:	00087f07 	andeq	r7, r8, r7, lsl #30
      40:	05040300 	streq	r0, [r4, #-768]	; 0x300
      44:	00746e69 	rsbseq	r6, r4, r9, ror #28
      48:	00044304 	andeq	r4, r4, r4, lsl #6
      4c:	53130600 	tstpl	r3, #0
      50:	02000000 	andeq	r0, r0, #0
      54:	02540704 	subseq	r0, r4, #1048576	; 0x100000
      58:	08020000 	stmdaeq	r2, {}	; <UNPREDICTABLE>
      5c:	00047d05 	andeq	r7, r4, r5, lsl #26
      60:	07080200 	streq	r0, [r8, -r0, lsl #4]
      64:	0000024a 	andeq	r0, r0, sl, asr #4
      68:	00026e05 	andeq	r6, r2, r5, lsl #28
      6c:	14020400 	strne	r0, [r2], #-1024	; 0x400
      70:	0000008d 	andeq	r0, r0, sp, lsl #1
      74:	00000006 	andeq	r0, r0, r6
      78:	2a060100 	bcs	180480 <__standby_start+0x180480>
      7c:	02000005 	andeq	r0, r0, #5
      80:	00026106 	andeq	r6, r2, r6, lsl #2
      84:	88060300 	stmdahi	r6, {r8, r9}
      88:	05000002 	streq	r0, [r0, #-2]
      8c:	06550500 	ldrbeq	r0, [r5], -r0, lsl #10
      90:	03040000 	movweq	r0, #16384	; 0x4000
      94:	00013e18 	andeq	r3, r1, r8, lsl lr
      98:	01d30600 	bicseq	r0, r3, r0, lsl #12
      9c:	06320000 	ldrteq	r0, [r2], -r0
      a0:	000001e5 	andeq	r0, r0, r5, ror #3
      a4:	06150633 			; <UNDEFINED> instruction: 0x06150633
      a8:	06000000 	streq	r0, [r0], -r0
      ac:	000006c8 	andeq	r0, r0, r8, asr #13
      b0:	310600ca 	smlabtcc	r6, sl, r0, r0
      b4:	c0000002 	andgt	r0, r0, r2
      b8:	05c80600 	strbeq	r0, [r8, #1536]	; 0x600
      bc:	00d10000 	sbcseq	r0, r1, r0
      c0:	00000d06 	andeq	r0, r0, r6, lsl #26
      c4:	cb060000 	blgt	1800cc <__standby_start+0x1800cc>
      c8:	00000002 	andeq	r0, r0, r2
      cc:	0002da06 	andeq	sp, r2, r6, lsl #20
      d0:	be060000 	cdplt	0, 0, cr0, cr6, cr0, {0}
      d4:	e7000000 	str	r0, [r0, -r0]
      d8:	04d50600 	ldrbeq	r0, [r5], #1536	; 0x600
      dc:	00e80000 	rsceq	r0, r8, r0
      e0:	0004e906 	andeq	lr, r4, r6, lsl #18
      e4:	0600ea00 	streq	lr, [r0], -r0, lsl #20
      e8:	000004fd 	strdeq	r0, [r0], -sp
      ec:	003d0600 	eorseq	r0, sp, r0, lsl #12
      f0:	00e90000 	rsceq	r0, r9, r0
      f4:	00005106 	andeq	r5, r0, r6, lsl #2
      f8:	65060000 	strvs	r0, [r6, #-0]
      fc:	00000000 	andeq	r0, r0, r0
     100:	00011306 	andeq	r1, r1, r6, lsl #6
     104:	24060000 	strcs	r0, [r6], #-0
     108:	2f000001 	svccs	0x00000001
     10c:	00013506 	andeq	r3, r1, r6, lsl #10
     110:	46060000 	strmi	r0, [r6], -r0
     114:	00000001 	andeq	r0, r0, r1
     118:	00015706 	andeq	r5, r1, r6, lsl #14
     11c:	68060000 	stmdavs	r6, {}	; <UNPREDICTABLE>
     120:	00000001 	andeq	r0, r0, r1
     124:	00017906 	andeq	r7, r1, r6, lsl #18
     128:	8a063100 	bhi	18c530 <__standby_start+0x18c530>
     12c:	84000001 	strhi	r0, [r0], #-1
     130:	019b0601 	orrseq	r0, fp, r1, lsl #12
     134:	06000000 	streq	r0, [r0], -r0
     138:	000001ac 	andeq	r0, r0, ip, lsr #3
     13c:	77050000 	strvc	r0, [r5, -r0]
     140:	04000008 	streq	r0, [r0], #-8
     144:	01ab8904 			; <UNDEFINED> instruction: 0x01ab8904
     148:	af060000 	svcge	0x00060000
     14c:	00000006 	andeq	r0, r0, r6
     150:	00033d06 	andeq	r3, r3, r6, lsl #26
     154:	68060100 	stmdavs	r6, {r8}
     158:	02000007 	andeq	r0, r0, #7
     15c:	00033106 	andeq	r3, r3, r6, lsl #2
     160:	37060300 	strcc	r0, [r6, -r0, lsl #6]
     164:	04000004 	streq	r0, [r0], #-4
     168:	0006bc06 	andeq	fp, r6, r6, lsl #24
     16c:	f0060500 			; <UNDEFINED> instruction: 0xf0060500
     170:	06000003 	streq	r0, [r0], -r3
     174:	00086106 	andeq	r6, r8, r6, lsl #2
     178:	6a060700 	bvs	181d80 <__standby_start+0x181d80>
     17c:	08000004 	stmdaeq	r0, {r2}
     180:	00090206 	andeq	r0, r9, r6, lsl #4
     184:	4a060900 	bmi	18258c <__standby_start+0x18258c>
     188:	0a000006 	beq	1a8 <__standby_start+0x1a8>
     18c:	00067206 	andeq	r7, r6, r6, lsl #4
     190:	71060b00 	tstvc	r6, r0, lsl #22
     194:	0c000008 	stceq	0, cr0, [r0], {8}
     198:	0007c206 	andeq	ip, r7, r6, lsl #4
     19c:	29060d00 	stmdbcs	r6, {r8, sl, fp}
     1a0:	0e000006 	cdpeq	0, 0, cr0, cr0, cr6, {0}
     1a4:	00080006 	andeq	r0, r8, r6
     1a8:	02000f00 	andeq	r0, r0, #0
     1ac:	07b60801 	ldreq	r0, [r6, r1, lsl #16]!
     1b0:	0c070000 	stceq	0, cr0, [r7], {-0}
     1b4:	10000003 	andne	r0, r0, r3
     1b8:	01f76805 	mvnseq	r6, r5, lsl #16
     1bc:	49080000 	stmdbmi	r8, {}	; <UNPREDICTABLE>
     1c0:	05000004 	streq	r0, [r0, #-4]
     1c4:	00005369 	andeq	r5, r0, r9, ror #6
     1c8:	00230200 	eoreq	r0, r3, r0, lsl #4
     1cc:	00007908 	andeq	r7, r0, r8, lsl #18
     1d0:	536a0500 	cmnpl	sl, #0
     1d4:	02000000 	andeq	r0, r0, #0
     1d8:	81080423 	tsthi	r8, r3, lsr #8
     1dc:	05000000 	streq	r0, [r0, #-0]
     1e0:	0000536b 	andeq	r5, r0, fp, ror #6
     1e4:	08230200 	stmdaeq	r3!, {r9}
     1e8:	00008908 	andeq	r8, r0, r8, lsl #18
     1ec:	536c0500 	cmnpl	ip, #0
     1f0:	02000000 	andeq	r0, r0, #0
     1f4:	04000c23 	streq	r0, [r0], #-3107	; 0xc23
     1f8:	00000635 	andeq	r0, r0, r5, lsr r6
     1fc:	01b26d05 			; <UNDEFINED> instruction: 0x01b26d05
     200:	11070000 	mrsne	r0, (UNDEF: 7)
     204:	14000005 	strne	r0, [r0], #-5
     208:	02517705 	subseq	r7, r1, #1310720	; 0x140000
     20c:	73090000 	movwvc	r0, #36864	; 0x9000
     210:	05006372 	streq	r6, [r0, #-882]	; 0x372
     214:	00005378 	andeq	r5, r0, r8, ror r3
     218:	00230200 	eoreq	r0, r3, r0, lsl #4
     21c:	00039508 	andeq	r9, r3, r8, lsl #10
     220:	53790500 	cmnpl	r9, #0
     224:	02000000 	andeq	r0, r0, #0
     228:	da080423 	ble	2012bc <__standby_start+0x2012bc>
     22c:	05000003 	streq	r0, [r0, #-3]
     230:	0000537a 	andeq	r5, r0, sl, ror r3
     234:	08230200 	stmdaeq	r3!, {r9}
     238:	05006e09 	streq	r6, [r0, #-3593]	; 0xe09
     23c:	0000537b 	andeq	r5, r0, fp, ror r3
     240:	0c230200 	sfmeq	f0, 4, [r3], #-0
     244:	05006d09 	streq	r6, [r0, #-3337]	; 0xd09
     248:	0000537c 	andeq	r5, r0, ip, ror r3
     24c:	10230200 	eorne	r0, r3, r0, lsl #4
     250:	03010400 	movweq	r0, #5120	; 0x1400
     254:	7d050000 	stcvc	0, cr0, [r5, #-0]
     258:	00000202 	andeq	r0, r0, r2, lsl #4
     25c:	0005e707 	andeq	lr, r5, r7, lsl #14
     260:	c0052800 	andgt	r2, r5, r0, lsl #16
     264:	00000293 	muleq	r0, r3, r2
     268:	00058d08 	andeq	r8, r5, r8, lsl #26
     26c:	53c60500 	bicpl	r0, r6, #0
     270:	02000000 	andeq	r0, r0, #0
     274:	0a080023 	beq	200308 <__standby_start+0x200308>
     278:	05000001 	streq	r0, [r0, #-1]
     27c:	000053c7 	andeq	r5, r0, r7, asr #7
     280:	04230200 	strteq	r0, [r3], #-512	; 0x200
     284:	0013b408 	andseq	fp, r3, r8, lsl #8
     288:	93d20500 	bicsls	r0, r2, #0
     28c:	02000002 	andeq	r0, r0, #2
     290:	0a000823 	beq	2324 <__standby_start+0x2324>
     294:	0000003a 	andeq	r0, r0, sl, lsr r0
     298:	000002a3 	andeq	r0, r0, r3, lsr #5
     29c:	0000530b 	andeq	r5, r0, fp, lsl #6
     2a0:	04000e00 	streq	r0, [r0], #-3584	; 0xe00
     2a4:	00000091 	muleq	r0, r1, r0
     2a8:	025cd305 	subseq	sp, ip, #335544320	; 0x14000000
     2ac:	42070000 	andmi	r0, r7, #0
     2b0:	10000007 	andne	r0, r0, r7
     2b4:	02f3d505 	rscseq	sp, r3, #20971520	; 0x1400000
     2b8:	f4080000 	vst4.8	{d0-d3}, [r8], r0
     2bc:	05000005 	streq	r0, [r0, #-5]
     2c0:	000053d6 	ldrdeq	r5, [r0], -r6
     2c4:	00230200 	eoreq	r0, r3, r0, lsl #4
     2c8:	00024308 	andeq	r4, r2, r8, lsl #6
     2cc:	53d70500 	bicspl	r0, r7, #0
     2d0:	02000000 	andeq	r0, r0, #0
     2d4:	0e080423 	cdpeq	4, 0, cr0, cr8, cr3, {1}
     2d8:	05000008 	streq	r0, [r0, #-8]
     2dc:	000053d8 	ldrdeq	r5, [r0], -r8
     2e0:	08230200 	stmdaeq	r3!, {r9}
     2e4:	0005db08 	andeq	sp, r5, r8, lsl #22
     2e8:	53d90500 	bicspl	r0, r9, #0
     2ec:	02000000 	andeq	r0, r0, #0
     2f0:	04000c23 	streq	r0, [r0], #-3107	; 0xc23
     2f4:	00000593 	muleq	r0, r3, r5
     2f8:	02aeda05 	adceq	sp, lr, #20480	; 0x5000
     2fc:	df070000 	svcle	0x00070000
     300:	0c000000 	stceq	0, cr0, [r0], {-0}
     304:	0335e005 	teqeq	r5, #5
     308:	19080000 	stmdbne	r8, {}	; <UNPREDICTABLE>
     30c:	05000002 	streq	r0, [r0, #-2]
     310:	000335e1 	andeq	r3, r3, r1, ror #11
     314:	00230200 	eoreq	r0, r3, r0, lsl #4
     318:	00057908 	andeq	r7, r5, r8, lsl #18
     31c:	53e20500 	mvnpl	r0, #0
     320:	02000000 	andeq	r0, r0, #0
     324:	16080423 	strne	r0, [r8], -r3, lsr #8
     328:	05000013 	streq	r0, [r0, #-19]
     32c:	000053e3 	andeq	r5, r0, r3, ror #7
     330:	08230200 	stmdaeq	r3!, {r9}
     334:	53040c00 	movwpl	r0, #19456	; 0x4c00
     338:	04000000 	streq	r0, [r0], #-0
     33c:	0000090d 	andeq	r0, r0, sp, lsl #18
     340:	02fee405 	rscseq	lr, lr, #83886080	; 0x5000000
     344:	e4070000 	str	r0, [r7], #-0
     348:	1c000003 	stcne	0, cr0, [r0], {3}
     34c:	036fe605 	cmneq	pc, #5242880	; 0x500000
     350:	c0080000 	andgt	r0, r8, r0
     354:	05000008 	streq	r0, [r0, #-8]
     358:	000053f0 	strdeq	r5, [r0], -r0
     35c:	00230200 	eoreq	r0, r3, r0, lsl #4
     360:	0007e708 	andeq	lr, r7, r8, lsl #14
     364:	6ff70500 	svcvs	0x00f70500
     368:	02000003 	andeq	r0, r0, #3
     36c:	0a000423 	beq	1400 <__standby_start+0x1400>
     370:	0000033b 	andeq	r0, r0, fp, lsr r3
     374:	0000037f 	andeq	r0, r0, pc, ror r3
     378:	0000530b 	andeq	r5, r0, fp, lsl #6
     37c:	04000100 	streq	r0, [r0], #-256	; 0x100
     380:	00000498 	muleq	r0, r8, r4
     384:	0346f805 	movteq	pc, #26629	; 0x6805	; <UNPREDICTABLE>
     388:	9f0d0000 	svcls	0x000d0000
     38c:	64000005 	strvs	r0, [r0], #-5
     390:	03fa0501 	mvnseq	r0, #4194304	; 0x400000
     394:	0e000004 	cdpeq	0, 0, cr0, cr0, cr4, {0}
     398:	000000b7 	strheq	r0, [r0], -r7
     39c:	41010105 	tstmi	r1, r5, lsl #2
     3a0:	02000000 	andeq	r0, r0, #0
     3a4:	e90e0023 	stmdb	lr, {r0, r1, r5}
     3a8:	05000002 	streq	r0, [r0, #-2]
     3ac:	0041010e 	subeq	r0, r1, lr, lsl #2
     3b0:	23020000 	movwcs	r0, #8192	; 0x2000
     3b4:	08180e04 	ldmdaeq	r8, {r2, r9, sl, fp}
     3b8:	14050000 	strne	r0, [r5], #-0
     3bc:	00004101 	andeq	r4, r0, r1, lsl #2
     3c0:	08230200 	stmdaeq	r3!, {r9}
     3c4:	00021f0e 	andeq	r1, r2, lr, lsl #30
     3c8:	01190500 	tsteq	r9, r0, lsl #10
     3cc:	00000041 	andeq	r0, r0, r1, asr #32
     3d0:	0e0c2302 	cdpeq	3, 0, cr2, cr12, cr2, {0}
     3d4:	000022d8 	ldrdeq	r2, [r0], -r8
     3d8:	03011f05 	movweq	r1, #7941	; 0x1f05
     3dc:	02000004 	andeq	r0, r0, #4
     3e0:	ca0e1023 	bgt	384474 <__standby_start+0x384474>
     3e4:	05000008 	streq	r0, [r0, #-8]
     3e8:	0041014d 	subeq	r0, r1, sp, asr #2
     3ec:	23030000 	movwcs	r0, #12288	; 0x3000
     3f0:	930e01c0 	movwls	r0, #57792	; 0xe1c0
     3f4:	05000002 	streq	r0, [r0, #-2]
     3f8:	04130153 	ldreq	r0, [r3], #-339	; 0x153
     3fc:	23030000 	movwcs	r0, #12288	; 0x3000
     400:	0a0001c4 	beq	b18 <__standby_start+0xb18>
     404:	000001f7 	strdeq	r0, [r0], -r7
     408:	00000413 	andeq	r0, r0, r3, lsl r4
     40c:	0000530b 	andeq	r5, r0, fp, lsl #6
     410:	0a000a00 	beq	2c18 <__standby_start+0x2c18>
     414:	00000251 	andeq	r0, r0, r1, asr r2
     418:	00000423 	andeq	r0, r0, r3, lsr #8
     41c:	0000530b 	andeq	r5, r0, fp, lsl #6
     420:	0f000700 	svceq	0x00000700
     424:	0000051a 	andeq	r0, r0, sl, lsl r5
     428:	8a015505 	bhi	55844 <__standby_start+0x55844>
     42c:	02000003 	andeq	r0, r0, #3
     430:	024f0704 	subeq	r0, pc, #1048576	; 0x100000
     434:	9f100000 	svcls	0x00100000
     438:	c4000002 	strgt	r0, [r0], #-2
     43c:	01640501 	cmneq	r4, r1, lsl #10
     440:	000004ad 	andeq	r0, r0, sp, lsr #9
     444:	00646911 	rsbeq	r6, r4, r1, lsl r9
     448:	2f016805 	svccs	0x00016805
     44c:	02000004 	andeq	r0, r0, #4
     450:	760e0023 	strvc	r0, [lr], -r3, lsr #32
     454:	05000004 	streq	r0, [r0, #-4]
     458:	00530169 	subseq	r0, r3, r9, ror #2
     45c:	23020000 	movwcs	r0, #8192	; 0x2000
     460:	022a0e04 	eoreq	r0, sl, #64	; 0x40
     464:	70050000 	andvc	r0, r5, r0
     468:	00005301 	andeq	r5, r0, r1, lsl #6
     46c:	08230200 	stmdaeq	r3!, {r9}
     470:	0005e30e 	andeq	lr, r5, lr, lsl #6
     474:	01730500 	cmneq	r3, r0, lsl #10
     478:	000002a3 	andeq	r0, r0, r3, lsr #5
     47c:	0e0c2302 	cdpeq	3, 0, cr2, cr12, cr2, {0}
     480:	000003c0 	andeq	r0, r0, r0, asr #7
     484:	f3017405 	vshl.u8	d7, d5, d1
     488:	02000002 	andeq	r0, r0, #2
     48c:	e30e3423 	movw	r3, #58403	; 0xe423
     490:	05000007 	streq	r0, [r0, #-7]
     494:	037f0175 	cmneq	pc, #1073741853	; 0x4000001d
     498:	23020000 	movwcs	r0, #8192	; 0x2000
     49c:	05840e44 	streq	r0, [r4, #3652]	; 0xe44
     4a0:	76050000 	strvc	r0, [r5], -r0
     4a4:	00042301 	andeq	r2, r4, r1, lsl #6
     4a8:	60230200 	eorvs	r0, r3, r0, lsl #4
     4ac:	07d00f00 	ldrbeq	r0, [r0, r0, lsl #30]
     4b0:	77050000 	strvc	r0, [r5, -r0]
     4b4:	00043601 	andeq	r3, r4, r1, lsl #12
     4b8:	ad040c00 	stcge	12, cr0, [r4, #-0]
     4bc:	12000004 	andne	r0, r0, #4
     4c0:	00000029 	andeq	r0, r0, r9, lsr #32
     4c4:	01f00514 	mvnseq	r0, r4, lsl r5
     4c8:	00000518 	andeq	r0, r0, r8, lsl r5
     4cc:	0016e80e 	andseq	lr, r6, lr, lsl #16
     4d0:	01f20500 	mvnseq	r0, r0, lsl #10
     4d4:	0000042f 	andeq	r0, r0, pc, lsr #8
     4d8:	0e002302 	cdpeq	3, 0, cr2, cr0, cr2, {0}
     4dc:	000026da 	ldrdeq	r2, [r0], -sl
     4e0:	2f01f305 	svccs	0x0001f305
     4e4:	02000004 	andeq	r0, r0, #4
     4e8:	a60e0423 	strge	r0, [lr], -r3, lsr #8
     4ec:	05000004 	streq	r0, [r0, #-4]
     4f0:	042f01f4 	strteq	r0, [pc], #-500	; 4f8 <__standby_start+0x4f8>
     4f4:	23020000 	movwcs	r0, #8192	; 0x2000
     4f8:	039d0e08 	orrseq	r0, sp, #128	; 0x80
     4fc:	f5050000 			; <UNDEFINED> instruction: 0xf5050000
     500:	00042f01 	andeq	r2, r4, r1, lsl #30
     504:	0c230200 	sfmeq	f0, 4, [r3], #-0
     508:	00029e0e 	andeq	r9, r2, lr, lsl #28
     50c:	01f60500 	mvnseq	r0, r0, lsl #10
     510:	000004b9 			; <UNDEFINED> instruction: 0x000004b9
     514:	00102302 	andseq	r2, r0, r2, lsl #6
     518:	00045112 	andeq	r5, r4, r2, lsl r1
     51c:	07050c00 	streq	r0, [r5, -r0, lsl #24]
     520:	00055302 	andeq	r5, r5, r2, lsl #6
     524:	06020e00 	streq	r0, [r2], -r0, lsl #28
     528:	08050000 	stmdaeq	r5, {}	; <UNPREDICTABLE>
     52c:	00005302 	andeq	r5, r0, r2, lsl #6
     530:	00230200 	eoreq	r0, r3, r0, lsl #4
     534:	0006a60e 	andeq	sl, r6, lr, lsl #12
     538:	02090500 	andeq	r0, r9, #0
     53c:	0000002c 	andeq	r0, r0, ip, lsr #32
     540:	0e042302 	cdpeq	3, 0, cr2, cr4, cr2, {0}
     544:	000000d0 	ldrdeq	r0, [r0], -r0	; <UNPREDICTABLE>
     548:	63020a05 	movwvs	r0, #10757	; 0x2a05
     54c:	02000005 	andeq	r0, r0, #5
     550:	0a000823 	beq	25e4 <__standby_start+0x25e4>
     554:	00000053 	andeq	r0, r0, r3, asr r0
     558:	00000563 	andeq	r0, r0, r3, ror #10
     55c:	0000530b 	andeq	r5, r0, fp, lsl #6
     560:	0c000e00 	stceq	14, cr0, [r0], {-0}
     564:	00055304 	andeq	r5, r5, r4, lsl #6
     568:	06e81200 	strbteq	r1, [r8], r0, lsl #4
     56c:	051c0000 	ldreq	r0, [ip, #-0]
     570:	05e00211 	strbeq	r0, [r0, #529]!	; 0x211
     574:	e80e0000 	stmda	lr, {}	; <UNPREDICTABLE>
     578:	05000016 	streq	r0, [r0, #-22]
     57c:	00530212 	subseq	r0, r3, r2, lsl r2
     580:	23020000 	movwcs	r0, #8192	; 0x2000
     584:	06400e00 	strbeq	r0, [r0], -r0, lsl #28
     588:	13050000 	movwne	r0, #20480	; 0x5000
     58c:	00005302 	andeq	r5, r0, r2, lsl #6
     590:	04230200 	strteq	r0, [r3], #-512	; 0x200
     594:	00001e0e 	andeq	r1, r0, lr, lsl #28
     598:	02140500 	andseq	r0, r4, #0
     59c:	00000053 	andeq	r0, r0, r3, asr r0
     5a0:	0e082302 	cdpeq	3, 0, cr2, cr8, cr2, {0}
     5a4:	000026da 	ldrdeq	r2, [r0], -sl
     5a8:	41021505 	tstmi	r2, r5, lsl #10
     5ac:	02000000 	andeq	r0, r0, #0
     5b0:	a60e0c23 	strge	r0, [lr], -r3, lsr #24
     5b4:	05000004 	streq	r0, [r0, #-4]
     5b8:	042f0216 	strteq	r0, [pc], #-534	; 5c0 <__standby_start+0x5c0>
     5bc:	23020000 	movwcs	r0, #8192	; 0x2000
     5c0:	039d0e10 	orrseq	r0, sp, #256	; 0x100
     5c4:	17050000 	strne	r0, [r5, -r0]
     5c8:	00042f02 	andeq	r2, r4, r2, lsl #30
     5cc:	14230200 	strtne	r0, [r3], #-512	; 0x200
     5d0:	00029e0e 	andeq	r9, r2, lr, lsl #28
     5d4:	02180500 	andseq	r0, r8, #0
     5d8:	000004b9 			; <UNDEFINED> instruction: 0x000004b9
     5dc:	00182302 	andseq	r2, r8, r2, lsl #6
     5e0:	00027d12 	andeq	r7, r2, r2, lsl sp
     5e4:	1f052800 	svcne	0x00052800
     5e8:	00060c02 	andeq	r0, r6, r2, lsl #24
     5ec:	00300e00 	eorseq	r0, r0, r0, lsl #28
     5f0:	20050000 	andcs	r0, r5, r0
     5f4:	00056902 	andeq	r6, r5, r2, lsl #18
     5f8:	00230200 	eoreq	r0, r3, r0, lsl #4
     5fc:	0004540e 	andeq	r5, r4, lr, lsl #8
     600:	02210500 	eoreq	r0, r1, #0
     604:	00000518 	andeq	r0, r0, r8, lsl r5
     608:	001c2302 	andseq	r2, ip, r2, lsl #6
     60c:	28070413 	stmdacs	r7, {r0, r1, r4, sl}
     610:	0000066a 	andeq	r0, r0, sl, ror #12
     614:	00036506 	andeq	r6, r3, r6, lsl #10
     618:	1f060100 	svcne	0x00060100
     61c:	02000004 	andeq	r0, r0, #4
     620:	0000a006 	andeq	sl, r0, r6
     624:	bd060400 	cfstrslt	mvf0, [r6, #-0]
     628:	08000001 	stmdaeq	r0, {r0}
     62c:	0002b006 	andeq	fp, r2, r6
     630:	24061000 	strcs	r1, [r6], #-0
     634:	20000008 	andcs	r0, r0, r8
     638:	0004b906 	andeq	fp, r4, r6, lsl #18
     63c:	0600c000 	streq	ip, [r0], -r0
     640:	000008e6 	andeq	r0, r0, r6, ror #17
     644:	a0060180 	andge	r0, r6, r0, lsl #3
     648:	80000008 	andhi	r0, r0, r8
     64c:	074c0602 	strbeq	r0, [ip, -r2, lsl #12]
     650:	04800000 	streq	r0, [r0], #0
     654:	00034a06 	andeq	r4, r3, r6, lsl #20
     658:	06088000 	streq	r8, [r8], -r0
     65c:	00000784 	andeq	r0, r0, r4, lsl #15
     660:	f7061080 			; <UNDEFINED> instruction: 0xf7061080
     664:	80000001 	andhi	r0, r0, r1
     668:	cf140020 	svcgt	0x00140020
     66c:	01000003 	tsteq	r0, r3
     670:	010101de 	ldrdeq	r0, [r1, -lr]
     674:	00084415 	andeq	r4, r8, r5, lsl r4
     678:	01e40100 	mvneq	r0, r0, lsl #2
     67c:	06930101 	ldreq	r0, [r3], r1, lsl #2
     680:	01160000 	tsteq	r6, r0
     684:	0000037e 	andeq	r0, r0, lr, ror r3
     688:	4101ea01 	tstmi	r1, r1, lsl #20
     68c:	01000000 	mrseq	r0, (UNDEF: 0)
     690:	14000017 	strne	r0, [r0], #-23
     694:	00000315 	andeq	r0, r0, r5, lsl r3
     698:	01023e01 	tsteq	r2, r1, lsl #28
     69c:	071c1401 	ldreq	r1, [ip, -r1, lsl #8]
     6a0:	48010000 	stmdami	r1, {}	; <UNPREDICTABLE>
     6a4:	14010102 	strne	r0, [r1], #-258	; 0x102
     6a8:	000008d5 	ldrdeq	r0, [r0], -r5
     6ac:	01022f01 	tsteq	r2, r1, lsl #30
     6b0:	04621401 	strbteq	r1, [r2], #-1025	; 0x401
     6b4:	6f010000 	svcvs	0x00010000
     6b8:	14010102 	strne	r0, [r1], #-258	; 0x102
     6bc:	0000045c 	andeq	r0, r0, ip, asr r4
     6c0:	01019c01 	tsteq	r1, r1, lsl #24
     6c4:	8b011801 	blhi	466d0 <__standby_start+0x466d0>
     6c8:	01000004 	tsteq	r0, r4
     6cc:	00410155 	subeq	r0, r1, r5, asr r1
     6d0:	00000000 	andeq	r0, r0, r0
     6d4:	03dcf000 	bicseq	pc, ip, #0
     6d8:	0000f000 	andeq	pc, r0, r0
     6dc:	076f0000 	strbeq	r0, [pc, -r0]!
     6e0:	61190000 	tstvs	r9, r0
     6e4:	01006772 	tsteq	r0, r2, ror r7
     6e8:	00076f55 	andeq	r6, r7, r5, asr pc
     6ec:	00002000 	andeq	r2, r0, r0
     6f0:	07bb1a00 	ldreq	r1, [fp, r0, lsl #20]!
     6f4:	57010000 	strpl	r0, [r1, -r0]
     6f8:	00000775 	andeq	r0, r0, r5, ror r7
     6fc:	0000003e 	andeq	r0, r0, lr, lsr r0
     700:	0006b11b 	andeq	fp, r6, fp, lsl r1
     704:	0000e400 	andeq	lr, r0, r0, lsl #8
     708:	000000f0 	strdeq	r0, [r0], -r0	; <UNPREDICTABLE>
     70c:	5f950100 	svcpl	0x00950100
     710:	1c000007 	stcne	0, cr0, [r0], {7}
     714:	000006bb 			; <UNDEFINED> instruction: 0x000006bb
     718:	f00000e4 			; <UNDEFINED> instruction: 0xf00000e4
     71c:	00000020 	andeq	r0, r0, r0, lsr #32
     720:	1d027201 	sfmne	f7, 4, [r2, #-4]
     724:	00000674 	andeq	r0, r0, r4, ror r6
     728:	f0000108 			; <UNDEFINED> instruction: 0xf0000108
     72c:	00000040 	andeq	r0, r0, r0, asr #32
     730:	3d01ad01 	stccc	13, cr10, [r1, #-4]
     734:	1e000007 	cdpne	0, 0, cr0, cr0, cr7, {0}
     738:	00000058 	andeq	r0, r0, r8, asr r0
     73c:	06931f00 	ldreq	r1, [r3], r0, lsl #30
     740:	02d80000 	sbcseq	r0, r8, #0
     744:	0070f000 	rsbseq	pc, r0, r0
     748:	ca010000 	bgt	40750 <__standby_start+0x40750>
     74c:	069d2001 	ldreq	r2, [sp], r1
     750:	03400000 	movteq	r0, #0
     754:	0384f000 	orreq	pc, r4, #0
     758:	cd01f000 	stcgt	0, cr15, [r1, #-0]
     75c:	21000001 	tstcs	r0, r1
     760:	000006a7 	andeq	r0, r0, r7, lsr #13
     764:	f0000240 			; <UNDEFINED> instruction: 0xf0000240
     768:	f00002a0 			; <UNDEFINED> instruction: 0xf00002a0
     76c:	0c009101 	stfeqd	f1, [r0], {1}
     770:	0005e004 	andeq	lr, r5, r4
     774:	ab040c00 	blge	10377c <__standby_start+0x10377c>
     778:	22000001 	andcs	r0, r0, #1
     77c:	0000060b 	andeq	r0, r0, fp, lsl #12
     780:	00482101 	subeq	r2, r8, r1, lsl #2
     784:	03050000 	movweq	r0, #20480	; 0x5000
     788:	f0003ce8 			; <UNDEFINED> instruction: 0xf0003ce8
     78c:	00089223 	andeq	r9, r8, r3, lsr #4
     790:	48220100 	stmdami	r2!, {r8}
     794:	00000000 	andeq	r0, r0, r0
     798:	0000480a 	andeq	r4, r0, sl, lsl #16
     79c:	0007a900 	andeq	sl, r7, r0, lsl #18
     7a0:	00532400 	subseq	r2, r3, r0, lsl #8
     7a4:	0fff0000 	svceq	0x00ff0000
     7a8:	02f62500 	rscseq	r2, r6, #0
     7ac:	25010000 	strcs	r0, [r1, #-0]
     7b0:	00000798 	muleq	r0, r8, r7
     7b4:	00028026 	andeq	r8, r2, r6, lsr #32
     7b8:	e0440100 	sub	r0, r4, r0, lsl #2
     7bc:	01000005 	tsteq	r0, r5
     7c0:	40c40305 	sbcmi	r0, r4, r5, lsl #6
     7c4:	2f26f000 	svccs	0x0026f000
     7c8:	01000007 	tsteq	r0, r7
     7cc:	0000412a 	andeq	r4, r0, sl, lsr #2
     7d0:	03050100 	movweq	r0, #20736	; 0x5100
     7d4:	f0003cec 			; <UNDEFINED> instruction: 0xf0003cec
     7d8:	00070b26 	andeq	r0, r7, r6, lsr #22
     7dc:	412b0100 	teqmi	fp, r0, lsl #2
     7e0:	01000000 	mrseq	r0, (UNDEF: 0)
     7e4:	3cf00305 	ldclcc	3, cr0, [r0], #20
     7e8:	5026f000 	eorpl	pc, r6, r0
     7ec:	01000008 	tsteq	r0, r8
     7f0:	0000412c 	andeq	r4, r0, ip, lsr #2
     7f4:	03050100 	movweq	r0, #20736	; 0x5100
     7f8:	f0003cf4 			; <UNDEFINED> instruction: 0xf0003cf4
     7fc:	0006f826 	andeq	pc, r6, r6, lsr #16
     800:	412d0100 	teqmi	sp, r0, lsl #2
     804:	01000000 	mrseq	r0, (UNDEF: 0)
     808:	3cf80305 	ldclcc	3, cr0, [r8], #20
     80c:	f926f000 			; <UNDEFINED> instruction: 0xf926f000
     810:	01000000 	mrseq	r0, (UNDEF: 0)
     814:	0000412e 	andeq	r4, r0, lr, lsr #2
     818:	03050100 	movweq	r0, #20736	; 0x5100
     81c:	f0003cfc 			; <UNDEFINED> instruction: 0xf0003cfc
     820:	00077526 	andeq	r7, r7, r6, lsr #10
     824:	412f0100 	teqmi	pc, r0, lsl #2
     828:	01000000 	mrseq	r0, (UNDEF: 0)
     82c:	3d000305 	stccc	3, cr0, [r0, #-20]	; 0xffffffec
     830:	d926f000 	stmdble	r6!, {ip, sp, lr, pc}
     834:	01000006 	tsteq	r0, r6
     838:	00004130 	andeq	r4, r0, r0, lsr r1
     83c:	03050100 	movweq	r0, #20736	; 0x5100
     840:	f0003d04 			; <UNDEFINED> instruction: 0xf0003d04
     844:	0003af26 	andeq	sl, r3, r6, lsr #30
     848:	41310100 	teqmi	r1, r0, lsl #2
     84c:	01000000 	mrseq	r0, (UNDEF: 0)
     850:	3d080305 	stccc	3, cr0, [r8, #-20]	; 0xffffffec
     854:	9426f000 	strtls	pc, [r6], #-0
     858:	01000007 	tsteq	r0, r7
     85c:	0004bf46 	andeq	fp, r4, r6, asr #30
     860:	03050100 	movweq	r0, #20736	; 0x5100
     864:	f00040ec 			; <UNDEFINED> instruction: 0xf00040ec
     868:	00032527 	andeq	r2, r3, r7, lsr #10
     86c:	751c0100 	ldrvc	r0, [ip, #-256]	; 0x100
     870:	01000007 	tsteq	r0, r7
     874:	00ef2701 	rsceq	r2, pc, r1, lsl #14
     878:	1d010000 	stcne	0, cr0, [r1, #-0]
     87c:	00000775 	andeq	r0, r0, r5, ror r7
     880:	f0260101 			; <UNDEFINED> instruction: 0xf0260101
     884:	01000007 	tsteq	r0, r7
     888:	00055345 	andeq	r5, r5, r5, asr #6
     88c:	03050100 	movweq	r0, #20736	; 0x5100
     890:	f0004088 			; <UNDEFINED> instruction: 0xf0004088
     894:	0005ad26 	andeq	sl, r5, r6, lsr #26
     898:	ad470100 	stfgee	f0, [r7, #-0]
     89c:	01000004 	tsteq	r0, r4
     8a0:	3ec40305 	cdpcc	3, 12, cr0, cr4, cr5, {0}
     8a4:	d000f000 	andle	pc, r0, r0
     8a8:	02000000 	andeq	r0, r0, #0
     8ac:	00022400 	andeq	r2, r2, r0, lsl #8
     8b0:	fd010400 	stc2	4, cr0, [r1, #-0]
     8b4:	01000003 	tsteq	r0, r3
     8b8:	0000091f 	andeq	r0, r0, pc, lsl r9
     8bc:	00000535 	andeq	r0, r0, r5, lsr r5
     8c0:	f00003dc 			; <UNDEFINED> instruction: 0xf00003dc
     8c4:	f000040c 			; <UNDEFINED> instruction: 0xf000040c
     8c8:	0000018e 	andeq	r0, r0, lr, lsl #3
     8cc:	af060102 	svcge	0x00060102
     8d0:	02000007 	andeq	r0, r0, #7
     8d4:	07ad0801 	streq	r0, [sp, r1, lsl #16]!
     8d8:	02020000 	andeq	r0, r2, #0
     8dc:	00066805 	andeq	r6, r6, r5, lsl #16
     8e0:	07020200 	streq	r0, [r2, -r0, lsl #4]
     8e4:	0000087f 	andeq	r0, r0, pc, ror r8
     8e8:	69050403 	stmdbvs	r5, {r0, r1, sl}
     8ec:	0200746e 	andeq	r7, r0, #1845493760	; 0x6e000000
     8f0:	02540704 	subseq	r0, r4, #1048576	; 0x100000
     8f4:	08020000 	stmdaeq	r2, {}	; <UNPREDICTABLE>
     8f8:	00047d05 	andeq	r7, r4, r5, lsl #26
     8fc:	07080200 	streq	r0, [r8, -r0, lsl #4]
     900:	0000024a 	andeq	r0, r0, sl, asr #4
     904:	b6080102 	strlt	r0, [r8], -r2, lsl #2
     908:	02000007 	andeq	r0, r0, #7
     90c:	024f0704 	subeq	r0, pc, #1048576	; 0x100000
     910:	04040000 	streq	r0, [r4], #-0
     914:	094f0105 	stmdbeq	pc, {r0, r2, r8}^	; <UNPREDICTABLE>
     918:	23010000 	movwcs	r0, #4096	; 0x1000
     91c:	0003dc01 	andeq	sp, r3, r1, lsl #24
     920:	00040cf0 	strdeq	r0, [r4], -r0	; <UNPREDICTABLE>
     924:	007d02f0 	ldrshteq	r0, [sp], #-32	; 0xffffffe0
     928:	000000cd 	andeq	r0, r0, sp, asr #1
     92c:	001d0506 	andseq	r0, sp, r6, lsl #10
     930:	6b230100 	blvs	8c0d38 <__standby_start+0x8c0d38>
     934:	51000000 	mrspl	r0, (UNDEF: 0)
     938:	07000000 	streq	r0, [r0, -r0]
     93c:	00637273 	rsbeq	r7, r3, r3, ror r2
     940:	006b2301 	rsbeq	r2, fp, r1, lsl #6
     944:	00640000 	rsbeq	r0, r4, r0
     948:	6e070000 	cdpvs	0, 0, cr0, cr7, cr0, {0}
     94c:	41230100 	teqmi	r3, r0, lsl #2
     950:	84000000 	strhi	r0, [r0], #-0
     954:	08000000 	stmdaeq	r0, {}	; <UNPREDICTABLE>
     958:	0000095e 	andeq	r0, r0, lr, asr r9
     95c:	00cd2501 	sbceq	r2, sp, r1, lsl #10
     960:	00640000 	rsbeq	r0, r4, r0
     964:	47090000 	strmi	r0, [r9, -r0]
     968:	01000009 	tsteq	r0, r9
     96c:	0000cd26 	andeq	ip, r0, r6, lsr #26
     970:	00500100 	subseq	r0, r0, r0, lsl #2
     974:	005d040a 	subseq	r0, sp, sl, lsl #8
     978:	80000000 	andhi	r0, r0, r0
     97c:	0200000d 	andeq	r0, r0, #13
     980:	0002b100 	andeq	fp, r2, r0, lsl #2
     984:	fd010400 	stc2	4, cr0, [r1, #-0]
     988:	01000003 	tsteq	r0, r3
     98c:	00000cc1 	andeq	r0, r0, r1, asr #25
     990:	00000535 	andeq	r0, r0, r5, lsr r5
     994:	f000040c 			; <UNDEFINED> instruction: 0xf000040c
     998:	f00004b4 			; <UNDEFINED> instruction: 0xf00004b4
     99c:	000001fa 	strdeq	r0, [r0], -sl
     9a0:	af060102 	svcge	0x00060102
     9a4:	02000007 	andeq	r0, r0, #7
     9a8:	07ad0801 	streq	r0, [sp, r1, lsl #16]!
     9ac:	02020000 	andeq	r0, r2, #0
     9b0:	00066805 	andeq	r6, r6, r5, lsl #16
     9b4:	07020200 	streq	r0, [r2, -r0, lsl #4]
     9b8:	0000087f 	andeq	r0, r0, pc, ror r8
     9bc:	000e4e03 	andeq	r4, lr, r3, lsl #28
     9c0:	4c120200 	lfmmi	f0, 4, [r2], {-0}
     9c4:	04000000 	streq	r0, [r0], #-0
     9c8:	6e690504 	cdpvs	5, 6, cr0, cr9, cr4, {0}
     9cc:	43030074 	movwmi	r0, #12404	; 0x3074
     9d0:	02000004 	andeq	r0, r0, #4
     9d4:	00005e13 	andeq	r5, r0, r3, lsl lr
     9d8:	07040200 	streq	r0, [r4, -r0, lsl #4]
     9dc:	00000254 	andeq	r0, r0, r4, asr r2
     9e0:	7d050802 	stcvc	8, cr0, [r5, #-8]
     9e4:	02000004 	andeq	r0, r0, #4
     9e8:	024a0708 	subeq	r0, sl, #2097152	; 0x200000
     9ec:	04050000 	streq	r0, [r5], #-0
     9f0:	01041a03 	tsteq	r4, r3, lsl #20
     9f4:	f6060000 			; <UNDEFINED> instruction: 0xf6060000
     9f8:	0300000a 	movweq	r0, #10
     9fc:	0000531c 	andeq	r5, r0, ip, lsl r3
     a00:	1e020400 	cfcpysne	mvf0, mvf2
     a04:	06002302 	streq	r2, [r0], -r2, lsl #6
     a08:	00000ed9 	ldrdeq	r0, [r0], -r9
     a0c:	00531d03 	subseq	r1, r3, r3, lsl #26
     a10:	06040000 	streq	r0, [r4], -r0
     a14:	00230218 	eoreq	r0, r3, r8, lsl r2
     a18:	000afe06 	andeq	pc, sl, r6, lsl #28
     a1c:	531e0300 	tstpl	lr, #0
     a20:	04000000 	streq	r0, [r0], #-0
     a24:	23021008 	movwcs	r1, #8200	; 0x2008
     a28:	0b0e0600 	bleq	382230 <__standby_start+0x382230>
     a2c:	1f030000 	svcne	0x00030000
     a30:	00000053 	andeq	r0, r0, r3, asr r0
     a34:	020f0104 	andeq	r0, pc, #1
     a38:	f7060023 			; <UNDEFINED> instruction: 0xf7060023
     a3c:	0300000e 	movweq	r0, #14
     a40:	00005320 	andeq	r5, r0, r0, lsr #6
     a44:	08070400 	stmdaeq	r7, {sl}
     a48:	06002302 	streq	r2, [r0], -r2, lsl #6
     a4c:	00000c12 	andeq	r0, r0, r2, lsl ip
     a50:	00532103 	subseq	r2, r3, r3, lsl #2
     a54:	03040000 	movweq	r0, #16384	; 0x4000
     a58:	00230205 	eoreq	r0, r3, r5, lsl #4
     a5c:	000f0106 	andeq	r0, pc, r6, lsl #2
     a60:	53220300 	teqpl	r2, #0
     a64:	04000000 	streq	r0, [r0], #-0
     a68:	23020104 	movwcs	r0, #8452	; 0x2104
     a6c:	0ea30600 	cdpeq	6, 10, cr0, cr3, cr0, {0}
     a70:	23030000 	movwcs	r0, #12288	; 0x3000
     a74:	00000053 	andeq	r0, r0, r3, asr r0
     a78:	02000104 	andeq	r0, r0, #1
     a7c:	07000023 	streq	r0, [r0, -r3, lsr #32]
     a80:	23180304 	tstcs	r8, #268435456	; 0x10000000
     a84:	08000001 	stmdaeq	r0, {r0}
     a88:	000009d9 	ldrdeq	r0, [r0], -r9
     a8c:	00531903 	subseq	r1, r3, r3, lsl #18
     a90:	94080000 	strls	r0, [r8], #-0
     a94:	03000013 	movweq	r0, #19
     a98:	00007325 	andeq	r7, r0, r5, lsr #6
     a9c:	a9030000 	stmdbge	r3, {}	; <UNPREDICTABLE>
     aa0:	0300000e 	movweq	r0, #14
     aa4:	00010426 	andeq	r0, r1, r6, lsr #8
     aa8:	03040500 	movweq	r0, #17664	; 0x4500
     aac:	0001bf3e 	andeq	fp, r1, lr, lsr pc
     ab0:	10740600 	rsbsne	r0, r4, r0, lsl #12
     ab4:	40030000 	andmi	r0, r3, r0
     ab8:	00000053 	andeq	r0, r0, r3, asr r0
     abc:	021e0204 	andseq	r0, lr, #1073741824	; 0x40000000
     ac0:	d9060023 	stmdble	r6, {r0, r1, r5}
     ac4:	0300000e 	movweq	r0, #14
     ac8:	00005341 	andeq	r5, r0, r1, asr #6
     acc:	140a0400 	strne	r0, [sl], #-1024	; 0x400
     ad0:	06002302 	streq	r2, [r0], -r2, lsl #6
     ad4:	00000bc6 	andeq	r0, r0, r6, asr #23
     ad8:	00534203 	subseq	r4, r3, r3, lsl #4
     adc:	01040000 	mrseq	r0, (UNDEF: 4)
     ae0:	00230213 	eoreq	r0, r3, r3, lsl r2
     ae4:	000ee306 	andeq	lr, lr, r6, lsl #6
     ae8:	53430300 	movtpl	r0, #13056	; 0x3300
     aec:	04000000 	streq	r0, [r0], #-0
     af0:	23021003 	movwcs	r1, #8195	; 0x2003
     af4:	0cf00600 	ldcleq	6, cr0, [r0]
     af8:	44030000 	strmi	r0, [r3], #-0
     afc:	00000053 	andeq	r0, r0, r3, asr r0
     b00:	020e0204 	andeq	r0, lr, #1073741824	; 0x40000000
     b04:	ed060023 	stc	0, cr0, [r6, #-140]	; 0xffffff74
     b08:	0300000e 	movweq	r0, #14
     b0c:	00005345 	andeq	r5, r0, r5, asr #6
     b10:	040a0400 	streq	r0, [sl], #-1024	; 0x400
     b14:	06002302 	streq	r2, [r0], -r2, lsl #6
     b18:	00000b5d 	andeq	r0, r0, sp, asr fp
     b1c:	00534603 	subseq	r4, r3, r3, lsl #12
     b20:	01040000 	mrseq	r0, (UNDEF: 4)
     b24:	00230203 	eoreq	r0, r3, r3, lsl #4
     b28:	000ef706 	andeq	pc, lr, r6, lsl #14
     b2c:	53470300 	movtpl	r0, #29440	; 0x7300
     b30:	04000000 	streq	r0, [r0], #-0
     b34:	23020003 	movwcs	r0, #8195	; 0x2003
     b38:	04070000 	streq	r0, [r7], #-0
     b3c:	01de3c03 	bicseq	r3, lr, r3, lsl #24
     b40:	d9080000 	stmdble	r8, {}	; <UNPREDICTABLE>
     b44:	03000009 	movweq	r0, #9
     b48:	0000533d 	andeq	r5, r0, sp, lsr r3
     b4c:	13940800 	orrsne	r0, r4, #0
     b50:	48030000 	stmdami	r3, {}	; <UNPREDICTABLE>
     b54:	0000012e 	andeq	r0, r0, lr, lsr #2
     b58:	0a650300 	beq	1941760 <__standby_start+0x1941760>
     b5c:	49030000 	stmdbmi	r3, {}	; <UNPREDICTABLE>
     b60:	000001bf 			; <UNDEFINED> instruction: 0x000001bf
     b64:	00096609 	andeq	r6, r9, r9, lsl #12
     b68:	4f030400 	svcmi	0x00030400
     b6c:	0000026d 	andeq	r0, r0, sp, ror #4
     b70:	000ed906 	andeq	sp, lr, r6, lsl #18
     b74:	53510300 	cmppl	r1, #0
     b78:	04000000 	streq	r0, [r0], #-0
     b7c:	23021c04 	movwcs	r1, #11268	; 0x2c04
     b80:	0d4d0600 	stcleq	6, cr0, [sp, #-0]
     b84:	52030000 	andpl	r0, r3, #0
     b88:	00000053 	andeq	r0, r0, r3, asr r0
     b8c:	021a0204 	andseq	r0, sl, #1073741824	; 0x40000000
     b90:	b6060023 	strlt	r0, [r6], -r3, lsr #32
     b94:	0300000c 	movweq	r0, #12
     b98:	00005353 	andeq	r5, r0, r3, asr r3
     b9c:	18020400 	stmdane	r2, {sl}
     ba0:	06002302 	streq	r2, [r0], -r2, lsl #6
     ba4:	00000e46 	andeq	r0, r0, r6, asr #28
     ba8:	00535403 	subseq	r5, r3, r3, lsl #8
     bac:	02040000 	andeq	r0, r4, #0
     bb0:	00230216 	eoreq	r0, r3, r6, lsl r2
     bb4:	000ee306 	andeq	lr, lr, r6, lsl #6
     bb8:	53550300 	cmppl	r5, #0
     bbc:	04000000 	streq	r0, [r0], #-0
     bc0:	23021402 	movwcs	r1, #9218	; 0x2402
     bc4:	0e280600 	cfmadda32eq	mvax0, mvax0, mvfx8, mvfx0
     bc8:	56030000 	strpl	r0, [r3], -r0
     bcc:	00000053 	andeq	r0, r0, r3, asr r0
     bd0:	02120204 	andseq	r0, r2, #1073741824	; 0x40000000
     bd4:	ed060023 	stc	0, cr0, [r6, #-140]	; 0xffffff74
     bd8:	0300000e 	movweq	r0, #14
     bdc:	00005357 	andeq	r5, r0, r7, asr r3
     be0:	00120400 	andseq	r0, r2, r0, lsl #8
     be4:	00002302 	andeq	r2, r0, r2, lsl #6
     be8:	000fff03 	andeq	pc, pc, r3, lsl #30
     bec:	e9580300 	ldmdb	r8, {r8, r9}^
     bf0:	05000001 	streq	r0, [r0, #-1]
     bf4:	e75f0304 	ldrb	r0, [pc, -r4, lsl #6]
     bf8:	06000002 	streq	r0, [r0], -r2
     bfc:	00000b7e 	andeq	r0, r0, lr, ror fp
     c00:	00536103 	subseq	r6, r3, r3, lsl #2
     c04:	05040000 	streq	r0, [r4, #-0]
     c08:	0023021b 	eoreq	r0, r3, fp, lsl r2
     c0c:	00106b06 	andseq	r6, r0, r6, lsl #22
     c10:	53620300 	cmnpl	r2, #0
     c14:	04000000 	streq	r0, [r0], #-0
     c18:	2302100b 	movwcs	r1, #8203	; 0x200b
     c1c:	0b830600 	bleq	fe0c2424 <__bss_end+0xe0be324>
     c20:	63030000 	movwvs	r0, #12288	; 0x3000
     c24:	00000053 	andeq	r0, r0, r3, asr r0
     c28:	020e0204 	andeq	r0, lr, #1073741824	; 0x40000000
     c2c:	e3060023 	movw	r0, #24611	; 0x6023
     c30:	0300000e 	movweq	r0, #14
     c34:	00005364 	andeq	r5, r0, r4, ror #6
     c38:	08060400 	stmdaeq	r6, {sl}
     c3c:	06002302 	streq	r2, [r0], -r2, lsl #6
     c40:	00000b5f 	andeq	r0, r0, pc, asr fp
     c44:	00536503 	subseq	r6, r3, r3, lsl #10
     c48:	02040000 	andeq	r0, r4, #0
     c4c:	00230206 	eoreq	r0, r3, r6, lsl #4
     c50:	000eed06 	andeq	lr, lr, r6, lsl #26
     c54:	53660300 	cmnpl	r6, #0
     c58:	04000000 	streq	r0, [r0], #-0
     c5c:	23020006 	movwcs	r0, #8198	; 0x2006
     c60:	04070000 	streq	r0, [r7], #-0
     c64:	03065d03 	movweq	r5, #27907	; 0x6d03
     c68:	d9080000 	stmdble	r8, {}	; <UNPREDICTABLE>
     c6c:	03000009 	movweq	r0, #9
     c70:	0000535e 	andeq	r5, r0, lr, asr r3
     c74:	13940800 	orrsne	r0, r4, #0
     c78:	67030000 	strvs	r0, [r3, -r0]
     c7c:	00000278 	andeq	r0, r0, r8, ror r2
     c80:	0d870300 	stceq	3, cr0, [r7]
     c84:	68030000 	stmdavs	r3, {}	; <UNPREDICTABLE>
     c88:	000002e7 	andeq	r0, r0, r7, ror #5
     c8c:	000c5d09 	andeq	r5, ip, r9, lsl #26
     c90:	6a030400 	bvs	c1c98 <__standby_start+0xc1c98>
     c94:	00000340 	andeq	r0, r0, r0, asr #6
     c98:	00104c06 	andseq	r4, r0, r6, lsl #24
     c9c:	536c0300 	cmnpl	ip, #0
     ca0:	04000000 	streq	r0, [r0], #-0
     ca4:	23021010 	movwcs	r1, #8208	; 0x2010
     ca8:	106b0600 	rsbne	r0, fp, r0, lsl #12
     cac:	6d030000 	stcvs	0, cr0, [r3, #-0]
     cb0:	00000053 	andeq	r0, r0, r3, asr r0
     cb4:	02001004 	andeq	r1, r0, #4
     cb8:	03000023 	movweq	r0, #35	; 0x23
     cbc:	00000f73 	andeq	r0, r0, r3, ror pc
     cc0:	03116e03 	tsteq	r1, #48	; 0x30
     cc4:	c90a0000 	stmdbgt	sl, {}	; <UNPREDICTABLE>
     cc8:	dc000010 	stcle	0, cr0, [r0], {16}
     ccc:	21700302 	cmncs	r0, r2, lsl #6
     cd0:	0b00000b 	bleq	d04 <__standby_start+0xd04>
     cd4:	00000c1b 	andeq	r0, r0, fp, lsl ip
     cd8:	0b217203 	bleq	85d4ec <__standby_start+0x85d4ec>
     cdc:	23020000 	movwcs	r0, #8192	; 0x2000
     ce0:	0c400b00 	mcrreq	11, 0, r0, r0, cr0
     ce4:	73030000 	movwvc	r0, #12288	; 0x3000
     ce8:	00000b26 	andeq	r0, r0, r6, lsr #22
     cec:	0b042302 	bleq	1098fc <__standby_start+0x1098fc>
     cf0:	000010c1 	andeq	r1, r0, r1, asr #1
     cf4:	0b267403 	bleq	99dd08 <__standby_start+0x99dd08>
     cf8:	23020000 	movwcs	r0, #8192	; 0x2000
     cfc:	0ee30b08 	vfmaeq.f64	d16, d3, d8
     d00:	75030000 	strvc	r0, [r3, #-0]
     d04:	00000b26 	andeq	r0, r0, r6, lsr #22
     d08:	0b0c2302 	bleq	309918 <__standby_start+0x309918>
     d0c:	00000d75 	andeq	r0, r0, r5, ror sp
     d10:	0b267603 	bleq	99e524 <__standby_start+0x99e524>
     d14:	23020000 	movwcs	r0, #8192	; 0x2000
     d18:	0eed0b10 	vdupeq.8	<illegal reg q6.5>, r0
     d1c:	77030000 	strvc	r0, [r3, -r0]
     d20:	00000b26 	andeq	r0, r0, r6, lsr #22
     d24:	0b142302 	bleq	509934 <__standby_start+0x509934>
     d28:	00000a47 	andeq	r0, r0, r7, asr #20
     d2c:	0b267803 	bleq	99ed40 <__standby_start+0x99ed40>
     d30:	23020000 	movwcs	r0, #8192	; 0x2000
     d34:	0ef70b18 	vmoveq.u8	r0, d7[4]
     d38:	79030000 	stmdbvc	r3, {}	; <UNPREDICTABLE>
     d3c:	00000b26 	andeq	r0, r0, r6, lsr #22
     d40:	0b1c2302 	bleq	709950 <__standby_start+0x709950>
     d44:	00000e9b 	muleq	r0, fp, lr
     d48:	0b267a03 	bleq	99f55c <__standby_start+0x99f55c>
     d4c:	23020000 	movwcs	r0, #8192	; 0x2000
     d50:	0f010b20 	svceq	0x00010b20
     d54:	7b030000 	blvc	c0d5c <__standby_start+0xc0d5c>
     d58:	00000b26 	andeq	r0, r0, r6, lsr #22
     d5c:	0b242302 	bleq	90996c <__standby_start+0x90996c>
     d60:	00000a0f 	andeq	r0, r0, pc, lsl #20
     d64:	0b267c03 	bleq	99fd78 <__standby_start+0x99fd78>
     d68:	23020000 	movwcs	r0, #8192	; 0x2000
     d6c:	0f0b0b28 	svceq	0x000b0b28
     d70:	7d030000 	stcvc	0, cr0, [r3, #-0]
     d74:	00000b26 	andeq	r0, r0, r6, lsr #22
     d78:	0b2c2302 	bleq	b09988 <__standby_start+0xb09988>
     d7c:	00000e83 	andeq	r0, r0, r3, lsl #29
     d80:	0b267e03 	bleq	9a0594 <__standby_start+0x9a0594>
     d84:	23020000 	movwcs	r0, #8192	; 0x2000
     d88:	0f150b30 	svceq	0x00150b30
     d8c:	7f030000 	svcvc	0x00030000
     d90:	00000b26 	andeq	r0, r0, r6, lsr #22
     d94:	0b342302 	bleq	d099a4 <__standby_start+0xd099a4>
     d98:	00000c55 	andeq	r0, r0, r5, asr ip
     d9c:	0b268003 	bleq	9a0db0 <__standby_start+0x9a0db0>
     da0:	23020000 	movwcs	r0, #8192	; 0x2000
     da4:	0f1f0b38 	svceq	0x001f0b38
     da8:	81030000 	mrshi	r0, (UNDEF: 3)
     dac:	00000b26 	andeq	r0, r0, r6, lsr #22
     db0:	0b3c2302 	bleq	f099c0 <__standby_start+0xf099c0>
     db4:	00000f61 	andeq	r0, r0, r1, ror #30
     db8:	0b268203 	bleq	9a15cc <__standby_start+0x9a15cc>
     dbc:	23020000 	movwcs	r0, #8192	; 0x2000
     dc0:	10f70b40 	rscsne	r0, r7, r0, asr #22
     dc4:	83030000 	movwhi	r0, #12288	; 0x3000
     dc8:	00000b26 	andeq	r0, r0, r6, lsr #22
     dcc:	0b442302 	bleq	11099dc <__standby_start+0x11099dc>
     dd0:	00000a3e 	andeq	r0, r0, lr, lsr sl
     dd4:	0b268403 	bleq	9a1de8 <__standby_start+0x9a1de8>
     dd8:	23020000 	movwcs	r0, #8192	; 0x2000
     ddc:	0fdb0b48 	svceq	0x00db0b48
     de0:	85030000 	strhi	r0, [r3, #-0]
     de4:	00000b26 	andeq	r0, r0, r6, lsr #22
     de8:	0b4c2302 	bleq	13099f8 <__standby_start+0x13099f8>
     dec:	00000d7d 	andeq	r0, r0, sp, ror sp
     df0:	0b2b8603 	bleq	ae2604 <__standby_start+0xae2604>
     df4:	23020000 	movwcs	r0, #8192	; 0x2000
     df8:	0d4d0b50 	vstreq	d16, [sp, #-320]	; 0xfffffec0
     dfc:	87030000 	strhi	r0, [r3, -r0]
     e00:	00000b30 	andeq	r0, r0, r0, lsr fp
     e04:	0b542302 	bleq	1509a14 <__standby_start+0x1509a14>
     e08:	00000b06 	andeq	r0, r0, r6, lsl #22
     e0c:	0b358803 	bleq	d62e20 <__standby_start+0xd62e20>
     e10:	23020000 	movwcs	r0, #8192	; 0x2000
     e14:	0ebf0b58 	mrceq	11, 5, r0, cr15, cr8, {2}
     e18:	89030000 	stmdbhi	r3, {}	; <UNPREDICTABLE>
     e1c:	00000b26 	andeq	r0, r0, r6, lsr #22
     e20:	0b5c2302 	bleq	1709a30 <__standby_start+0x1709a30>
     e24:	00000c00 	andeq	r0, r0, r0, lsl #24
     e28:	0b268a03 	bleq	9a363c <__standby_start+0x9a363c>
     e2c:	23020000 	movwcs	r0, #8192	; 0x2000
     e30:	0c090b60 	stceq	11, cr0, [r9], {96}	; 0x60
     e34:	8b030000 	blhi	c0e3c <__standby_start+0xc0e3c>
     e38:	00000b26 	andeq	r0, r0, r6, lsr #22
     e3c:	0b642302 	bleq	1909a4c <__standby_start+0x1909a4c>
     e40:	0000107e 	andeq	r1, r0, lr, ror r0
     e44:	0b268c03 	bleq	9a3e58 <__standby_start+0x9a3e58>
     e48:	23020000 	movwcs	r0, #8192	; 0x2000
     e4c:	0ddf0b68 	vldreq	d16, [pc, #416]	; ff4 <__standby_start+0xff4>
     e50:	8d030000 	stchi	0, cr0, [r3, #-0]
     e54:	00000b26 	andeq	r0, r0, r6, lsr #22
     e58:	0b6c2302 	bleq	1b09a68 <__standby_start+0x1b09a68>
     e5c:	00000f29 	andeq	r0, r0, r9, lsr #30
     e60:	0b4a8e03 	bleq	12a4674 <__standby_start+0x12a4674>
     e64:	23020000 	movwcs	r0, #8192	; 0x2000
     e68:	10ed0b70 	rscne	r0, sp, r0, ror fp
     e6c:	8f030000 	svchi	0x00030000
     e70:	00000b26 	andeq	r0, r0, r6, lsr #22
     e74:	0b782302 	bleq	1e09a84 <__standby_start+0x1e09a84>
     e78:	00000a03 	andeq	r0, r0, r3, lsl #20
     e7c:	0b269003 	bleq	9a4e90 <__standby_start+0x9a4e90>
     e80:	23020000 	movwcs	r0, #8192	; 0x2000
     e84:	10e70b7c 	rscne	r0, r7, ip, ror fp
     e88:	91030000 	mrsls	r0, (UNDEF: 3)
     e8c:	00000b26 	andeq	r0, r0, r6, lsr #22
     e90:	01802303 	orreq	r2, r0, r3, lsl #6
     e94:	0010870b 	andseq	r8, r0, fp, lsl #14
     e98:	26920300 	ldrcs	r0, [r2], r0, lsl #6
     e9c:	0300000b 	movweq	r0, #11
     ea0:	0c018423 	cfstrseq	mvf8, [r1], {35}	; 0x23
     ea4:	00306453 	eorseq	r6, r0, r3, asr r4
     ea8:	0b269303 	bleq	9a5abc <__standby_start+0x9a5abc>
     eac:	23030000 	movwcs	r0, #12288	; 0x3000
     eb0:	530c0188 	movwpl	r0, #49544	; 0xc188
     eb4:	03003164 	movweq	r3, #356	; 0x164
     eb8:	000b2694 	muleq	fp, r4, r6
     ebc:	8c230300 	stchi	3, cr0, [r3], #-0
     ec0:	64530c01 	ldrbvs	r0, [r3], #-3073	; 0xc01
     ec4:	95030032 	strls	r0, [r3, #-50]	; 0x32
     ec8:	00000b26 	andeq	r0, r0, r6, lsr #22
     ecc:	01902303 	orrseq	r2, r0, r3, lsl #6
     ed0:	0010920b 	andseq	r9, r0, fp, lsl #4
     ed4:	4f960300 	svcmi	0x00960300
     ed8:	0300000b 	movweq	r0, #11
     edc:	0c019423 	cfstrseq	mvf9, [r1], {35}	; 0x23
     ee0:	03007353 	movweq	r7, #851	; 0x353
     ee4:	000b2697 	muleq	fp, r7, r6
     ee8:	9c230300 	stcls	3, cr0, [r3], #-0
     eec:	0f570b01 	svceq	0x00570b01
     ef0:	98030000 	stmdals	r3, {}	; <UNPREDICTABLE>
     ef4:	00000b26 	andeq	r0, r0, r6, lsr #22
     ef8:	01a02303 	lsleq	r2, r3, #6
     efc:	000f5c0b 	andeq	r5, pc, fp, lsl #24
     f00:	26990300 	ldrcs	r0, [r9], r0, lsl #6
     f04:	0300000b 	movweq	r0, #11
     f08:	0b01a423 	bleq	69f9c <__standby_start+0x69f9c>
     f0c:	0000109d 	muleq	r0, sp, r0
     f10:	0b549a03 	bleq	1527724 <__standby_start+0x1527724>
     f14:	23030000 	movwcs	r0, #12288	; 0x3000
     f18:	2f0b01a8 	svccs	0x000b01a8
     f1c:	0300000a 	movweq	r0, #10
     f20:	000b269b 	muleq	fp, fp, r6
     f24:	b0230300 	eorlt	r0, r3, r0, lsl #6
     f28:	0a340b01 	beq	d03b34 <__standby_start+0xd03b34>
     f2c:	9c030000 	stcls	0, cr0, [r3], {-0}
     f30:	00000b26 	andeq	r0, r0, r6, lsr #22
     f34:	01b42303 			; <UNDEFINED> instruction: 0x01b42303
     f38:	000a390b 	andeq	r3, sl, fp, lsl #18
     f3c:	269d0300 	ldrcs	r0, [sp], r0, lsl #6
     f40:	0300000b 	movweq	r0, #11
     f44:	0b01b823 	bleq	6efd8 <__standby_start+0x6efd8>
     f48:	00000ad4 	ldrdeq	r0, [r0], -r4
     f4c:	0b269e03 	bleq	9a8760 <__standby_start+0x9a8760>
     f50:	23030000 	movwcs	r0, #12288	; 0x3000
     f54:	d60b01bc 			; <UNDEFINED> instruction: 0xd60b01bc
     f58:	0300000d 	movweq	r0, #13
     f5c:	000b269f 	muleq	fp, pc, r6	; <UNPREDICTABLE>
     f60:	c0230300 	eorgt	r0, r3, r0, lsl #6
     f64:	0d240b01 	fstmdbxeq	r4!, {d0-d-1}	;@ Deprecated
     f68:	a0030000 	andge	r0, r3, r0
     f6c:	00000b59 	andeq	r0, r0, r9, asr fp
     f70:	01c42303 	biceq	r2, r4, r3, lsl #6
     f74:	6273550c 	rsbsvs	r5, r3, #50331648	; 0x3000000
     f78:	26a10300 	strtcs	r0, [r1], r0, lsl #6
     f7c:	0300000b 	movweq	r0, #11
     f80:	0b01cc23 	bleq	74014 <__standby_start+0x74014>
     f84:	0000101b 	andeq	r1, r0, fp, lsl r0
     f88:	0b26a203 	bleq	9a979c <__standby_start+0x9a979c>
     f8c:	23030000 	movwcs	r0, #12288	; 0x3000
     f90:	740b01d0 	strvc	r0, [fp], #-464	; 0x1d0
     f94:	0300000c 	movweq	r0, #12
     f98:	000b6ea3 	andeq	r6, fp, r3, lsr #29
     f9c:	d4230300 	strtle	r0, [r3], #-768	; 0x300
     fa0:	10b50b01 	adcsne	r0, r5, r1, lsl #22
     fa4:	a4030000 	strge	r0, [r3], #-0
     fa8:	00000b26 	andeq	r0, r0, r6, lsr #22
     fac:	01f02303 	mvnseq	r2, r3, lsl #6
     fb0:	000ff70b 	andeq	pc, pc, fp, lsl #14
     fb4:	26a50300 	strtcs	r0, [r5], r0, lsl #6
     fb8:	0300000b 	movweq	r0, #11
     fbc:	0b01f423 	bleq	7e050 <__standby_start+0x7e050>
     fc0:	00001055 	andeq	r1, r0, r5, asr r0
     fc4:	0b26a603 	bleq	9aa7d8 <__standby_start+0x9aa7d8>
     fc8:	23030000 	movwcs	r0, #12288	; 0x3000
     fcc:	540b01f8 	strpl	r0, [fp], #-504	; 0x1f8
     fd0:	0300000e 	movweq	r0, #14
     fd4:	000b26a7 	andeq	r2, fp, r7, lsr #13
     fd8:	fc230300 	stc2	3, cr0, [r3], #-0
     fdc:	0e1f0b01 	vnmlseq.f64	d0, d15, d1
     fe0:	a8030000 	stmdage	r3, {}	; <UNPREDICTABLE>
     fe4:	00000b26 	andeq	r0, r0, r6, lsr #22
     fe8:	02802303 	addeq	r2, r0, #201326592	; 0xc000000
     fec:	000c230b 	andeq	r2, ip, fp, lsl #6
     ff0:	26a90300 	strtcs	r0, [r9], r0, lsl #6
     ff4:	0300000b 	movweq	r0, #11
     ff8:	0b028423 	bleq	a208c <__standby_start+0xa208c>
     ffc:	0000099a 	muleq	r0, sl, r9
    1000:	0b26aa03 	bleq	9ab814 <__standby_start+0x9ab814>
    1004:	23030000 	movwcs	r0, #12288	; 0x3000
    1008:	bb0b0288 	bllt	2c1a30 <__standby_start+0x2c1a30>
    100c:	0300000a 	movweq	r0, #10
    1010:	000b26ab 	andeq	r2, fp, fp, lsr #13
    1014:	8c230300 	stchi	3, cr0, [r3], #-0
    1018:	09a60b02 	stmibeq	r6!, {r1, r8, r9, fp}
    101c:	ac030000 	stcge	0, cr0, [r3], {-0}
    1020:	00000b26 	andeq	r0, r0, r6, lsr #22
    1024:	02902303 	addseq	r2, r0, #201326592	; 0xc000000
    1028:	0009b20b 	andeq	fp, r9, fp, lsl #4
    102c:	26ad0300 	strtcs	r0, [sp], r0, lsl #6
    1030:	0300000b 	movweq	r0, #11
    1034:	0b029423 	bleq	a60c8 <__standby_start+0xa60c8>
    1038:	000009f3 	strdeq	r0, [r0], -r3
    103c:	0b26ae03 	bleq	9ac850 <__standby_start+0x9ac850>
    1040:	23030000 	movwcs	r0, #12288	; 0x3000
    1044:	fb0b0298 	blx	2c1aae <__standby_start+0x2c1aae>
    1048:	03000009 	movweq	r0, #9
    104c:	000b26af 	andeq	r2, fp, pc, lsr #13
    1050:	9c230300 	stcls	3, cr0, [r3], #-0
    1054:	0c7f0b02 	ldcleq	11, cr0, [pc], #-8	; 1054 <__standby_start+0x1054>
    1058:	b0030000 	andlt	r0, r3, r0
    105c:	00000b83 	andeq	r0, r0, r3, lsl #23
    1060:	02a02303 	adceq	r2, r0, #201326592	; 0xc000000
    1064:	000ec70b 	andeq	ip, lr, fp, lsl #14
    1068:	26b10300 	ldrtcs	r0, [r1], r0, lsl #6
    106c:	0300000b 	movweq	r0, #11
    1070:	0b02b023 	bleq	ad104 <__standby_start+0xad104>
    1074:	00000f4b 	andeq	r0, r0, fp, asr #30
    1078:	0b26b203 	bleq	9ad88c <__standby_start+0x9ad88c>
    107c:	23030000 	movwcs	r0, #12288	; 0x3000
    1080:	170b02b4 			; <UNDEFINED> instruction: 0x170b02b4
    1084:	0300000a 	movweq	r0, #10
    1088:	000b26b3 			; <UNDEFINED> instruction: 0x000b26b3
    108c:	b8230300 	stmdalt	r3!, {r8, r9}
    1090:	65560c02 	ldrbvs	r0, [r6, #-3074]	; 0xc02
    1094:	26b40300 	ldrtcs	r0, [r4], r0, lsl #6
    1098:	0300000b 	movweq	r0, #11
    109c:	0b02bc23 	bleq	b0130 <__standby_start+0xb0130>
    10a0:	00000e12 	andeq	r0, r0, r2, lsl lr
    10a4:	0b26b503 	bleq	9ae4b8 <__standby_start+0x9ae4b8>
    10a8:	23030000 	movwcs	r0, #12288	; 0x3000
    10ac:	410c02c0 	smlabtmi	ip, r0, r2, r0
    10b0:	03007376 	movweq	r7, #886	; 0x376
    10b4:	000b26b6 			; <UNDEFINED> instruction: 0x000b26b6
    10b8:	c4230300 	strtgt	r0, [r3], #-768	; 0x300
    10bc:	0a230b02 	beq	8c3ccc <__standby_start+0x8c3ccc>
    10c0:	b7030000 	strlt	r0, [r3, -r0]
    10c4:	00000b26 	andeq	r0, r0, r6, lsr #22
    10c8:	02c82303 	sbceq	r2, r8, #201326592	; 0xc000000
    10cc:	000c8a0b 	andeq	r8, ip, fp, lsl #20
    10d0:	26b80300 	ldrtcs	r0, [r8], r0, lsl #6
    10d4:	0300000b 	movweq	r0, #11
    10d8:	0b02cc23 	bleq	b416c <__standby_start+0xb416c>
    10dc:	00000d2f 	andeq	r0, r0, pc, lsr #26
    10e0:	0b26b903 	bleq	9af4f4 <__standby_start+0x9af4f4>
    10e4:	23030000 	movwcs	r0, #12288	; 0x3000
    10e8:	9a0b02d0 	bls	2c1c30 <__standby_start+0x2c1c30>
    10ec:	0300000f 	movweq	r0, #15
    10f0:	000b26ba 			; <UNDEFINED> instruction: 0x000b26ba
    10f4:	d4230300 	strtle	r0, [r3], #-768	; 0x300
    10f8:	0aa30b02 	beq	fe8c3d08 <__bss_end+0xe8bfc08>
    10fc:	bb030000 	bllt	c1104 <__standby_start+0xc1104>
    1100:	00000b26 	andeq	r0, r0, r6, lsr #22
    1104:	02d82303 	sbcseq	r2, r8, #201326592	; 0xc000000
    1108:	000ae30b 	andeq	lr, sl, fp, lsl #6
    110c:	26bc0300 	ldrtcs	r0, [ip], r0, lsl #6
    1110:	0300000b 	movweq	r0, #11
    1114:	0b02dc23 	bleq	b81a8 <__standby_start+0xb81a8>
    1118:	00000aaf 	andeq	r0, r0, pc, lsr #21
    111c:	0b26bd03 	bleq	9b0530 <__standby_start+0x9b0530>
    1120:	23030000 	movwcs	r0, #12288	; 0x3000
    1124:	950b02e0 	strls	r0, [fp, #-736]	; 0x2e0
    1128:	0300000c 	movweq	r0, #12
    112c:	000b26be 			; <UNDEFINED> instruction: 0x000b26be
    1130:	e4230300 	strt	r0, [r3], #-768	; 0x300
    1134:	0f330b02 	svceq	0x00330b02
    1138:	bf030000 	svclt	0x00030000
    113c:	00000b26 	andeq	r0, r0, r6, lsr #22
    1140:	02e82303 	rsceq	r2, r8, #201326592	; 0xc000000
    1144:	000f3f0b 	andeq	r3, pc, fp, lsl #30
    1148:	26c00300 	strbcs	r0, [r0], r0, lsl #6
    114c:	0300000b 	movweq	r0, #11
    1150:	0b02ec23 	bleq	bc1e4 <__standby_start+0xbc1e4>
    1154:	00000ca0 	andeq	r0, r0, r0, lsr #25
    1158:	0b88c103 	bleq	fe23156c <__bss_end+0xe22d46c>
    115c:	23030000 	movwcs	r0, #12288	; 0x3000
    1160:	a80b02f0 	stmdage	fp, {r4, r5, r6, r7, r9}
    1164:	03000010 	movweq	r0, #16
    1168:	000b26c2 	andeq	r2, fp, r2, asr #13
    116c:	80230300 	eorhi	r0, r3, r0, lsl #6
    1170:	0b920b03 	bleq	fe483d84 <__bss_end+0xe47fc84>
    1174:	c3030000 	movwgt	r0, #12288	; 0x3000
    1178:	00000b26 	andeq	r0, r0, r6, lsr #22
    117c:	03842303 	orreq	r2, r4, #201326592	; 0xc000000
    1180:	000b9e0b 	andeq	r9, fp, fp, lsl #28
    1184:	26c40300 	strbcs	r0, [r4], r0, lsl #6
    1188:	0300000b 	movweq	r0, #11
    118c:	0b038823 	bleq	e3220 <__standby_start+0xe3220>
    1190:	00000baa 	andeq	r0, r0, sl, lsr #23
    1194:	0b26c503 	bleq	9b25a8 <__standby_start+0x9b25a8>
    1198:	23030000 	movwcs	r0, #12288	; 0x3000
    119c:	ab0b038c 	blge	2c1fd4 <__standby_start+0x2c1fd4>
    11a0:	0300000c 	movweq	r0, #12
    11a4:	000b8dc6 	andeq	r8, fp, r6, asr #27
    11a8:	90230300 	eorls	r0, r3, r0, lsl #6
    11ac:	0bbe0b03 	bleq	fef83dc0 <__bss_end+0xef7fcc0>
    11b0:	c7030000 	strgt	r0, [r3, -r0]
    11b4:	00000b26 	andeq	r0, r0, r6, lsr #22
    11b8:	03a02303 	moveq	r2, #201326592	; 0xc000000
    11bc:	000b660b 	andeq	r6, fp, fp, lsl #12
    11c0:	26c80300 	strbcs	r0, [r8], r0, lsl #6
    11c4:	0300000b 	movweq	r0, #11
    11c8:	0b03a423 	bleq	ea25c <__standby_start+0xea25c>
    11cc:	00000da3 	andeq	r0, r0, r3, lsr #27
    11d0:	0b26c903 	bleq	9b35e4 <__standby_start+0x9b35e4>
    11d4:	23030000 	movwcs	r0, #12288	; 0x3000
    11d8:	e80b03a8 	stmda	fp, {r3, r5, r7, r8, r9}
    11dc:	0300000b 	movweq	r0, #11
    11e0:	000b26ca 	andeq	r2, fp, sl, asr #13
    11e4:	ac230300 	stcge	3, cr0, [r3], #-0
    11e8:	0bf40b03 	bleq	ffd03dfc <__bss_end+0xfcffcfc>
    11ec:	cb030000 	blgt	c11f4 <__standby_start+0xc11f4>
    11f0:	00000b26 	andeq	r0, r0, r6, lsr #22
    11f4:	03b02303 	movseq	r2, #201326592	; 0xc000000
    11f8:	000d550b 	andeq	r5, sp, fp, lsl #10
    11fc:	a2cc0300 	sbcge	r0, ip, #0
    1200:	0300000b 	movweq	r0, #11
    1204:	0b03b423 	bleq	ee298 <__standby_start+0xee298>
    1208:	000009ed 	andeq	r0, r0, sp, ror #19
    120c:	0b26cd03 	bleq	9b4620 <__standby_start+0x9b4620>
    1210:	23030000 	movwcs	r0, #12288	; 0x3000
    1214:	490b03c0 	stmdbmi	fp, {r6, r7, r8, r9}
    1218:	0300000c 	movweq	r0, #12
    121c:	000bb7ce 	andeq	fp, fp, lr, asr #15
    1220:	c4230300 	strtgt	r0, [r3], #-768	; 0x300
    1224:	0bb60b03 	bleq	fed83e38 <__bss_end+0xed7fd38>
    1228:	cf030000 	svcgt	0x00030000
    122c:	00000bbc 			; <UNDEFINED> instruction: 0x00000bbc
    1230:	04802303 	streq	r2, [r0], #771	; 0x303
    1234:	000dfc0b 	andeq	pc, sp, fp, lsl #24
    1238:	26d00300 	ldrbcs	r0, [r0], r0, lsl #6
    123c:	0300000b 	movweq	r0, #11
    1240:	0b048423 	bleq	1222d4 <__standby_start+0x1222d4>
    1244:	0000105f 	andeq	r1, r0, pc, asr r0
    1248:	0b26d103 	bleq	9b565c <__standby_start+0x9b565c>
    124c:	23030000 	movwcs	r0, #12288	; 0x3000
    1250:	270b0488 	strcs	r0, [fp, -r8, lsl #9]
    1254:	03000010 	movweq	r0, #16
    1258:	000b26d2 	ldrdeq	r2, [fp], -r2	; <UNPREDICTABLE>
    125c:	8c230300 	stchi	3, cr0, [r3], #-0
    1260:	0b160b04 	bleq	583e78 <__standby_start+0x583e78>
    1264:	d3030000 	movwle	r0, #12288	; 0x3000
    1268:	00000bc1 	andeq	r0, r0, r1, asr #23
    126c:	04902303 	ldreq	r2, [r0], #771	; 0x303
    1270:	000cfb0b 	andeq	pc, ip, fp, lsl #22
    1274:	d6d50300 	ldrble	r0, [r5], r0, lsl #6
    1278:	0300000b 	movweq	r0, #11
    127c:	0b04a023 	bleq	129310 <__standby_start+0x129310>
    1280:	00000a83 	andeq	r0, r0, r3, lsl #21
    1284:	0b26d603 	bleq	9b6a98 <__standby_start+0x9b6a98>
    1288:	23030000 	movwcs	r0, #12288	; 0x3000
    128c:	df0b04a4 	svcle	0x000b04a4
    1290:	03000009 	movweq	r0, #9
    1294:	000b26d7 	ldrdeq	r2, [fp], -r7
    1298:	a8230300 	stmdage	r3!, {r8, r9}
    129c:	0d1a0b04 	vldreq	d0, [sl, #-16]
    12a0:	d8030000 	stmdale	r3, {}	; <UNPREDICTABLE>
    12a4:	00000b26 	andeq	r0, r0, r6, lsr #22
    12a8:	04ac2303 	strteq	r2, [ip], #771	; 0x303
    12ac:	000bd00b 	andeq	sp, fp, fp
    12b0:	26d90300 	ldrbcs	r0, [r9], r0, lsl #6
    12b4:	0300000b 	movweq	r0, #11
    12b8:	0b04b023 	bleq	12d34c <__standby_start+0x12d34c>
    12bc:	00000f8c 	andeq	r0, r0, ip, lsl #31
    12c0:	0b26da03 	bleq	9b7ad4 <__standby_start+0x9b7ad4>
    12c4:	23030000 	movwcs	r0, #12288	; 0x3000
    12c8:	d90b04b4 	stmdble	fp, {r2, r4, r5, r7, sl}
    12cc:	03000010 	movweq	r0, #16
    12d0:	000b26db 	ldrdeq	r2, [fp], -fp
    12d4:	b8230300 	stmdalt	r3!, {r8, r9}
    12d8:	0b520b04 	bleq	1483ef0 <__standby_start+0x1483ef0>
    12dc:	dc030000 	stcle	0, cr0, [r3], {-0}
    12e0:	00000b26 	andeq	r0, r0, r6, lsr #22
    12e4:	04bc2303 	ldrteq	r2, [ip], #771	; 0x303
    12e8:	000bdb0b 	andeq	sp, fp, fp, lsl #22
    12ec:	26dd0300 	ldrbcs	r0, [sp], r0, lsl #6
    12f0:	0300000b 	movweq	r0, #11
    12f4:	0b04c023 	bleq	131388 <__standby_start+0x131388>
    12f8:	00000ac8 	andeq	r0, r0, r8, asr #21
    12fc:	0b26de03 	bleq	9b8b10 <__standby_start+0x9b8b10>
    1300:	23030000 	movwcs	r0, #12288	; 0x3000
    1304:	3c0b04c4 	cfstrscc	mvf0, [fp], {196}	; 0xc4
    1308:	0300000e 	movweq	r0, #14
    130c:	000b26df 	ldrdeq	r2, [fp], -pc	; <UNPREDICTABLE>
    1310:	c8230300 	stmdagt	r3!, {r8, r9}
    1314:	0e750b04 	vaddeq.f64	d16, d5, d4
    1318:	e0030000 	and	r0, r3, r0
    131c:	00000b26 	andeq	r0, r0, r6, lsr #22
    1320:	04cc2303 	strbeq	r2, [ip], #771	; 0x303
    1324:	000adb0b 	andeq	sp, sl, fp, lsl #22
    1328:	26e20300 	strbtcs	r0, [r2], r0, lsl #6
    132c:	0300000b 	movweq	r0, #11
    1330:	0b04d023 	bleq	1353c4 <__standby_start+0x1353c4>
    1334:	00000e33 	andeq	r0, r0, r3, lsr lr
    1338:	0b26e303 	bleq	9b9f4c <__standby_start+0x9b9f4c>
    133c:	23030000 	movwcs	r0, #12288	; 0x3000
    1340:	220b04d4 	andcs	r0, fp, #-738197504	; 0xd4000000
    1344:	0300000b 	movweq	r0, #11
    1348:	000bdbe5 	andeq	sp, fp, r5, ror #23
    134c:	d8230300 	stmdale	r3!, {r8, r9}
    1350:	0e8e0b04 	vdiveq.f64	d0, d14, d4
    1354:	e6030000 	str	r0, [r3], -r0
    1358:	00000b26 	andeq	r0, r0, r6, lsr #22
    135c:	04e02303 	strbteq	r2, [r0], #771	; 0x303
    1360:	000b2e0b 	andeq	r2, fp, fp, lsl #28
    1364:	e0e70300 	rsc	r0, r7, r0, lsl #6
    1368:	0300000b 	movweq	r0, #11
    136c:	0b04e423 	bleq	13a400 <__standby_start+0x13a400>
    1370:	00000ae9 	andeq	r0, r0, r9, ror #21
    1374:	0b26e803 	bleq	9bb388 <__standby_start+0x9bb388>
    1378:	23030000 	movwcs	r0, #12288	; 0x3000
    137c:	3a0b04f0 	bcc	2c2744 <__standby_start+0x2c2744>
    1380:	0300000b 	movweq	r0, #11
    1384:	000be5e9 	andeq	lr, fp, r9, ror #11
    1388:	f4230300 	vld2.8	{d0-d3}, [r3], r0
    138c:	0dc80b04 	vstreq	d16, [r8, #16]
    1390:	ea030000 	b	c1398 <__standby_start+0xc1398>
    1394:	00000b26 	andeq	r0, r0, r6, lsr #22
    1398:	05802303 	streq	r2, [r0, #771]	; 0x303
    139c:	000e610b 	andeq	r6, lr, fp, lsl #2
    13a0:	26ec0300 	strbtcs	r0, [ip], r0, lsl #6
    13a4:	0300000b 	movweq	r0, #11
    13a8:	0b058423 	bleq	16243c <__standby_start+0x16243c>
    13ac:	00000d60 	andeq	r0, r0, r0, ror #26
    13b0:	0b26ed03 	bleq	9bc7c4 <__standby_start+0x9bc7c4>
    13b4:	23030000 	movwcs	r0, #12288	; 0x3000
    13b8:	050b0588 	streq	r0, [fp, #-1416]	; 0x588
    13bc:	0300000e 	movweq	r0, #14
    13c0:	000b26ee 	andeq	r2, fp, lr, ror #13
    13c4:	8c230300 	stchi	3, cr0, [r3], #-0
    13c8:	0fa60b05 	svceq	0x00a60b05
    13cc:	ef030000 	svc	0x00030000
    13d0:	00000b26 	andeq	r0, r0, r6, lsr #22
    13d4:	05902303 	ldreq	r2, [r0, #771]	; 0x303
    13d8:	000b460b 	andeq	r4, fp, fp, lsl #12
    13dc:	eaf00300 	b	ffc01fe4 <__bss_end+0xfbfdee4>
    13e0:	0300000b 	movweq	r0, #11
    13e4:	0b059423 	bleq	166478 <__standby_start+0x166478>
    13e8:	00000de8 	andeq	r0, r0, r8, ror #27
    13ec:	0b26f103 	bleq	9bd800 <__standby_start+0x9bd800>
    13f0:	23030000 	movwcs	r0, #12288	; 0x3000
    13f4:	370b05a4 	strcc	r0, [fp, -r4, lsr #11]
    13f8:	03000010 	movweq	r0, #16
    13fc:	000b26f2 	strdeq	r2, [fp], -r2	; <UNPREDICTABLE>
    1400:	a8230300 	stmdage	r3!, {r8, r9}
    1404:	09800b05 	stmibeq	r0, {r0, r2, r8, r9, fp}
    1408:	f3030000 	vhadd.u8	d0, d3, d0
    140c:	00000b26 	andeq	r0, r0, r6, lsr #22
    1410:	05ac2303 	streq	r2, [ip, #771]!	; 0x303
    1414:	000fe50b 	andeq	lr, pc, fp, lsl #10
    1418:	26f40300 	ldrbtcs	r0, [r4], r0, lsl #6
    141c:	0300000b 	movweq	r0, #11
    1420:	0b05b023 	bleq	16d4b4 <__standby_start+0x16d4b4>
    1424:	0000098d 	andeq	r0, r0, sp, lsl #19
    1428:	0beff503 	bleq	ffbfe83c <__bss_end+0xfbfa73c>
    142c:	23030000 	movwcs	r0, #12288	; 0x3000
    1430:	aa0b05b4 	bge	2c2b08 <__standby_start+0x2c2b08>
    1434:	0300000d 	movweq	r0, #13
    1438:	000b26f7 	strdeq	r2, [fp], -r7
    143c:	c0230300 	eorgt	r0, r3, r0, lsl #6
    1440:	0db40b05 	ldceq	11, cr0, [r4, #20]!
    1444:	f8030000 			; <UNDEFINED> instruction: 0xf8030000
    1448:	00000b26 	andeq	r0, r0, r6, lsr #22
    144c:	05c42303 	strbeq	r2, [r4, #771]	; 0x303
    1450:	000dbe0b 	andeq	fp, sp, fp, lsl #28
    1454:	26f90300 	ldrbtcs	r0, [r9], r0, lsl #6
    1458:	0300000b 	movweq	r0, #11
    145c:	0b05c823 	bleq	1734f0 <__standby_start+0x1734f0>
    1460:	00000d04 	andeq	r0, r0, r4, lsl #26
    1464:	0b26fa03 	bleq	9bfc78 <__standby_start+0x9bfc78>
    1468:	23030000 	movwcs	r0, #12288	; 0x3000
    146c:	cf0b05cc 	svcgt	0x000b05cc
    1470:	0300000e 	movweq	r0, #14
    1474:	000b26fb 	strdeq	r2, [fp], -fp
    1478:	d0230300 	eorle	r0, r3, r0, lsl #6
    147c:	0d0f0b05 	vstreq	d0, [pc, #-20]	; 1470 <__standby_start+0x1470>
    1480:	fc030000 	stc2	0, cr0, [r3], {-0}
    1484:	00000b26 	andeq	r0, r0, r6, lsr #22
    1488:	05d42303 	ldrbeq	r2, [r4, #771]	; 0x303
    148c:	000b880b 	andeq	r8, fp, fp, lsl #16
    1490:	26fd0300 	ldrbtcs	r0, [sp], r0, lsl #6
    1494:	0300000b 	movweq	r0, #11
    1498:	0005d823 	andeq	sp, r5, r3, lsr #16
    149c:	0001230d 	andeq	r2, r1, sp, lsl #6
    14a0:	00530d00 	subseq	r0, r3, r0, lsl #26
    14a4:	de0d0000 	cdple	0, 0, cr0, cr13, cr0, {0}
    14a8:	0d000001 	stceq	0, cr0, [r0, #-4]
    14ac:	0000026d 	andeq	r0, r0, sp, ror #4
    14b0:	0003060d 	andeq	r0, r3, sp, lsl #12
    14b4:	00530e00 	subseq	r0, r3, r0, lsl #28
    14b8:	0b4a0000 	bleq	12814c0 <__standby_start+0x12814c0>
    14bc:	5e0f0000 	cdppl	0, 0, cr0, cr15, cr0, {0}
    14c0:	01000000 	mrseq	r0, (UNDEF: 0)
    14c4:	0b3a0d00 	bleq	e848cc <__standby_start+0xe848cc>
    14c8:	3a0d0000 	bcc	3414d0 <__standby_start+0x3414d0>
    14cc:	0d00000b 	stceq	0, cr0, [r0, #-44]	; 0xffffffd4
    14d0:	00000b3a 	andeq	r0, r0, sl, lsr fp
    14d4:	000b3a0d 	andeq	r3, fp, sp, lsl #20
    14d8:	00530e00 	subseq	r0, r3, r0, lsl #28
    14dc:	0b6e0000 	bleq	1b814e4 <__standby_start+0x1b814e4>
    14e0:	5e0f0000 	cdppl	0, 0, cr0, cr15, cr0, {0}
    14e4:	06000000 	streq	r0, [r0], -r0
    14e8:	0b5e0d00 	bleq	17848f0 <__standby_start+0x17848f0>
    14ec:	530e0000 	movwpl	r0, #57344	; 0xe000
    14f0:	83000000 	movwhi	r0, #0
    14f4:	0f00000b 	svceq	0x0000000b
    14f8:	0000005e 	andeq	r0, r0, lr, asr r0
    14fc:	730d0003 	movwvc	r0, #53251	; 0xd003
    1500:	0d00000b 	stceq	0, cr0, [r0, #-44]	; 0xffffffd4
    1504:	00000b73 	andeq	r0, r0, r3, ror fp
    1508:	000b730d 	andeq	r7, fp, sp, lsl #6
    150c:	00530e00 	subseq	r0, r3, r0, lsl #28
    1510:	0ba20000 	bleq	fe881518 <__bss_end+0xe87d418>
    1514:	5e0f0000 	cdppl	0, 0, cr0, cr15, cr0, {0}
    1518:	02000000 	andeq	r0, r0, #0
    151c:	0b920d00 	bleq	fe484924 <__bss_end+0xe480824>
    1520:	530e0000 	movwpl	r0, #57344	; 0xe000
    1524:	b7000000 	strlt	r0, [r0, -r0]
    1528:	0f00000b 	svceq	0x0000000b
    152c:	0000005e 	andeq	r0, r0, lr, asr r0
    1530:	a70d000e 	strge	r0, [sp, -lr]
    1534:	0d00000b 	stceq	0, cr0, [r0, #-44]	; 0xffffffd4
    1538:	00000340 	andeq	r0, r0, r0, asr #6
    153c:	000b730d 	andeq	r7, fp, sp, lsl #6
    1540:	00530e00 	subseq	r0, r3, r0, lsl #28
    1544:	0bd60000 	bleq	ff58154c <__bss_end+0xf57d44c>
    1548:	5e0f0000 	cdppl	0, 0, cr0, cr15, cr0, {0}
    154c:	00000000 	andeq	r0, r0, r0
    1550:	0bc60d00 	bleq	ff184958 <__bss_end+0xf180858>
    1554:	3a0d0000 	bcc	34155c <__standby_start+0x34155c>
    1558:	0d00000b 	stceq	0, cr0, [r0, #-44]	; 0xffffffd4
    155c:	00000b92 	muleq	r0, r2, fp
    1560:	000b920d 	andeq	r9, fp, sp, lsl #4
    1564:	0b730d00 	bleq	1cc496c <__standby_start+0x1cc496c>
    1568:	920d0000 	andls	r0, sp, #0
    156c:	0300000b 	movweq	r0, #11
    1570:	00000fc9 	andeq	r0, r0, r9, asr #31
    1574:	034bfe03 	movteq	pc, #48643	; 0xbe03	; <UNPREDICTABLE>
    1578:	04100000 	ldreq	r0, [r0], #-0
    157c:	00000bf4 	strdeq	r0, [r0], -r4
    1580:	00087711 	andeq	r7, r8, r1, lsl r7
    1584:	89040400 	stmdbhi	r4, {sl}
    1588:	00000c72 	andeq	r0, r0, r2, ror ip
    158c:	0006af12 	andeq	sl, r6, r2, lsl pc
    1590:	3d120000 	ldccc	0, cr0, [r2, #-0]
    1594:	01000003 	tsteq	r0, r3
    1598:	00076812 	andeq	r6, r7, r2, lsl r8
    159c:	31120200 	tstcc	r2, r0, lsl #4
    15a0:	03000003 	movweq	r0, #3
    15a4:	00043712 	andeq	r3, r4, r2, lsl r7
    15a8:	bc120400 	cfldrslt	mvf0, [r2], {-0}
    15ac:	05000006 	streq	r0, [r0, #-6]
    15b0:	0003f012 	andeq	pc, r3, r2, lsl r0	; <UNPREDICTABLE>
    15b4:	61120600 	tstvs	r2, r0, lsl #12
    15b8:	07000008 	streq	r0, [r0, -r8]
    15bc:	00046a12 	andeq	r6, r4, r2, lsl sl
    15c0:	02120800 	andseq	r0, r2, #0
    15c4:	09000009 	stmdbeq	r0, {r0, r3}
    15c8:	00064a12 	andeq	r4, r6, r2, lsl sl
    15cc:	72120a00 	andsvc	r0, r2, #0
    15d0:	0b000006 	bleq	15f0 <__standby_start+0x15f0>
    15d4:	00087112 	andeq	r7, r8, r2, lsl r1
    15d8:	c2120c00 	andsgt	r0, r2, #0
    15dc:	0d000007 	stceq	0, cr0, [r0, #-28]	; 0xffffffe4
    15e0:	00062912 	andeq	r2, r6, r2, lsl r9
    15e4:	00120e00 	andseq	r0, r2, r0, lsl #28
    15e8:	0f000008 	svceq	0x00000008
    15ec:	08010200 	stmdaeq	r1, {r9}
    15f0:	000007b6 			; <UNDEFINED> instruction: 0x000007b6
    15f4:	4f070402 	svcmi	0x00070402
    15f8:	13000002 	movwne	r0, #2
    15fc:	09be1404 	ldmibeq	lr!, {r2, sl, ip}
    1600:	47010000 	strmi	r0, [r1, -r0]
    1604:	9d010103 	stflss	f0, [r1, #-12]
    1608:	1500000c 	strne	r0, [r0, #-12]
    160c:	00706d74 	rsbseq	r6, r0, r4, ror sp
    1610:	53034a01 	movwpl	r4, #14849	; 0x3a01
    1614:	00000000 	andeq	r0, r0, r0
    1618:	0c2f0116 	stfeqs	f0, [pc], #-88	; 15c8 <__standby_start+0x15c8>
    161c:	05010000 	streq	r0, [r1, #-0]
    1620:	00410103 	subeq	r0, r1, r3, lsl #2
    1624:	040c0000 	streq	r0, [ip], #-0
    1628:	0434f000 	ldrteq	pc, [r4], #-0	; <UNPREDICTABLE>
    162c:	7d02f000 	stcvc	0, cr15, [r2, #-0]
    1630:	6d011600 	stcvs	6, cr1, [r1, #-0]
    1634:	0100000b 	tsteq	r0, fp
    1638:	41010321 	tstmi	r1, r1, lsr #6
    163c:	34000000 	strcc	r0, [r0], #-0
    1640:	3cf00004 	ldclcc	0, cr0, [r0], #16
    1644:	02f00004 	rscseq	r0, r0, #4
    1648:	0116007d 	tsteq	r6, sp, ror r0
    164c:	00000a4f 	andeq	r0, r0, pc, asr #20
    1650:	01033101 	tsteq	r3, r1, lsl #2
    1654:	00000041 	andeq	r0, r0, r1, asr #32
    1658:	f000043c 			; <UNDEFINED> instruction: 0xf000043c
    165c:	f000045c 			; <UNDEFINED> instruction: 0xf000045c
    1660:	17007d02 	strne	r7, [r0, -r2, lsl #26]
    1664:	000d3701 	andeq	r3, sp, r1, lsl #14
    1668:	035f0100 	cmpeq	pc, #0
    166c:	00004101 	andeq	r4, r0, r1, lsl #2
    1670:	00045c00 	andeq	r5, r4, r0, lsl #24
    1674:	000494f0 	strdeq	r9, [r4], -r0
    1678:	007d02f0 	ldrshteq	r0, [sp], #-32	; 0xffffffe0
    167c:	00000d2a 	andeq	r0, r0, sl, lsr #26
    1680:	000c8218 	andeq	r8, ip, r8, lsl r2
    1684:	00045c00 	andeq	r5, r4, r0, lsl #24
    1688:	000490f0 	strdeq	r9, [r4], -r0
    168c:	036301f0 	cmneq	r3, #60	; 0x3c
    1690:	00045c19 	andeq	r5, r4, r9, lsl ip
    1694:	000490f0 	strdeq	r9, [r4], -r0
    1698:	0c901af0 	vldmiaeq	r0, {s2-s241}
    169c:	00970000 	addseq	r0, r7, r0
    16a0:	00000000 	andeq	r0, r0, r0
    16a4:	7e011b00 	vmlavc.f64	d1, d1, d0
    16a8:	01000003 	tsteq	r0, r3
    16ac:	94010370 	strls	r0, [r1], #-880	; 0x370
    16b0:	b4f00004 	ldrbtlt	r0, [r0], #4
    16b4:	02f00004 	rscseq	r0, r0, #4
    16b8:	501c007d 	andspl	r0, ip, sp, ror r0
    16bc:	0100000f 	tsteq	r0, pc
    16c0:	000c801e 	andeq	r8, ip, lr, lsl r0
    16c4:	0c030500 	cfstr32eq	mvfx0, [r3], {-0}
    16c8:	1cf0003d 	ldclne	0, cr0, [r0], #244	; 0xf4
    16cc:	00000f6c 	andeq	r0, r0, ip, ror #30
    16d0:	0bff2101 	bleq	fffc9adc <__bss_end+0xffc59dc>
    16d4:	03050000 	movweq	r0, #20480	; 0x5000
    16d8:	f0003d10 			; <UNDEFINED> instruction: 0xf0003d10
    16dc:	000a901c 	andeq	r9, sl, ip, lsl r0
    16e0:	232a0100 	teqcs	sl, #0
    16e4:	05000001 	streq	r0, [r0, #-1]
    16e8:	003d1803 	eorseq	r1, sp, r3, lsl #16
    16ec:	0fb41cf0 	svceq	0x00b41cf0
    16f0:	2b010000 	blcs	416f8 <__standby_start+0x416f8>
    16f4:	000001de 	ldrdeq	r0, [r0], -lr
    16f8:	3d140305 	ldccc	3, cr0, [r4, #-20]	; 0xffffffec
    16fc:	d300f000 	movwle	pc, #0	; <UNPREDICTABLE>
    1700:	02000000 	andeq	r0, r0, #0
    1704:	00043400 	andeq	r3, r4, r0, lsl #8
    1708:	fd010400 	stc2	4, cr0, [r1, #-0]
    170c:	01000003 	tsteq	r0, r3
    1710:	00001121 	andeq	r1, r0, r1, lsr #2
    1714:	00000535 	andeq	r0, r0, r5, lsr r5
    1718:	f00004b4 			; <UNDEFINED> instruction: 0xf00004b4
    171c:	f00004d4 			; <UNDEFINED> instruction: 0xf00004d4
    1720:	000002f1 	strdeq	r0, [r0], -r1
    1724:	af060102 	svcge	0x00060102
    1728:	02000007 	andeq	r0, r0, #7
    172c:	07ad0801 	streq	r0, [sp, r1, lsl #16]!
    1730:	02020000 	andeq	r0, r2, #0
    1734:	00066805 	andeq	r6, r6, r5, lsl #16
    1738:	07020200 	streq	r0, [r2, -r0, lsl #4]
    173c:	0000087f 	andeq	r0, r0, pc, ror r8
    1740:	000e4e03 	andeq	r4, lr, r3, lsl #28
    1744:	4c120200 	lfmmi	f0, 4, [r2], {-0}
    1748:	04000000 	streq	r0, [r0], #-0
    174c:	6e690504 	cdpvs	5, 6, cr0, cr9, cr4, {0}
    1750:	04020074 	streq	r0, [r2], #-116	; 0x74
    1754:	00025407 	andeq	r5, r2, r7, lsl #8
    1758:	05080200 	streq	r0, [r8, #-512]	; 0x200
    175c:	0000047d 	andeq	r0, r0, sp, ror r4
    1760:	4a070802 	bmi	1c3770 <__standby_start+0x1c3770>
    1764:	02000002 	andeq	r0, r0, #2
    1768:	07b60801 	ldreq	r0, [r6, r1, lsl #16]!
    176c:	04020000 	streq	r0, [r2], #-0
    1770:	00024f07 	andeq	r4, r2, r7, lsl #30
    1774:	4d010500 	cfstr32mi	mvfx0, [r1, #-0]
    1778:	01000011 	tsteq	r0, r1, lsl r0
    177c:	00410123 	subeq	r0, r1, r3, lsr #2
    1780:	04b40000 	ldrteq	r0, [r4], #0
    1784:	04bcf000 	ldrteq	pc, [ip], #0	; <UNPREDICTABLE>
    1788:	7d02f000 	stcvc	0, cr15, [r2, #-0]
    178c:	ff010500 			; <UNDEFINED> instruction: 0xff010500
    1790:	01000010 	tsteq	r0, r0, lsl r0
    1794:	00410136 	subeq	r0, r1, r6, lsr r1
    1798:	04bc0000 	ldrteq	r0, [ip], #0
    179c:	04c4f000 	strbeq	pc, [r4], #0	; <UNPREDICTABLE>
    17a0:	7d02f000 	stcvc	0, cr15, [r2, #-0]
    17a4:	5d010500 	cfstr32pl	mvfx0, [r1, #-0]
    17a8:	01000011 	tsteq	r0, r1, lsl r0
    17ac:	00410149 	subeq	r0, r1, r9, asr #2
    17b0:	04c40000 	strbeq	r0, [r4], #0
    17b4:	04ccf000 	strbeq	pc, [ip], #0	; <UNPREDICTABLE>
    17b8:	7d02f000 	stcvc	0, cr15, [r2, #-0]
    17bc:	0f010500 	svceq	0x00010500
    17c0:	01000011 	tsteq	r0, r1, lsl r0
    17c4:	0041015b 	subeq	r0, r1, fp, asr r1
    17c8:	04cc0000 	strbeq	r0, [ip], #0
    17cc:	04d4f000 	ldrbeq	pc, [r4], #0	; <UNPREDICTABLE>
    17d0:	7d02f000 	stcvc	0, cr15, [r2, #-0]
    17d4:	01f10000 	mvnseq	r0, r0
    17d8:	00020000 	andeq	r0, r2, r0
    17dc:	00000482 	andeq	r0, r0, r2, lsl #9
    17e0:	03fd0104 	mvnseq	r0, #1
    17e4:	77010000 	strvc	r0, [r1, -r0]
    17e8:	35000011 	strcc	r0, [r0, #-17]
    17ec:	d4000005 	strle	r0, [r0], #-5
    17f0:	74f00004 	ldrbtvc	r0, [r0], #4
    17f4:	89f00005 	ldmibhi	r0!, {r0, r2}^
    17f8:	02000003 	andeq	r0, r0, #3
    17fc:	07af0601 	streq	r0, [pc, r1, lsl #12]!
    1800:	01020000 	mrseq	r0, (UNDEF: 2)
    1804:	0007ad08 	andeq	sl, r7, r8, lsl #26
    1808:	05020200 	streq	r0, [r2, #-512]	; 0x200
    180c:	00000668 	andeq	r0, r0, r8, ror #12
    1810:	7f070202 	svcvc	0x00070202
    1814:	03000008 	movweq	r0, #8
    1818:	00000e4e 	andeq	r0, r0, lr, asr #28
    181c:	004c1202 	subeq	r1, ip, r2, lsl #4
    1820:	04040000 	streq	r0, [r4], #-0
    1824:	746e6905 	strbtvc	r6, [lr], #-2309	; 0x905
    1828:	04430300 	strbeq	r0, [r3], #-768	; 0x300
    182c:	13020000 	movwne	r0, #8192	; 0x2000
    1830:	0000005e 	andeq	r0, r0, lr, asr r0
    1834:	54070402 	strpl	r0, [r7], #-1026	; 0x402
    1838:	02000002 	andeq	r0, r0, #2
    183c:	047d0508 	ldrbteq	r0, [sp], #-1288	; 0x508
    1840:	08020000 	stmdaeq	r2, {}	; <UNPREDICTABLE>
    1844:	00024a07 	andeq	r4, r2, r7, lsl #20
    1848:	00530500 	subseq	r0, r3, r0, lsl #10
    184c:	77060000 	strvc	r0, [r6, -r0]
    1850:	04000008 	streq	r0, [r0], #-8
    1854:	00e58904 	rsceq	r8, r5, r4, lsl #18
    1858:	af070000 	svcge	0x00070000
    185c:	00000006 	andeq	r0, r0, r6
    1860:	00033d07 	andeq	r3, r3, r7, lsl #26
    1864:	68070100 	stmdavs	r7, {r8}
    1868:	02000007 	andeq	r0, r0, #7
    186c:	00033107 	andeq	r3, r3, r7, lsl #2
    1870:	37070300 	strcc	r0, [r7, -r0, lsl #6]
    1874:	04000004 	streq	r0, [r0], #-4
    1878:	0006bc07 	andeq	fp, r6, r7, lsl #24
    187c:	f0070500 			; <UNDEFINED> instruction: 0xf0070500
    1880:	06000003 	streq	r0, [r0], -r3
    1884:	00086107 	andeq	r6, r8, r7, lsl #2
    1888:	6a070700 	bvs	1c3490 <__standby_start+0x1c3490>
    188c:	08000004 	stmdaeq	r0, {r2}
    1890:	00090207 	andeq	r0, r9, r7, lsl #4
    1894:	4a070900 	bmi	1c3c9c <__standby_start+0x1c3c9c>
    1898:	0a000006 	beq	18b8 <__standby_start+0x18b8>
    189c:	00067207 	andeq	r7, r6, r7, lsl #4
    18a0:	71070b00 	tstvc	r7, r0, lsl #22
    18a4:	0c000008 	stceq	0, cr0, [r0], {8}
    18a8:	0007c207 	andeq	ip, r7, r7, lsl #4
    18ac:	29070d00 	stmdbcs	r7, {r8, sl, fp}
    18b0:	0e000006 	cdpeq	0, 0, cr0, cr0, cr6, {0}
    18b4:	00080007 	andeq	r0, r8, r7
    18b8:	02000f00 	andeq	r0, r0, #0
    18bc:	07b60801 	ldreq	r0, [r6, r1, lsl #16]!
    18c0:	04020000 	streq	r0, [r2], #-0
    18c4:	00024f07 	andeq	r4, r2, r7, lsl #30
    18c8:	12020800 	andne	r0, r2, #0
    18cc:	03140000 	tsteq	r4, #0
    18d0:	00014617 	andeq	r4, r1, r7, lsl r6
    18d4:	11e60900 	mvnne	r0, r0, lsl #18
    18d8:	1a030000 	bne	c18e0 <__standby_start+0xc18e0>
    18dc:	00000073 	andeq	r0, r0, r3, ror r0
    18e0:	09002302 	stmdbeq	r0, {r1, r8, r9, sp}
    18e4:	00001228 	andeq	r1, r0, r8, lsr #4
    18e8:	00731b03 	rsbseq	r1, r3, r3, lsl #22
    18ec:	23020000 	movwcs	r0, #8192	; 0x2000
    18f0:	12330904 	eorsne	r0, r3, #65536	; 0x10000
    18f4:	1c030000 	stcne	0, cr0, [r3], {-0}
    18f8:	00000073 	andeq	r0, r0, r3, ror r0
    18fc:	09082302 	stmdbeq	r8, {r1, r8, r9, sp}
    1900:	000011c7 	andeq	r1, r0, r7, asr #3
    1904:	00731d03 	rsbseq	r1, r3, r3, lsl #26
    1908:	23020000 	movwcs	r0, #8192	; 0x2000
    190c:	11d3090c 	bicsne	r0, r3, ip, lsl #18
    1910:	1e030000 	cdpne	0, 0, cr0, cr3, cr0, {0}
    1914:	00000073 	andeq	r0, r0, r3, ror r0
    1918:	00102302 	andseq	r2, r0, r2, lsl #6
    191c:	00121403 	andseq	r1, r2, r3, lsl #8
    1920:	f31f0300 	vcgt.u16	d0, d15, d0
    1924:	0a000000 	beq	192c <__standby_start+0x192c>
    1928:	00124f01 	andseq	r4, r2, r1, lsl #30
    192c:	01270100 	teqeq	r7, r0, lsl #2
    1930:	00000041 	andeq	r0, r0, r1, asr #32
    1934:	f00004d4 			; <UNDEFINED> instruction: 0xf00004d4
    1938:	f000052c 			; <UNDEFINED> instruction: 0xf000052c
    193c:	000000c5 	andeq	r0, r0, r5, asr #1
    1940:	11a4010b 			; <UNDEFINED> instruction: 0x11a4010b
    1944:	45010000 	strmi	r0, [r1, #-0]
    1948:	00004101 	andeq	r4, r0, r1, lsl #2
    194c:	00052c00 	andeq	r2, r5, r0, lsl #24
    1950:	00054cf0 	strdeq	r4, [r5], -r0
    1954:	007d02f0 	ldrshteq	r0, [sp], #-32	; 0xffffffe0
    1958:	11b5010b 			; <UNDEFINED> instruction: 0x11b5010b
    195c:	58010000 	stmdapl	r1, {}	; <UNPREDICTABLE>
    1960:	00004101 	andeq	r4, r0, r1, lsl #2
    1964:	00054c00 	andeq	r4, r5, r0, lsl #24
    1968:	000574f0 	strdeq	r7, [r5], -r0
    196c:	007d02f0 	ldrshteq	r0, [sp], #-32	; 0xffffffe0
    1970:	0011df0c 	andseq	sp, r1, ip, lsl #30
    1974:	ab140100 	blge	501d7c <__standby_start+0x501d7c>
    1978:	05000001 	streq	r0, [r0, #-1]
    197c:	003d1c03 	eorseq	r1, sp, r3, lsl #24
    1980:	46040df0 			; <UNDEFINED> instruction: 0x46040df0
    1984:	0c000001 	stceq	0, cr0, [r0], {1}
    1988:	000011fa 	strdeq	r1, [r0], -sl
    198c:	00531501 	subseq	r1, r3, r1, lsl #10
    1990:	03050000 	movweq	r0, #20480	; 0x5000
    1994:	f0003d20 			; <UNDEFINED> instruction: 0xf0003d20
    1998:	0012470c 	andseq	r4, r2, ip, lsl #14
    199c:	53150100 	tstpl	r5, #0
    19a0:	05000000 	streq	r0, [r0, #-0]
    19a4:	003d2403 	eorseq	r2, sp, r3, lsl #8
    19a8:	116f0ef0 	strdne	r0, [pc, #-224]	; 18d0 <__standby_start+0x18d0>
    19ac:	15010000 	strne	r0, [r1, #-0]
    19b0:	00000053 	andeq	r0, r0, r3, asr r0
    19b4:	00123e0e 	andseq	r3, r2, lr, lsl #28
    19b8:	53150100 	tstpl	r5, #0
    19bc:	0e000000 	cdpeq	0, 0, cr0, cr0, cr0, {0}
    19c0:	000011f1 	strdeq	r1, [r0], -r1	; <UNPREDICTABLE>
    19c4:	00531501 	subseq	r1, r3, r1, lsl #10
    19c8:	73000000 	movwvc	r0, #0
    19cc:	02000004 	andeq	r0, r0, #4
    19d0:	00054900 	andeq	r4, r5, r0, lsl #18
    19d4:	fd010400 	stc2	4, cr0, [r1, #-0]
    19d8:	01000003 	tsteq	r0, r3
    19dc:	000013ca 	andeq	r1, r0, sl, asr #7
    19e0:	00000535 	andeq	r0, r0, r5, lsr r5
    19e4:	f0000574 			; <UNDEFINED> instruction: 0xf0000574
    19e8:	f00009dc 			; <UNDEFINED> instruction: 0xf00009dc
    19ec:	0000046f 	andeq	r0, r0, pc, ror #8
    19f0:	af060102 	svcge	0x00060102
    19f4:	03000007 	movweq	r0, #7
    19f8:	000013f8 	strdeq	r1, [r0], -r8
    19fc:	00370f02 	eorseq	r0, r7, r2, lsl #30
    1a00:	01020000 	mrseq	r0, (UNDEF: 2)
    1a04:	0007ad08 	andeq	sl, r7, r8, lsl #26
    1a08:	05020200 	streq	r0, [r2, #-512]	; 0x200
    1a0c:	00000668 	andeq	r0, r0, r8, ror #12
    1a10:	7f070202 	svcvc	0x00070202
    1a14:	03000008 	movweq	r0, #8
    1a18:	00000e4e 	andeq	r0, r0, lr, asr #28
    1a1c:	00571202 	subseq	r1, r7, r2, lsl #4
    1a20:	04040000 	streq	r0, [r4], #-0
    1a24:	746e6905 	strbtvc	r6, [lr], #-2309	; 0x905
    1a28:	04430300 	strbeq	r0, [r3], #-768	; 0x300
    1a2c:	13020000 	movwne	r0, #8192	; 0x2000
    1a30:	00000069 	andeq	r0, r0, r9, rrx
    1a34:	54070402 	strpl	r0, [r7], #-1026	; 0x402
    1a38:	02000002 	andeq	r0, r0, #2
    1a3c:	047d0508 	ldrbteq	r0, [sp], #-1288	; 0x508
    1a40:	08020000 	stmdaeq	r2, {}	; <UNPREDICTABLE>
    1a44:	00024a07 	andeq	r4, r2, r7, lsl #20
    1a48:	13b90500 			; <UNDEFINED> instruction: 0x13b90500
    1a4c:	03040000 	movweq	r0, #16384	; 0x4000
    1a50:	0000b67d 	andeq	fp, r0, sp, ror r6
    1a54:	12750600 	rsbsne	r0, r5, #0
    1a58:	06010000 	streq	r0, [r1], -r0
    1a5c:	00001282 	andeq	r1, r0, r2, lsl #5
    1a60:	143b0602 	ldrtne	r0, [fp], #-1538	; 0x602
    1a64:	06040000 	streq	r0, [r4], -r0
    1a68:	000012ae 	andeq	r1, r0, lr, lsr #5
    1a6c:	12ba0608 	adcsne	r0, sl, #8388608	; 0x800000
    1a70:	06100000 	ldreq	r0, [r0], -r0
    1a74:	00001455 	andeq	r1, r0, r5, asr r4
    1a78:	14470620 	strbne	r0, [r7], #-1568	; 0x620
    1a7c:	00c00000 	sbceq	r0, r0, r0
    1a80:	08770500 	ldmdaeq	r7!, {r8, sl}^
    1a84:	03040000 	movweq	r0, #16384	; 0x4000
    1a88:	00012389 	andeq	r2, r1, r9, lsl #7
    1a8c:	06af0600 	strteq	r0, [pc], r0, lsl #12
    1a90:	06000000 	streq	r0, [r0], -r0
    1a94:	0000033d 	andeq	r0, r0, sp, lsr r3
    1a98:	07680601 	strbeq	r0, [r8, -r1, lsl #12]!
    1a9c:	06020000 	streq	r0, [r2], -r0
    1aa0:	00000331 	andeq	r0, r0, r1, lsr r3
    1aa4:	04370603 	ldrteq	r0, [r7], #-1539	; 0x603
    1aa8:	06040000 	streq	r0, [r4], -r0
    1aac:	000006bc 			; <UNDEFINED> instruction: 0x000006bc
    1ab0:	03f00605 	mvnseq	r0, #5242880	; 0x500000
    1ab4:	06060000 	streq	r0, [r6], -r0
    1ab8:	00000861 	andeq	r0, r0, r1, ror #16
    1abc:	046a0607 	strbteq	r0, [sl], #-1543	; 0x607
    1ac0:	06080000 	streq	r0, [r8], -r0
    1ac4:	00000902 	andeq	r0, r0, r2, lsl #18
    1ac8:	064a0609 	strbeq	r0, [sl], -r9, lsl #12
    1acc:	060a0000 	streq	r0, [sl], -r0
    1ad0:	00000672 	andeq	r0, r0, r2, ror r6
    1ad4:	0871060b 	ldmdaeq	r1!, {r0, r1, r3, r9, sl}^
    1ad8:	060c0000 	streq	r0, [ip], -r0
    1adc:	000007c2 	andeq	r0, r0, r2, asr #15
    1ae0:	0629060d 	strteq	r0, [r9], -sp, lsl #12
    1ae4:	060e0000 	streq	r0, [lr], -r0
    1ae8:	00000800 	andeq	r0, r0, r0, lsl #16
    1aec:	0102000f 	tsteq	r2, pc
    1af0:	0007b608 	andeq	fp, r7, r8, lsl #12
    1af4:	07040200 	streq	r0, [r4, -r0, lsl #4]
    1af8:	0000024f 	andeq	r0, r0, pc, asr #4
    1afc:	00146105 	andseq	r6, r4, r5, lsl #2
    1b00:	29040400 	stmdbcs	r4, {sl}
    1b04:	0000014a 	andeq	r0, r0, sl, asr #2
    1b08:	00137406 	andseq	r7, r3, r6, lsl #8
    1b0c:	6f060000 	svcvs	0x00060000
    1b10:	01000014 	tsteq	r0, r4, lsl r0
    1b14:	137e0500 	cmnne	lr, #0
    1b18:	05040000 	streq	r0, [r4, #-0]
    1b1c:	00018117 	andeq	r8, r1, r7, lsl r1
    1b20:	12c60600 	sbcne	r0, r6, #0
    1b24:	06000000 	streq	r0, [r0], -r0
    1b28:	000012d6 	ldrdeq	r1, [r0], -r6
    1b2c:	132b0601 	teqne	fp, #1048576	; 0x100000
    1b30:	06020000 	streq	r0, [r2], -r0
    1b34:	0000133a 	andeq	r1, r0, sl, lsr r3
    1b38:	13490603 	movtne	r0, #38403	; 0x9603
    1b3c:	06040000 	streq	r0, [r4], -r0
    1b40:	00001358 	andeq	r1, r0, r8, asr r3
    1b44:	14070605 	strne	r0, [r7], #-1541	; 0x605
    1b48:	00060000 	andeq	r0, r6, r0
    1b4c:	00141507 	andseq	r1, r4, r7, lsl #10
    1b50:	46051c00 	strmi	r1, [r5], -r0, lsl #24
    1b54:	000001ef 	andeq	r0, r0, pc, ror #3
    1b58:	00646908 	rsbeq	r6, r4, r8, lsl #18
    1b5c:	014a4705 	cmpeq	sl, r5, lsl #14
    1b60:	23020000 	movwcs	r0, #8192	; 0x2000
    1b64:	13240900 	teqne	r4, #0
    1b68:	48050000 	stmdami	r5, {}	; <UNPREDICTABLE>
    1b6c:	00000057 	andeq	r0, r0, r7, asr r0
    1b70:	09042302 	stmdbeq	r4, {r1, r8, r9, sp}
    1b74:	000012f1 	strdeq	r1, [r0], -r1	; <UNPREDICTABLE>
    1b78:	00574905 	subseq	r4, r7, r5, lsl #18
    1b7c:	23020000 	movwcs	r0, #8192	; 0x2000
    1b80:	13090908 	movwne	r0, #39176	; 0x9908
    1b84:	4a050000 	bmi	141b8c <__standby_start+0x141b8c>
    1b88:	00000057 	andeq	r0, r0, r7, asr r0
    1b8c:	090c2302 	stmdbeq	ip, {r1, r8, r9, sp}
    1b90:	0000131c 	andeq	r1, r0, ip, lsl r3
    1b94:	00574b05 	subseq	r4, r7, r5, lsl #22
    1b98:	23020000 	movwcs	r0, #8192	; 0x2000
    1b9c:	13fd0910 	mvnsne	r0, #262144	; 0x40000
    1ba0:	4c050000 	stcmi	0, cr0, [r5], {-0}
    1ba4:	00000057 	andeq	r0, r0, r7, asr r0
    1ba8:	09142302 	ldmdbeq	r4, {r1, r8, r9, sp}
    1bac:	0000138f 	andeq	r1, r0, pc, lsl #7
    1bb0:	00574d05 	subseq	r4, r7, r5, lsl #26
    1bb4:	23020000 	movwcs	r0, #8192	; 0x2000
    1bb8:	310a0018 	tstcc	sl, r8, lsl r0
    1bbc:	01000014 	tsteq	r0, r4, lsl r0
    1bc0:	021e012e 	andseq	r0, lr, #-2147483637	; 0x8000000b
    1bc4:	1e030000 	cdpne	0, 0, cr0, cr3, cr0, {0}
    1bc8:	0b000002 	bleq	1bd8 <__standby_start+0x1bd8>
    1bcc:	01006469 	tsteq	r0, r9, ror #8
    1bd0:	0000572e 	andeq	r5, r0, lr, lsr #14
    1bd4:	69720c00 	ldmdbvs	r2!, {sl, fp}^
    1bd8:	1e300100 	rsfnes	f0, f0, f0
    1bdc:	0c000002 	stceq	0, cr0, [r0], {2}
    1be0:	31010069 	tstcc	r1, r9, rrx
    1be4:	00000057 	andeq	r0, r0, r7, asr r0
    1be8:	81040d00 	tsthi	r4, r0, lsl #26
    1bec:	0a000001 	beq	1bf8 <__standby_start+0x1bf8>
    1bf0:	000012a2 	andeq	r1, r0, r2, lsr #5
    1bf4:	57011701 	strpl	r1, [r1, -r1, lsl #14]
    1bf8:	03000000 	movweq	r0, #0
    1bfc:	0000024c 	andeq	r0, r0, ip, asr #4
    1c00:	0012ec0e 	andseq	lr, r2, lr, lsl #24
    1c04:	1e170100 	mufnes	f0, f7, f0
    1c08:	0e000002 	cdpeq	0, 0, cr0, cr0, cr2, {0}
    1c0c:	00001429 	andeq	r1, r0, r9, lsr #8
    1c10:	004c1701 	subeq	r1, ip, r1, lsl #14
    1c14:	0f000000 	svceq	0x00000000
    1c18:	0000128f 	andeq	r1, r0, pc, lsl #5
    1c1c:	74014a01 	strvc	r4, [r1], #-2561	; 0xa01
    1c20:	0cf00005 	ldcleq	0, cr0, [r0], #20
    1c24:	e5f00007 	ldrb	r0, [r0, #7]!
    1c28:	14000000 	strne	r0, [r0], #-0
    1c2c:	10000003 	andne	r0, r0, r3
    1c30:	00001367 	andeq	r1, r0, r7, ror #6
    1c34:	014a4a01 	cmpeq	sl, r1, lsl #20
    1c38:	01110000 	tsteq	r1, r0
    1c3c:	29100000 	ldmdbcs	r0, {}	; <UNPREDICTABLE>
    1c40:	01000014 	tsteq	r0, r4, lsl r0
    1c44:	00004c4a 	andeq	r4, r0, sl, asr #24
    1c48:	00014500 	andeq	r4, r1, r0, lsl #10
    1c4c:	12ec1100 	rscne	r1, ip, #0
    1c50:	4c010000 	stcmi	0, cr0, [r1], {-0}
    1c54:	0000021e 	andeq	r0, r0, lr, lsl r2
    1c58:	00000179 	andeq	r0, r0, r9, ror r1
    1c5c:	6c617612 	stclvs	6, cr7, [r1], #-72	; 0xffffffb8
    1c60:	2c4d0100 	stfcse	f0, [sp], {-0}
    1c64:	99000000 	stmdbls	r0, {}	; <UNPREDICTABLE>
    1c68:	11000001 	tstne	r0, r1
    1c6c:	0000057f 	andeq	r0, r0, pc, ror r5
    1c70:	002c4d01 	eoreq	r4, ip, r1, lsl #26
    1c74:	02010000 	andeq	r0, r1, #0
    1c78:	6c110000 	ldcvs	0, cr0, [r1], {-0}
    1c7c:	01000013 	tsteq	r0, r3, lsl r0
    1c80:	00002c4d 	andeq	r2, r0, sp, asr #24
    1c84:	00021400 	andeq	r1, r2, r0, lsl #8
    1c88:	01ef1300 	mvneq	r1, r0, lsl #6
    1c8c:	05740000 	ldrbeq	r0, [r4, #-0]!
    1c90:	0088f000 	addeq	pc, r8, r0
    1c94:	4f010000 	svcmi	0x00010000
    1c98:	000002f3 	strdeq	r0, [r0], -r3
    1c9c:	00020014 	andeq	r0, r2, r4, lsl r0
    1ca0:	00023400 	andeq	r3, r2, r0, lsl #8
    1ca4:	00a81500 	adceq	r1, r8, r0, lsl #10
    1ca8:	0a160000 	beq	581cb0 <__standby_start+0x581cb0>
    1cac:	68000002 	stmdavs	r0, {r1}
    1cb0:	16000002 	strne	r0, [r0], -r2
    1cb4:	00000214 	andeq	r0, r0, r4, lsl r2
    1cb8:	0000029b 	muleq	r0, fp, r2
    1cbc:	24170000 	ldrcs	r0, [r7], #-0
    1cc0:	c4000002 	strgt	r0, [r0], #-2
    1cc4:	dcf00005 	ldclle	0, cr0, [r0], #20
    1cc8:	01f00005 	mvnseq	r0, r5
    1ccc:	02401454 	subeq	r1, r0, #1409286144	; 0x54000000
    1cd0:	02c60000 	sbceq	r0, r6, #0
    1cd4:	35180000 	ldrcc	r0, [r8, #-0]
    1cd8:	01000002 	tsteq	r0, r2
    1cdc:	19000054 	stmdbne	r0, {r2, r4, r6}
    1ce0:	0000141e 	andeq	r1, r0, lr, lsl r4
    1ce4:	5e018a01 	vmlapl.f32	s16, s2, s2
    1ce8:	0c000000 	stceq	0, cr0, [r0], {-0}
    1cec:	bcf00007 	ldcllt	0, cr0, [r0], #28
    1cf0:	eff00007 	svc	0x00f00007
    1cf4:	a7000002 	strge	r0, [r0, -r2]
    1cf8:	10000003 	andne	r0, r0, r3
    1cfc:	00001367 	andeq	r1, r0, r7, ror #6
    1d00:	014a8a01 	cmpeq	sl, r1, lsl #20
    1d04:	031b0000 	tsteq	fp, #0
    1d08:	ec110000 	ldc	0, cr0, [r1], {-0}
    1d0c:	01000012 	tsteq	r0, r2, lsl r0
    1d10:	00021e8c 	andeq	r1, r2, ip, lsl #29
    1d14:	00033900 	andeq	r3, r3, r0, lsl #18
    1d18:	61761200 	cmnvs	r6, r0, lsl #4
    1d1c:	8d01006c 	stchi	0, cr0, [r1, #-432]	; 0xfffffe50
    1d20:	0000002c 	andeq	r0, r0, ip, lsr #32
    1d24:	00000359 	andeq	r0, r0, r9, asr r3
    1d28:	00057f1a 	andeq	r7, r5, sl, lsl pc
    1d2c:	2c8d0100 	stfcss	f0, [sp], {0}
    1d30:	0c000000 	stceq	0, cr0, [r0], {-0}
    1d34:	06187531 			; <UNDEFINED> instruction: 0x06187531
    1d38:	751c3124 	ldrvc	r3, [ip, #-292]	; 0x124
    1d3c:	9f240614 	svcls	0x00240614
    1d40:	0001ef1b 	andeq	lr, r1, fp, lsl pc
    1d44:	00070c00 	andeq	r0, r7, r0, lsl #24
    1d48:	0000c8f0 	strdeq	ip, [r0], -r0
    1d4c:	148f0100 	strne	r0, [pc], #256	; 1d54 <__standby_start+0x1d54>
    1d50:	00000200 	andeq	r0, r0, r0, lsl #4
    1d54:	0000038e 	andeq	r0, r0, lr, lsl #7
    1d58:	0000e815 	andeq	lr, r0, r5, lsl r8
    1d5c:	020a1600 	andeq	r1, sl, #0
    1d60:	03ac0000 			; <UNDEFINED> instruction: 0x03ac0000
    1d64:	14160000 	ldrne	r0, [r6], #-0
    1d68:	df000002 	svcle	0x00000002
    1d6c:	00000003 	andeq	r0, r0, r3
    1d70:	011c0000 	tsteq	ip, r0
    1d74:	000013a9 	andeq	r1, r0, r9, lsr #7
    1d78:	5701ad01 	strpl	sl, [r1, -r1, lsl #26]
    1d7c:	bc000000 	stclt	0, cr0, [r0], {-0}
    1d80:	8cf00007 	ldclhi	0, cr0, [r0], #28
    1d84:	0af00009 	beq	ffc01db0 <__bss_end+0xfbfdcb0>
    1d88:	e3000004 	movw	r0, #4
    1d8c:	10000003 	andne	r0, r0, r3
    1d90:	00001311 	andeq	r1, r0, r1, lsl r3
    1d94:	0069ad01 	rsbeq	sl, r9, r1, lsl #26
    1d98:	042a0000 	strteq	r0, [sl], #-0
    1d9c:	b4100000 	ldrlt	r0, [r0], #-0
    1da0:	01000013 	tsteq	r0, r3, lsl r0
    1da4:	000045ad 	andeq	r4, r0, sp, lsr #11
    1da8:	00048b00 	andeq	r8, r4, r0, lsl #22
    1dac:	011c0000 	tsteq	ip, r0
    1db0:	00001260 	andeq	r1, r0, r0, ror #4
    1db4:	5701e501 	strpl	lr, [r1, -r1, lsl #10]
    1db8:	8c000000 	stchi	0, cr0, [r0], {-0}
    1dbc:	dcf00009 	ldclle	0, cr0, [r0], #36	; 0x24
    1dc0:	9ef00009 	cdpls	0, 15, cr0, cr0, cr9, {0}
    1dc4:	0e000004 	cdpeq	0, 0, cr0, cr0, cr4, {0}
    1dc8:	12000004 	andne	r0, r0, #4
    1dcc:	e7010069 	str	r0, [r1, -r9, rrx]
    1dd0:	00000057 	andeq	r0, r0, r7, asr r0
    1dd4:	000004be 			; <UNDEFINED> instruction: 0x000004be
    1dd8:	005e1d00 	subseq	r1, lr, r0, lsl #26
    1ddc:	041e0000 	ldreq	r0, [lr], #-0
    1de0:	691e0000 	ldmdbvs	lr, {}	; <UNPREDICTABLE>
    1de4:	05000000 	streq	r0, [r0, #-0]
    1de8:	12f81a00 	rscsne	r1, r8, #0
    1dec:	15010000 	strne	r0, [r1, #-0]
    1df0:	0000040e 	andeq	r0, r0, lr, lsl #8
    1df4:	3d280305 	stccc	3, cr0, [r8, #-20]!	; 0xffffffec
    1df8:	571df000 	ldrpl	pc, [sp, -r0]
    1dfc:	3f000000 	svccc	0x00000000
    1e00:	1e000004 	cdpne	0, 0, cr0, cr0, cr4, {0}
    1e04:	00000069 	andeq	r0, r0, r9, rrx
    1e08:	991a000f 	ldmdbls	sl, {r0, r1, r2, r3}
    1e0c:	01000013 	tsteq	r0, r3, lsl r0
    1e10:	0004501f 	andeq	r5, r4, pc, lsl r0
    1e14:	60030500 	andvs	r0, r3, r0, lsl #10
    1e18:	1ff00039 	svcne	0x00f00039
    1e1c:	0000042f 	andeq	r0, r0, pc, lsr #8
    1e20:	0001811d 	andeq	r8, r1, sp, lsl r1
    1e24:	00046500 	andeq	r6, r4, r0, lsl #10
    1e28:	00691e00 	rsbeq	r1, r9, r0, lsl #28
    1e2c:	00050000 	andeq	r0, r5, r0
    1e30:	0012e61a 	andseq	lr, r2, sl, lsl r6
    1e34:	55250100 	strpl	r0, [r5, #-256]!	; 0x100
    1e38:	05000004 	streq	r0, [r0, #-4]
    1e3c:	003c3c03 	eorseq	r3, ip, r3, lsl #24
    1e40:	01e800f0 	strdeq	r0, [r8, #0]!
    1e44:	00020000 	andeq	r0, r2, r0
    1e48:	000006f3 	strdeq	r0, [r0], -r3
    1e4c:	03fd0104 	mvnseq	r0, #1
    1e50:	b1010000 	mrslt	r0, (UNDEF: 1)
    1e54:	35000014 	strcc	r0, [r0, #-20]
    1e58:	dc000005 	stcle	0, cr0, [r0], {5}
    1e5c:	b0f00009 	rscslt	r0, r0, r9
    1e60:	fff0000a 			; <UNDEFINED> instruction: 0xfff0000a
    1e64:	02000005 	andeq	r0, r0, #5
    1e68:	07af0601 	streq	r0, [pc, r1, lsl #12]!
    1e6c:	01020000 	mrseq	r0, (UNDEF: 2)
    1e70:	0007ad08 	andeq	sl, r7, r8, lsl #26
    1e74:	05020200 	streq	r0, [r2, #-512]	; 0x200
    1e78:	00000668 	andeq	r0, r0, r8, ror #12
    1e7c:	7f070202 	svcvc	0x00070202
    1e80:	03000008 	movweq	r0, #8
    1e84:	6e690504 	cdpvs	5, 6, cr0, cr9, cr4, {0}
    1e88:	04020074 	streq	r0, [r2], #-116	; 0x74
    1e8c:	00025407 	andeq	r5, r2, r7, lsl #8
    1e90:	05080200 	streq	r0, [r8, #-512]	; 0x200
    1e94:	0000047d 	andeq	r0, r0, sp, ror r4
    1e98:	4a070802 	bmi	1c3ea8 <__standby_start+0x1c3ea8>
    1e9c:	04000002 	streq	r0, [r0], #-2
    1ea0:	00001501 	andeq	r1, r0, r1, lsl #10
    1ea4:	a1110204 	tstge	r1, r4, lsl #4
    1ea8:	05000000 	streq	r0, [r0, #-0]
    1eac:	0000153d 	andeq	r1, r0, sp, lsr r5
    1eb0:	14f60500 	ldrbtne	r0, [r6], #1280	; 0x500
    1eb4:	05010000 	streq	r0, [r1, #-0]
    1eb8:	0000150d 	andeq	r1, r0, sp, lsl #10
    1ebc:	15320502 	ldrne	r0, [r2, #-1282]!	; 0x502
    1ec0:	05030000 	streq	r0, [r3, #-0]
    1ec4:	00001484 	andeq	r1, r0, r4, lsl #9
    1ec8:	14eb0504 	strbtne	r0, [fp], #1284	; 0x504
    1ecc:	05050000 	streq	r0, [r5, #-0]
    1ed0:	00001479 	andeq	r1, r0, r9, ror r4
    1ed4:	14e00506 	strbtne	r0, [r0], #1286	; 0x506
    1ed8:	05070000 	streq	r0, [r7, #-0]
    1edc:	0000148f 	andeq	r1, r0, pc, lsl #9
    1ee0:	02000180 	andeq	r0, r0, #32
    1ee4:	07b60801 	ldreq	r0, [r6, r1, lsl #16]!
    1ee8:	04020000 	streq	r0, [r2], #-0
    1eec:	00024f07 	andeq	r4, r2, r7, lsl #30
    1ef0:	00480600 	subeq	r0, r8, r0, lsl #12
    1ef4:	00bf0000 	adcseq	r0, pc, r0
    1ef8:	48070000 	stmdami	r7, {}	; <UNPREDICTABLE>
    1efc:	0e000000 	cdpeq	0, 0, cr0, cr0, cr0, {0}
    1f00:	af040800 	svcge	0x00040800
    1f04:	09000000 	stmdbeq	r0, {}	; <UNPREDICTABLE>
    1f08:	00152001 	andseq	r2, r5, r1
    1f0c:	01260100 	teqeq	r6, r0, lsl #2
    1f10:	00000041 	andeq	r0, r0, r1, asr #32
    1f14:	f00009dc 			; <UNDEFINED> instruction: 0xf00009dc
    1f18:	f0000a60 			; <UNDEFINED> instruction: 0xf0000a60
    1f1c:	000004e8 	andeq	r0, r0, r8, ror #9
    1f20:	00000172 	andeq	r0, r0, r2, ror r1
    1f24:	0004760a 	andeq	r7, r4, sl, lsl #12
    1f28:	48260100 	stmdami	r6!, {r8}
    1f2c:	08000000 	stmdaeq	r0, {}	; <UNPREDICTABLE>
    1f30:	0a000005 	beq	1f4c <__standby_start+0x1f4c>
    1f34:	000004b2 			; <UNDEFINED> instruction: 0x000004b2
    1f38:	00482601 	subeq	r2, r8, r1, lsl #12
    1f3c:	05260000 	streq	r0, [r6, #-0]!
    1f40:	d40a0000 	strle	r0, [sl], #-0
    1f44:	01000000 	mrseq	r0, (UNDEF: 0)
    1f48:	0000bf27 	andeq	fp, r0, r7, lsr #30
    1f4c:	00054400 	andeq	r4, r5, r0, lsl #8
    1f50:	13b40a00 			; <UNDEFINED> instruction: 0x13b40a00
    1f54:	27010000 	strcs	r0, [r1, -r0]
    1f58:	0000003a 	andeq	r0, r0, sl, lsr r0
    1f5c:	00000562 	andeq	r0, r0, r2, ror #10
    1f60:	0015180b 	andseq	r1, r5, fp, lsl #16
    1f64:	48290100 	stmdami	r9!, {r8}
    1f68:	80000000 	andhi	r0, r0, r0
    1f6c:	0c000005 	stceq	0, cr0, [r0], {5}
    1f70:	29010069 	stmdbcs	r1, {r0, r3, r5, r6}
    1f74:	00000048 	andeq	r0, r0, r8, asr #32
    1f78:	000005ab 	andeq	r0, r0, fp, lsr #11
    1f7c:	7465720c 	strbtvc	r7, [r5], #-524	; 0x20c
    1f80:	48290100 	stmdami	r9!, {r8}
    1f84:	cb000000 	blgt	1f8c <__standby_start+0x1f8c>
    1f88:	0b000005 	bleq	1fa4 <__standby_start+0x1fa4>
    1f8c:	00001311 	andeq	r1, r0, r1, lsl r3
    1f90:	00482a01 	subeq	r2, r8, r1, lsl #20
    1f94:	05ed0000 	strbeq	r0, [sp, #0]!
    1f98:	2c0d0000 	stccs	0, cr0, [sp], {-0}
    1f9c:	3cf0000a 	ldclcc	0, cr0, [r0], #40	; 0x28
    1fa0:	0ef0000a 	cdpeq	0, 15, cr0, cr0, cr10, {0}
    1fa4:	0013a901 	andseq	sl, r3, r1, lsl #18
    1fa8:	413c0100 	teqmi	ip, r0, lsl #2
    1fac:	01000000 	mrseq	r0, (UNDEF: 0)
    1fb0:	0000000f 	andeq	r0, r0, pc
    1fb4:	149a0110 	ldrne	r0, [sl], #272	; 0x110
    1fb8:	63010000 	movwvs	r0, #4096	; 0x1000
    1fbc:	00004101 	andeq	r4, r0, r1, lsl #2
    1fc0:	000a6000 	andeq	r6, sl, r0
    1fc4:	000ab0f0 	strdeq	fp, [sl], -r0
    1fc8:	00061df0 	strdeq	r1, [r6], -r0
    1fcc:	04760a00 	ldrbteq	r0, [r6], #-2560	; 0xa00
    1fd0:	63010000 	movwvs	r0, #4096	; 0x1000
    1fd4:	00000048 	andeq	r0, r0, r8, asr #32
    1fd8:	0000063d 	andeq	r0, r0, sp, lsr r6
    1fdc:	0015180b 	andseq	r1, r5, fp, lsl #16
    1fe0:	48650100 	stmdami	r5!, {r8}^
    1fe4:	5b000000 	blpl	1fec <__standby_start+0x1fec>
    1fe8:	0c000006 	stceq	0, cr0, [r0], {6}
    1fec:	65010069 	strvs	r0, [r1, #-105]	; 0x69
    1ff0:	00000048 	andeq	r0, r0, r8, asr #32
    1ff4:	0000067a 	andeq	r0, r0, sl, ror r6
    1ff8:	7465720c 	strbtvc	r7, [r5], #-524	; 0x20c
    1ffc:	48650100 	stmdami	r5!, {r8}^
    2000:	8e000000 	cdphi	0, 0, cr0, cr0, cr0, {0}
    2004:	11000006 	tstne	r0, r6
    2008:	00001311 	andeq	r1, r0, r1, lsl r3
    200c:	00486601 	subeq	r6, r8, r1, lsl #12
    2010:	0d000000 	stceq	0, cr0, [r0, #-0]
    2014:	f0000a98 			; <UNDEFINED> instruction: 0xf0000a98
    2018:	f0000aa0 			; <UNDEFINED> instruction: 0xf0000aa0
    201c:	1260010e 	rsbne	r0, r0, #-2147483645	; 0x80000003
    2020:	70010000 	andvc	r0, r1, r0
    2024:	00000041 	andeq	r0, r0, r1, asr #32
    2028:	00000f01 	andeq	r0, r0, r1, lsl #30
    202c:	03340000 	teqeq	r4, #0
    2030:	00020000 	andeq	r0, r2, r0
    2034:	000007db 	ldrdeq	r0, [r0], -fp
    2038:	03fd0104 	mvnseq	r0, #1
    203c:	7a010000 	bvc	42044 <__standby_start+0x42044>
    2040:	35000015 	strcc	r0, [r0, #-21]
    2044:	b0000005 	andlt	r0, r0, r5
    2048:	e8f0000a 	ldm	r0!, {r1, r3}^
    204c:	b0f0000d 	rscslt	r0, r0, sp
    2050:	02000006 	andeq	r0, r0, #6
    2054:	07af0601 	streq	r0, [pc, r1, lsl #12]!
    2058:	f8030000 			; <UNDEFINED> instruction: 0xf8030000
    205c:	02000013 	andeq	r0, r0, #19
    2060:	0000370f 	andeq	r3, r0, pc, lsl #14
    2064:	08010200 	stmdaeq	r1, {r9}
    2068:	000007ad 	andeq	r0, r0, sp, lsr #15
    206c:	68050202 	stmdavs	r5, {r1, r9}
    2070:	02000006 	andeq	r0, r0, #6
    2074:	087f0702 	ldmdaeq	pc!, {r1, r8, r9, sl}^	; <UNPREDICTABLE>
    2078:	4e030000 	cdpmi	0, 0, cr0, cr3, cr0, {0}
    207c:	0200000e 	andeq	r0, r0, #14
    2080:	00005712 	andeq	r5, r0, r2, lsl r7
    2084:	05040400 	streq	r0, [r4, #-1024]	; 0x400
    2088:	00746e69 	rsbseq	r6, r4, r9, ror #28
    208c:	00044303 	andeq	r4, r4, r3, lsl #6
    2090:	69130200 	ldmdbvs	r3, {r9}
    2094:	02000000 	andeq	r0, r0, #0
    2098:	02540704 	subseq	r0, r4, #1048576	; 0x100000
    209c:	08020000 	stmdaeq	r2, {}	; <UNPREDICTABLE>
    20a0:	00047d05 	andeq	r7, r4, r5, lsl #26
    20a4:	07080200 	streq	r0, [r8, -r0, lsl #4]
    20a8:	0000024a 	andeq	r0, r0, sl, asr #4
    20ac:	00087705 	andeq	r7, r8, r5, lsl #14
    20b0:	89040400 	stmdbhi	r4, {sl}
    20b4:	000000eb 	andeq	r0, r0, fp, ror #1
    20b8:	0006af06 	andeq	sl, r6, r6, lsl #30
    20bc:	3d060000 	stccc	0, cr0, [r6, #-0]
    20c0:	01000003 	tsteq	r0, r3
    20c4:	00076806 	andeq	r6, r7, r6, lsl #16
    20c8:	31060200 	mrscc	r0, LR_usr
    20cc:	03000003 	movweq	r0, #3
    20d0:	00043706 	andeq	r3, r4, r6, lsl #14
    20d4:	bc060400 	cfstrslt	mvf0, [r6], {-0}
    20d8:	05000006 	streq	r0, [r0, #-6]
    20dc:	0003f006 	andeq	pc, r3, r6
    20e0:	61060600 	tstvs	r6, r0, lsl #12
    20e4:	07000008 	streq	r0, [r0, -r8]
    20e8:	00046a06 	andeq	r6, r4, r6, lsl #20
    20ec:	02060800 	andeq	r0, r6, #0
    20f0:	09000009 	stmdbeq	r0, {r0, r3}
    20f4:	00064a06 	andeq	r4, r6, r6, lsl #20
    20f8:	72060a00 	andvc	r0, r6, #0
    20fc:	0b000006 	bleq	211c <__standby_start+0x211c>
    2100:	00087106 	andeq	r7, r8, r6, lsl #2
    2104:	c2060c00 	andgt	r0, r6, #0
    2108:	0d000007 	stceq	0, cr0, [r0, #-28]	; 0xffffffe4
    210c:	00062906 	andeq	r2, r6, r6, lsl #18
    2110:	00060e00 	andeq	r0, r6, r0, lsl #28
    2114:	0f000008 	svceq	0x00000008
    2118:	08010200 	stmdaeq	r1, {r9}
    211c:	000007b6 			; <UNDEFINED> instruction: 0x000007b6
    2120:	4f070402 	svcmi	0x00070402
    2124:	07000002 	streq	r0, [r0, -r2]
    2128:	0000162d 	andeq	r1, r0, sp, lsr #12
    212c:	84190324 	ldrhi	r0, [r9], #-804	; 0x324
    2130:	08000001 	stmdaeq	r0, {r0}
    2134:	00001564 	andeq	r1, r0, r4, ror #10
    2138:	01841b03 	orreq	r1, r4, r3, lsl #22
    213c:	23020000 	movwcs	r0, #8192	; 0x2000
    2140:	15a70800 	strne	r0, [r7, #2048]!	; 0x800
    2144:	1c030000 	stcne	0, cr0, [r3], {-0}
    2148:	00000184 	andeq	r0, r0, r4, lsl #3
    214c:	08042302 	stmdaeq	r4, {r1, r8, r9, sp}
    2150:	00001613 	andeq	r1, r0, r3, lsl r6
    2154:	01841d03 	orreq	r1, r4, r3, lsl #26
    2158:	23020000 	movwcs	r0, #8192	; 0x2000
    215c:	161c0808 	ldrne	r0, [ip], -r8, lsl #16
    2160:	1e030000 	cdpne	0, 0, cr0, cr3, cr0, {0}
    2164:	00000184 	andeq	r0, r0, r4, lsl #3
    2168:	080c2302 	stmdaeq	ip, {r1, r8, r9, sp}
    216c:	000015b2 			; <UNDEFINED> instruction: 0x000015b2
    2170:	01841f03 	orreq	r1, r4, r3, lsl #30
    2174:	23020000 	movwcs	r0, #8192	; 0x2000
    2178:	16650810 			; <UNDEFINED> instruction: 0x16650810
    217c:	20030000 	andcs	r0, r3, r0
    2180:	00000184 	andeq	r0, r0, r4, lsl #3
    2184:	08142302 	ldmdaeq	r4, {r1, r8, r9, sp}
    2188:	000015bd 			; <UNDEFINED> instruction: 0x000015bd
    218c:	01842103 	orreq	r2, r4, r3, lsl #2
    2190:	23020000 	movwcs	r0, #8192	; 0x2000
    2194:	16430818 			; <UNDEFINED> instruction: 0x16430818
    2198:	22030000 	andcs	r0, r3, #0
    219c:	00000184 	andeq	r0, r0, r4, lsl #3
    21a0:	081c2302 	ldmdaeq	ip, {r1, r8, r9, sp}
    21a4:	00001624 	andeq	r1, r0, r4, lsr #12
    21a8:	01842303 	orreq	r2, r4, r3, lsl #6
    21ac:	23020000 	movwcs	r0, #8192	; 0x2000
    21b0:	69090020 	stmdbvs	r9, {r5}
    21b4:	03000000 	movweq	r0, #0
    21b8:	0000164b 	andeq	r1, r0, fp, asr #12
    21bc:	00f92503 	rscseq	r2, r9, r3, lsl #10
    21c0:	61050000 	mrsvs	r0, (UNDEF: 5)
    21c4:	04000014 	streq	r0, [r0], #-20
    21c8:	01ad2903 			; <UNDEFINED> instruction: 0x01ad2903
    21cc:	74060000 	strvc	r0, [r6], #-0
    21d0:	00000013 	andeq	r0, r0, r3, lsl r0
    21d4:	00146f06 	andseq	r6, r4, r6, lsl #30
    21d8:	0a000100 	beq	25e0 <__standby_start+0x25e0>
    21dc:	000015c7 	andeq	r1, r0, r7, asr #11
    21e0:	57016501 	strpl	r6, [r1, -r1, lsl #10]
    21e4:	01000000 	mrseq	r0, (UNDEF: 0)
    21e8:	000001d5 	ldrdeq	r0, [r0], -r5
    21ec:	00163a0b 	andseq	r3, r6, fp, lsl #20
    21f0:	69670100 	stmdbvs	r7!, {r8}^
    21f4:	0b000000 	bleq	21fc <__standby_start+0x21fc>
    21f8:	000026da 	ldrdeq	r2, [r0], -sl
    21fc:	00696801 	rsbeq	r6, r9, r1, lsl #16
    2200:	0c000000 	stceq	0, cr0, [r0], {-0}
    2204:	0015fa01 	andseq	pc, r5, r1, lsl #20
    2208:	012e0100 	teqeq	lr, r0, lsl #2
    220c:	0000004c 	andeq	r0, r0, ip, asr #32
    2210:	f0000ab0 			; <UNDEFINED> instruction: 0xf0000ab0
    2214:	f0000afc 			; <UNDEFINED> instruction: 0xf0000afc
    2218:	01007d02 	tsteq	r0, r2, lsl #26
    221c:	0d000002 	stceq	0, cr0, [r0, #-8]
    2220:	000015ea 	andeq	r1, r0, sl, ror #11
    2224:	00572e01 	subseq	r2, r7, r1, lsl #28
    2228:	06a30000 	strteq	r0, [r3], r0
    222c:	0e000000 	cdpeq	0, 0, cr0, cr0, cr0, {0}
    2230:	0015d901 	andseq	sp, r5, r1, lsl #18
    2234:	01490100 	mrseq	r0, (UNDEF: 89)
    2238:	0000004c 	andeq	r0, r0, ip, asr #32
    223c:	f0000afc 			; <UNDEFINED> instruction: 0xf0000afc
    2240:	f0000b30 			; <UNDEFINED> instruction: 0xf0000b30
    2244:	0f007d02 	svceq	0x00007d02
    2248:	00156e01 	andseq	r6, r5, r1, lsl #28
    224c:	01970100 	orrseq	r0, r7, r0, lsl #2
    2250:	0000004c 	andeq	r0, r0, ip, asr #32
    2254:	f0000b30 			; <UNDEFINED> instruction: 0xf0000b30
    2258:	f0000de8 			; <UNDEFINED> instruction: 0xf0000de8
    225c:	000006b6 			; <UNDEFINED> instruction: 0x000006b6
    2260:	000002d2 	ldrdeq	r0, [r0], -r2
    2264:	00706f10 	rsbseq	r6, r0, r0, lsl pc
    2268:	01949701 	orrseq	r9, r4, r1, lsl #14
    226c:	06d60000 	ldrbeq	r0, [r6], r0
    2270:	680d0000 	stmdavs	sp, {}	; <UNPREDICTABLE>
    2274:	01000015 	tsteq	r0, r5, lsl r0
    2278:	00002c97 	muleq	r0, r7, ip
    227c:	0006f400 	andeq	pc, r6, r0, lsl #8
    2280:	15510d00 	ldrbne	r0, [r1, #-3328]	; 0xd00
    2284:	97010000 	strls	r0, [r1, -r0]
    2288:	0000002c 	andeq	r0, r0, ip, lsr #32
    228c:	00000707 	andeq	r0, r0, r7, lsl #14
    2290:	0013a40d 	andseq	sl, r3, sp, lsl #8
    2294:	d2970100 	addsle	r0, r7, #0
    2298:	1a000002 	bne	22a8 <__standby_start+0x22a8>
    229c:	11000007 	tstne	r0, r7
    22a0:	000015f0 	strdeq	r1, [r0], -r0
    22a4:	00379901 	eorseq	r9, r7, r1, lsl #18
    22a8:	07380000 	ldreq	r0, [r8, -r0]!
    22ac:	da110000 	ble	4422b4 <__standby_start+0x4422b4>
    22b0:	01000026 	tsteq	r0, r6, lsr #32
    22b4:	0000699a 	muleq	r0, sl, r9
    22b8:	00079800 	andeq	r9, r7, r0, lsl #16
    22bc:	65721200 	ldrbvs	r1, [r2, #-512]!	; 0x200
    22c0:	9b010074 	blls	42498 <__standby_start+0x42498>
    22c4:	00000057 	andeq	r0, r0, r7, asr r0
    22c8:	000008f7 	strdeq	r0, [r0], -r7
    22cc:	00154813 	andseq	r4, r5, r3, lsl r8
    22d0:	01180100 	tsteq	r8, r0, lsl #2
    22d4:	f0000d0c 			; <UNDEFINED> instruction: 0xf0000d0c
    22d8:	0001ad14 	andeq	sl, r1, r4, lsl sp
    22dc:	000d0c00 	andeq	r0, sp, r0, lsl #24
    22e0:	000108f0 	strdeq	r0, [r1], -r0	; <UNPREDICTABLE>
    22e4:	011b0100 	tsteq	fp, r0, lsl #2
    22e8:	00012815 	andeq	r2, r1, r5, lsl r8
    22ec:	01be1600 			; <UNDEFINED> instruction: 0x01be1600
    22f0:	52010000 	andpl	r0, r1, #0
    22f4:	0001c917 	andeq	ip, r1, r7, lsl r9
    22f8:	00092f00 	andeq	r2, r9, r0, lsl #30
    22fc:	00000000 	andeq	r0, r0, r0
    2300:	002c0418 	eoreq	r0, ip, r8, lsl r4
    2304:	e8190000 	ldmda	r9, {}	; <UNPREDICTABLE>
    2308:	e8000002 	stmda	r0, {r1}
    230c:	1a000002 	bne	231c <__standby_start+0x231c>
    2310:	00000069 	andeq	r0, r0, r9, rrx
    2314:	04180002 	ldreq	r0, [r8], #-2
    2318:	00000189 	andeq	r0, r0, r9, lsl #3
    231c:	00166e1b 	andseq	r6, r6, fp, lsl lr
    2320:	ff160100 			; <UNDEFINED> instruction: 0xff160100
    2324:	05000002 	streq	r0, [r0, #-2]
    2328:	0039a003 	eorseq	sl, r9, r3
    232c:	02d81cf0 	sbcseq	r1, r8, #61440	; 0xf000
    2330:	571b0000 	ldrpl	r0, [fp, -r0]
    2334:	01000015 	tsteq	r0, r5, lsl r0
    2338:	00005e1c 	andeq	r5, r0, ip, lsl lr
    233c:	44030500 	strmi	r0, [r3], #-1280	; 0x500
    2340:	1bf0003d 	blne	ffc0243c <__bss_end+0xfbfe33c>
    2344:	00001658 	andeq	r1, r0, r8, asr r6
    2348:	005e1d01 	subseq	r1, lr, r1, lsl #26
    234c:	03050000 	movweq	r0, #20480	; 0x5000
    2350:	f0003d48 			; <UNDEFINED> instruction: 0xf0003d48
    2354:	00160b1b 	andseq	r0, r6, fp, lsl fp
    2358:	e81e0100 	ldmda	lr, {r8}
    235c:	05000002 	streq	r0, [r0, #-2]
    2360:	003d4003 	eorseq	r4, sp, r3
    2364:	00f200f0 	ldrshteq	r0, [r2], #0
    2368:	00020000 	andeq	r0, r2, r0
    236c:	0000095a 	andeq	r0, r0, sl, asr r9
    2370:	03fd0104 	mvnseq	r0, #1
    2374:	7b010000 	blvc	4237c <__standby_start+0x4237c>
    2378:	35000016 	strcc	r0, [r0, #-22]
    237c:	e8000005 	stmda	r0, {r0, r2}
    2380:	08f0000d 	ldmeq	r0!, {r0, r2, r3}^
    2384:	4bf0000e 	blmi	ffc023c4 <__bss_end+0xfbfe2c4>
    2388:	02000008 	andeq	r0, r0, #8
    238c:	07af0601 	streq	r0, [pc, r1, lsl #12]!
    2390:	01020000 	mrseq	r0, (UNDEF: 2)
    2394:	0007ad08 	andeq	sl, r7, r8, lsl #26
    2398:	05020200 	streq	r0, [r2, #-512]	; 0x200
    239c:	00000668 	andeq	r0, r0, r8, ror #12
    23a0:	7f070202 	svcvc	0x00070202
    23a4:	03000008 	movweq	r0, #8
    23a8:	00000e4e 	andeq	r0, r0, lr, asr #28
    23ac:	004c1202 	subeq	r1, ip, r2, lsl #4
    23b0:	04040000 	streq	r0, [r4], #-0
    23b4:	746e6905 	strbtvc	r6, [lr], #-2309	; 0x905
    23b8:	04430300 	strbeq	r0, [r3], #-768	; 0x300
    23bc:	13020000 	movwne	r0, #8192	; 0x2000
    23c0:	0000005e 	andeq	r0, r0, lr, asr r0
    23c4:	54070402 	strpl	r0, [r7], #-1026	; 0x402
    23c8:	02000002 	andeq	r0, r0, #2
    23cc:	047d0508 	ldrbteq	r0, [sp], #-1288	; 0x508
    23d0:	08020000 	stmdaeq	r2, {}	; <UNPREDICTABLE>
    23d4:	00024a07 	andeq	r4, r2, r7, lsl #20
    23d8:	08010200 	stmdaeq	r1, {r9}
    23dc:	000007b6 			; <UNDEFINED> instruction: 0x000007b6
    23e0:	4f070402 	svcmi	0x00070402
    23e4:	05000002 	streq	r0, [r0, #-2]
    23e8:	0016ee01 	andseq	lr, r6, r1, lsl #28
    23ec:	01260100 	teqeq	r6, r0, lsl #2
    23f0:	00000041 	andeq	r0, r0, r1, asr #32
    23f4:	f0000de8 			; <UNDEFINED> instruction: 0xf0000de8
    23f8:	f0000df0 			; <UNDEFINED> instruction: 0xf0000df0
    23fc:	05007d02 	streq	r7, [r0, #-3330]	; 0xd02
    2400:	0016a801 	andseq	sl, r6, r1, lsl #16
    2404:	01370100 	teqeq	r7, r0, lsl #2
    2408:	00000041 	andeq	r0, r0, r1, asr #32
    240c:	f0000df0 			; <UNDEFINED> instruction: 0xf0000df0
    2410:	f0000df8 			; <UNDEFINED> instruction: 0xf0000df8
    2414:	06007d02 	streq	r7, [r0], -r2, lsl #26
    2418:	0016b901 	andseq	fp, r6, r1, lsl #18
    241c:	014b0100 	mrseq	r0, (UNDEF: 91)
    2420:	00000041 	andeq	r0, r0, r1, asr #32
    2424:	f0000df8 			; <UNDEFINED> instruction: 0xf0000df8
    2428:	f0000e00 			; <UNDEFINED> instruction: 0xf0000e00
    242c:	dd007d02 	stcle	13, cr7, [r0, #-8]
    2430:	07000000 	streq	r0, [r0, -r0]
    2434:	00000606 	andeq	r0, r0, r6, lsl #12
    2438:	00534b01 	subseq	r4, r3, r1, lsl #22
    243c:	09a60000 	stmibeq	r6!, {}	; <UNPREDICTABLE>
    2440:	05000000 	streq	r0, [r0, #-0]
    2444:	0016d601 	andseq	sp, r6, r1, lsl #12
    2448:	015e0100 	cmpeq	lr, r0, lsl #2
    244c:	00000041 	andeq	r0, r0, r1, asr #32
    2450:	f0000e00 			; <UNDEFINED> instruction: 0xf0000e00
    2454:	f0000e08 			; <UNDEFINED> instruction: 0xf0000e08
    2458:	00007d02 	andeq	r7, r0, r2, lsl #26
    245c:	000003dd 	ldrdeq	r0, [r0], -sp
    2460:	09d00002 	ldmibeq	r0, {r1}^
    2464:	01040000 	mrseq	r0, (UNDEF: 4)
    2468:	000003fd 	strdeq	r0, [r0], -sp
    246c:	0017fb01 	andseq	pc, r7, r1, lsl #22
    2470:	00053500 	andeq	r3, r5, r0, lsl #10
    2474:	000e0800 	andeq	r0, lr, r0, lsl #16
    2478:	001180f0 	ldrsheq	r8, [r1], -r0
    247c:	0008e4f0 	strdeq	lr, [r8], -r0
    2480:	06010200 	streq	r0, [r1], -r0, lsl #4
    2484:	000007af 	andeq	r0, r0, pc, lsr #15
    2488:	ad080102 	stfges	f0, [r8, #-8]
    248c:	02000007 	andeq	r0, r0, #7
    2490:	06680502 	strbteq	r0, [r8], -r2, lsl #10
    2494:	02020000 	andeq	r0, r2, #0
    2498:	00087f07 	andeq	r7, r8, r7, lsl #30
    249c:	05040300 	streq	r0, [r4, #-768]	; 0x300
    24a0:	00746e69 	rsbseq	r6, r4, r9, ror #28
    24a4:	00044304 	andeq	r4, r4, r4, lsl #6
    24a8:	53130300 	tstpl	r3, #0
    24ac:	02000000 	andeq	r0, r0, #0
    24b0:	02540704 	subseq	r0, r4, #1048576	; 0x100000
    24b4:	08020000 	stmdaeq	r2, {}	; <UNPREDICTABLE>
    24b8:	00047d05 	andeq	r7, r4, r5, lsl #26
    24bc:	07080200 	streq	r0, [r8, -r0, lsl #4]
    24c0:	0000024a 	andeq	r0, r0, sl, asr #4
    24c4:	00185705 	andseq	r5, r8, r5, lsl #14
    24c8:	1d020400 	cfstrsne	mvf0, [r2, #-0]
    24cc:	000000ca 	andeq	r0, r0, sl, asr #1
    24d0:	00175606 	andseq	r5, r7, r6, lsl #12
    24d4:	481f0200 	ldmdami	pc, {r9}	; <UNPREDICTABLE>
    24d8:	04000000 	streq	r0, [r0], #-0
    24dc:	23021808 	movwcs	r1, #10248	; 0x2808
    24e0:	17d10600 	ldrbne	r0, [r1, r0, lsl #12]
    24e4:	20020000 	andcs	r0, r2, r0
    24e8:	00000048 	andeq	r0, r0, r8, asr #32
    24ec:	02100804 	andseq	r0, r0, #262144	; 0x40000
    24f0:	ff060023 			; <UNDEFINED> instruction: 0xff060023
    24f4:	02000016 	andeq	r0, r0, #22
    24f8:	00004821 	andeq	r4, r0, r1, lsr #16
    24fc:	0e020400 	cfcpyseq	mvf0, mvf2
    2500:	06002302 	streq	r2, [r0], -r2, lsl #6
    2504:	0000106b 	andeq	r1, r0, fp, rrx
    2508:	00482202 	subeq	r2, r8, r2, lsl #4
    250c:	0d040000 	stceq	0, cr0, [r4, #-0]
    2510:	00230201 	eoreq	r0, r3, r1, lsl #4
    2514:	00189b06 	andseq	r9, r8, r6, lsl #22
    2518:	48230200 	stmdami	r3!, {r9}
    251c:	04000000 	streq	r0, [r0], #-0
    2520:	23020001 	movwcs	r0, #8193	; 0x2001
    2524:	04070000 	streq	r0, [r7], #-0
    2528:	00e91b02 	rsceq	r1, r9, r2, lsl #22
    252c:	d9080000 	stmdble	r8, {}	; <UNPREDICTABLE>
    2530:	02000009 	andeq	r0, r0, #9
    2534:	0000481c 	andeq	r4, r0, ip, lsl r8
    2538:	13940800 	orrsne	r0, r4, #0
    253c:	26020000 	strcs	r0, [r2], -r0
    2540:	00000068 	andeq	r0, r0, r8, rrx
    2544:	18850400 	stmne	r5, {sl}
    2548:	27020000 	strcs	r0, [r2, -r0]
    254c:	000000ca 	andeq	r0, r0, sl, asr #1
    2550:	00004809 	andeq	r4, r0, r9, lsl #16
    2554:	08770a00 	ldmdaeq	r7!, {r9, fp}^
    2558:	04040000 	streq	r0, [r4], #-0
    255c:	00016689 	andeq	r6, r1, r9, lsl #13
    2560:	06af0b00 	strteq	r0, [pc], r0, lsl #22
    2564:	0b000000 	bleq	256c <__standby_start+0x256c>
    2568:	0000033d 	andeq	r0, r0, sp, lsr r3
    256c:	07680b01 	strbeq	r0, [r8, -r1, lsl #22]!
    2570:	0b020000 	bleq	82578 <__standby_start+0x82578>
    2574:	00000331 	andeq	r0, r0, r1, lsr r3
    2578:	04370b03 	ldrteq	r0, [r7], #-2819	; 0xb03
    257c:	0b040000 	bleq	102584 <__standby_start+0x102584>
    2580:	000006bc 			; <UNDEFINED> instruction: 0x000006bc
    2584:	03f00b05 	mvnseq	r0, #5120	; 0x1400
    2588:	0b060000 	bleq	182590 <__standby_start+0x182590>
    258c:	00000861 	andeq	r0, r0, r1, ror #16
    2590:	046a0b07 	strbteq	r0, [sl], #-2823	; 0xb07
    2594:	0b080000 	bleq	20259c <__standby_start+0x20259c>
    2598:	00000902 	andeq	r0, r0, r2, lsl #18
    259c:	064a0b09 	strbeq	r0, [sl], -r9, lsl #22
    25a0:	0b0a0000 	bleq	2825a8 <__standby_start+0x2825a8>
    25a4:	00000672 	andeq	r0, r0, r2, ror r6
    25a8:	08710b0b 	ldmdaeq	r1!, {r0, r1, r3, r8, r9, fp}^
    25ac:	0b0c0000 	bleq	3025b4 <__standby_start+0x3025b4>
    25b0:	000007c2 	andeq	r0, r0, r2, asr #15
    25b4:	06290b0d 	strteq	r0, [r9], -sp, lsl #22
    25b8:	0b0e0000 	bleq	3825c0 <__standby_start+0x3825c0>
    25bc:	00000800 	andeq	r0, r0, r0, lsl #16
    25c0:	0102000f 	tsteq	r2, pc
    25c4:	0007b608 	andeq	fp, r7, r8, lsl #12
    25c8:	07040200 	streq	r0, [r4, -r0, lsl #4]
    25cc:	0000024f 	andeq	r0, r0, pc, asr #4
    25d0:	1868010c 	stmdane	r8!, {r2, r3, r8}^
    25d4:	0b010000 	bleq	425dc <__standby_start+0x425dc>
    25d8:	000e0801 	andeq	r0, lr, r1, lsl #16
    25dc:	000e28f0 	strdeq	r2, [lr], -r0
    25e0:	0009b9f0 	strdeq	fp, [r9], -r0
    25e4:	00019c00 	andeq	r9, r1, r0, lsl #24
    25e8:	17140d00 	ldrne	r0, [r4, -r0, lsl #26]
    25ec:	0e010000 	cdpeq	0, 0, cr0, cr1, cr0, {0}
    25f0:	000000f4 	strdeq	r0, [r0], -r4
    25f4:	00749102 	rsbseq	r9, r4, r2, lsl #2
    25f8:	1774010e 	ldrbne	r0, [r4, -lr, lsl #2]!
    25fc:	19010000 	stmdbne	r1, {}	; <UNPREDICTABLE>
    2600:	000e2801 	andeq	r2, lr, r1, lsl #16
    2604:	000e2cf0 	strdeq	r2, [lr], -r0
    2608:	007d02f0 	ldrshteq	r0, [sp], #-32	; 0xffffffe0
    260c:	182a010e 	stmdane	sl!, {r1, r2, r3, r8}
    2610:	29010000 	stmdbcs	r1, {}	; <UNPREDICTABLE>
    2614:	000e2c01 	andeq	r2, lr, r1, lsl #24
    2618:	000e30f0 	strdeq	r3, [lr], -r0
    261c:	007d02f0 	ldrshteq	r0, [sp], #-32	; 0xffffffe0
    2620:	17a6010e 	strne	r0, [r6, lr, lsl #2]!
    2624:	38010000 	stmdacc	r1, {}	; <UNPREDICTABLE>
    2628:	000e3001 	andeq	r3, lr, r1
    262c:	000e54f0 	strdeq	r5, [lr], -r0
    2630:	007d02f0 	ldrshteq	r0, [sp], #-32	; 0xffffffe0
    2634:	175e010e 	ldrbne	r0, [lr, -lr, lsl #2]
    2638:	41010000 	mrsmi	r0, (UNDEF: 1)
    263c:	000e5401 	andeq	r5, lr, r1, lsl #8
    2640:	000e78f0 	strdeq	r7, [lr], -r0
    2644:	007d02f0 	ldrshteq	r0, [sp], #-32	; 0xffffffe0
    2648:	1782010c 	strne	r0, [r2, ip, lsl #2]
    264c:	4a010000 	bmi	42654 <__standby_start+0x42654>
    2650:	000e7801 	andeq	r7, lr, r1, lsl #16
    2654:	000f0cf0 	strdeq	r0, [pc], -r0	; <UNPREDICTABLE>
    2658:	0009d9f0 	strdeq	sp, [r9], -r0
    265c:	00021300 	andeq	r1, r2, r0, lsl #6
    2660:	00690f00 	rsbeq	r0, r9, r0, lsl #30
    2664:	00414c01 	subeq	r4, r1, r1, lsl #24
    2668:	09f90000 	ldmibeq	r9!, {}^	; <UNPREDICTABLE>
    266c:	0e000000 	cdpeq	0, 0, cr0, cr0, cr0, {0}
    2670:	00183901 	andseq	r3, r8, r1, lsl #18
    2674:	01600100 	cmneq	r0, r0, lsl #2
    2678:	f0000f0c 			; <UNDEFINED> instruction: 0xf0000f0c
    267c:	f0000f10 			; <UNDEFINED> instruction: 0xf0000f10
    2680:	0c007d02 	stceq	13, cr7, [r0], {2}
    2684:	00187501 	andseq	r7, r8, r1, lsl #10
    2688:	01650100 	cmneq	r5, r0, lsl #2
    268c:	f0000f10 			; <UNDEFINED> instruction: 0xf0000f10
    2690:	f0000fa4 			; <UNDEFINED> instruction: 0xf0000fa4
    2694:	00000a0d 	andeq	r0, r0, sp, lsl #20
    2698:	00000250 	andeq	r0, r0, r0, asr r2
    269c:	6c617610 	stclvs	6, cr7, [r1], #-64	; 0xffffffc0
    26a0:	f4650100 	vld4.8	{d16,d18,d20,d22}, [r5], r0
    26a4:	39000000 	stmdbcc	r0, {}	; <UNPREDICTABLE>
    26a8:	0000000a 	andeq	r0, r0, sl
    26ac:	17b60111 			; <UNDEFINED> instruction: 0x17b60111
    26b0:	79010000 	stmdbvc	r1, {}	; <UNPREDICTABLE>
    26b4:	00004801 	andeq	r4, r0, r1, lsl #16
    26b8:	000fa400 	andeq	sl, pc, r0, lsl #8
    26bc:	000ff8f0 	strdeq	pc, [pc], -r0
    26c0:	000a58f0 	strdeq	r5, [sl], -r0
    26c4:	00027d00 	andeq	r7, r2, r0, lsl #26
    26c8:	61760f00 	cmnvs	r6, r0, lsl #30
    26cc:	7b01006c 	blvc	42884 <__standby_start+0x42884>
    26d0:	00000041 	andeq	r0, r0, r1, asr #32
    26d4:	00000a78 	andeq	r0, r0, r8, ror sl
    26d8:	d9010c00 	stmdble	r1, {sl, fp}
    26dc:	01000017 	tsteq	r0, r7, lsl r0
    26e0:	0ff80189 	svceq	0x00f80189
    26e4:	1070f000 	rsbsne	pc, r0, r0
    26e8:	0aa2f000 	beq	fe8be6f0 <__bss_end+0xe8ba5f0>
    26ec:	02b30000 	adcseq	r0, r3, #0
    26f0:	690f0000 	stmdbvs	pc, {}	; <UNPREDICTABLE>
    26f4:	418b0100 	orrmi	r0, fp, r0, lsl #2
    26f8:	c2000000 	andgt	r0, r0, #0
    26fc:	0f00000a 	svceq	0x0000000a
    2700:	006c6176 	rsbeq	r6, ip, r6, ror r1
    2704:	00418c01 	subeq	r8, r1, r1, lsl #24
    2708:	0ae10000 	beq	ff842710 <__bss_end+0xf83e610>
    270c:	0c000000 	stceq	0, cr0, [r0], {-0}
    2710:	00173801 	andseq	r3, r7, r1, lsl #16
    2714:	019f0100 	orrseq	r0, pc, r0, lsl #2
    2718:	f0001070 			; <UNDEFINED> instruction: 0xf0001070
    271c:	f0001104 			; <UNDEFINED> instruction: 0xf0001104
    2720:	00000b0b 	andeq	r0, r0, fp, lsl #22
    2724:	000002dc 	ldrdeq	r0, [r0], -ip
    2728:	6c617610 	stclvs	6, cr7, [r1], #-64	; 0xffffffc0
    272c:	f49f0100 			; <UNDEFINED> instruction: 0xf49f0100
    2730:	37000000 	strcc	r0, [r0, -r0]
    2734:	0000000b 	andeq	r0, r0, fp
    2738:	179e010e 	ldrne	r0, [lr, lr, lsl #2]
    273c:	f7010000 			; <UNDEFINED> instruction: 0xf7010000
    2740:	00110401 	andseq	r0, r1, r1, lsl #8
    2744:	00111cf0 			; <UNDEFINED> instruction: 0x00111cf0
    2748:	007d02f0 	ldrshteq	r0, [sp], #-32	; 0xffffffe0
    274c:	17070112 	smladne	r7, r2, r1, r0
    2750:	ff010000 			; <UNDEFINED> instruction: 0xff010000
    2754:	00111c01 	andseq	r1, r1, r1, lsl #24
    2758:	001134f0 			; <UNDEFINED> instruction: 0x001134f0
    275c:	007d02f0 	ldrshteq	r0, [sp], #-32	; 0xffffffe0
    2760:	00000317 	andeq	r0, r0, r7, lsl r3
    2764:	0013a413 	andseq	sl, r3, r3, lsl r4
    2768:	01010100 	mrseq	r0, (UNDEF: 17)
    276c:	00000048 	andeq	r0, r0, r8, asr #32
    2770:	14005201 	strne	r5, [r0], #-513	; 0x201
    2774:	0017c501 	andseq	ip, r7, r1, lsl #10
    2778:	010b0100 	mrseq	r0, (UNDEF: 27)
    277c:	00113401 	andseq	r3, r1, r1, lsl #8
    2780:	00114cf0 			; <UNDEFINED> instruction: 0x00114cf0
    2784:	007d02f0 	ldrshteq	r0, [sp], #-32	; 0xffffffe0
    2788:	0000033f 	andeq	r0, r0, pc, lsr r3
    278c:	0013a413 	andseq	sl, r3, r3, lsl r4
    2790:	010d0100 	mrseq	r0, (UNDEF: 29)
    2794:	00000048 	andeq	r0, r0, r8, asr #32
    2798:	15005201 	strne	r5, [r0, #-513]	; 0x201
    279c:	00174e01 	andseq	r4, r7, r1, lsl #28
    27a0:	011a0100 	tsteq	sl, r0, lsl #2
    27a4:	00114c01 	andseq	r4, r1, r1, lsl #24
    27a8:	001180f0 	ldrsheq	r8, [r1], -r0
    27ac:	000b56f0 	strdeq	r5, [fp], -r0
    27b0:	00037a00 	andeq	r7, r3, r0, lsl #20
    27b4:	756e1600 	strbvc	r1, [lr, #-1536]!	; 0x600
    27b8:	1a01006d 	bne	42974 <__standby_start+0x42974>
    27bc:	00004101 	andeq	r4, r0, r1, lsl #2
    27c0:	000b7600 	andeq	r7, fp, r0, lsl #12
    27c4:	13a41700 			; <UNDEFINED> instruction: 0x13a41700
    27c8:	1c010000 	stcne	0, cr0, [r1], {-0}
    27cc:	00004801 	andeq	r4, r0, r1, lsl #16
    27d0:	000b8900 	andeq	r8, fp, r0, lsl #18
    27d4:	1e0d0000 	cdpne	0, 0, cr0, cr13, cr0, {0}
    27d8:	01000017 	tsteq	r0, r7, lsl r0
    27dc:	00038b34 	andeq	r8, r3, r4, lsr fp
    27e0:	4c030500 	cfstr32mi	mvfx0, [r3], {-0}
    27e4:	18f0003d 	ldmne	r0!, {r0, r2, r3, r4, r5}^
    27e8:	00039104 	andeq	r9, r3, r4, lsl #2
    27ec:	00e90900 	rsceq	r0, r9, r0, lsl #18
    27f0:	290d0000 	stmdbcs	sp, {}	; <UNPREDICTABLE>
    27f4:	01000017 	tsteq	r0, r7, lsl r0
    27f8:	0000e935 	andeq	lr, r0, r5, lsr r9
    27fc:	54030500 	strpl	r0, [r3], #-1280	; 0x500
    2800:	0df0003d 	ldcleq	0, cr0, [r0, #244]!	; 0xf4
    2804:	00001849 	andeq	r1, r0, r9, asr #16
    2808:	038b3601 	orreq	r3, fp, #1048576	; 0x100000
    280c:	03050000 	movweq	r0, #20480	; 0x5000
    2810:	f0003d50 			; <UNDEFINED> instruction: 0xf0003d50
    2814:	0017e90d 	andseq	lr, r7, sp, lsl #18
    2818:	e9370100 	ldmdb	r7!, {r8}
    281c:	05000000 	streq	r0, [r0, #-0]
    2820:	003d5803 	eorseq	r5, sp, r3, lsl #16
    2824:	179319f0 			; <UNDEFINED> instruction: 0x179319f0
    2828:	09010000 	stmdbeq	r1, {}	; <UNPREDICTABLE>
    282c:	000003db 	ldrdeq	r0, [r0], -fp
    2830:	5c030501 	cfstr32pl	mvfx0, [r3], {1}
    2834:	09f0003d 	ldmibeq	r0!, {r0, r2, r3, r4, r5}^
    2838:	00000041 	andeq	r0, r0, r1, asr #32
    283c:	0004f600 	andeq	pc, r4, r0, lsl #12
    2840:	62000200 	andvs	r0, r0, #0
    2844:	0400000b 	streq	r0, [r0], #-11
    2848:	0003fd01 	andeq	pc, r3, r1, lsl #26
    284c:	18d60100 	ldmne	r6, {r8}^
    2850:	05350000 	ldreq	r0, [r5, #-0]!
    2854:	11800000 	orrne	r0, r0, r0
    2858:	1380f000 	orrne	pc, r0, #0
    285c:	0a33f000 	beq	cfe864 <__standby_start+0xcfe864>
    2860:	01020000 	mrseq	r0, (UNDEF: 2)
    2864:	0007af06 	andeq	sl, r7, r6, lsl #30
    2868:	08010200 	stmdaeq	r1, {r9}
    286c:	000007ad 	andeq	r0, r0, sp, lsr #15
    2870:	68050202 	stmdavs	r5, {r1, r9}
    2874:	02000006 	andeq	r0, r0, #6
    2878:	087f0702 	ldmdaeq	pc!, {r1, r8, r9, sl}^	; <UNPREDICTABLE>
    287c:	4e030000 	cdpmi	0, 0, cr0, cr3, cr0, {0}
    2880:	0200000e 	andeq	r0, r0, #14
    2884:	00004c12 	andeq	r4, r0, r2, lsl ip
    2888:	05040400 	streq	r0, [r4, #-1024]	; 0x400
    288c:	00746e69 	rsbseq	r6, r4, r9, ror #28
    2890:	00044303 	andeq	r4, r4, r3, lsl #6
    2894:	5e130200 	cdppl	2, 1, cr0, cr3, cr0, {0}
    2898:	02000000 	andeq	r0, r0, #0
    289c:	02540704 	subseq	r0, r4, #1048576	; 0x100000
    28a0:	08020000 	stmdaeq	r2, {}	; <UNPREDICTABLE>
    28a4:	00047d05 	andeq	r7, r4, r5, lsl #26
    28a8:	07080200 	streq	r0, [r8, -r0, lsl #4]
    28ac:	0000024a 	andeq	r0, r0, sl, asr #4
    28b0:	00026e05 	andeq	r6, r2, r5, lsl #28
    28b4:	14030400 	strne	r0, [r3], #-1024	; 0x400
    28b8:	00000098 	muleq	r0, r8, r0
    28bc:	00000006 	andeq	r0, r0, r6
    28c0:	2a060100 	bcs	182cc8 <__standby_start+0x182cc8>
    28c4:	02000005 	andeq	r0, r0, #5
    28c8:	00026106 	andeq	r6, r2, r6, lsl #2
    28cc:	88060300 	stmdahi	r6, {r8, r9}
    28d0:	05000002 	streq	r0, [r0, #-2]
    28d4:	08770500 	ldmdaeq	r7!, {r8, sl}^
    28d8:	04040000 	streq	r0, [r4], #-0
    28dc:	00010589 	andeq	r0, r1, r9, lsl #11
    28e0:	06af0600 	strteq	r0, [pc], r0, lsl #12
    28e4:	06000000 	streq	r0, [r0], -r0
    28e8:	0000033d 	andeq	r0, r0, sp, lsr r3
    28ec:	07680601 	strbeq	r0, [r8, -r1, lsl #12]!
    28f0:	06020000 	streq	r0, [r2], -r0
    28f4:	00000331 	andeq	r0, r0, r1, lsr r3
    28f8:	04370603 	ldrteq	r0, [r7], #-1539	; 0x603
    28fc:	06040000 	streq	r0, [r4], -r0
    2900:	000006bc 			; <UNDEFINED> instruction: 0x000006bc
    2904:	03f00605 	mvnseq	r0, #5242880	; 0x500000
    2908:	06060000 	streq	r0, [r6], -r0
    290c:	00000861 	andeq	r0, r0, r1, ror #16
    2910:	046a0607 	strbteq	r0, [sl], #-1543	; 0x607
    2914:	06080000 	streq	r0, [r8], -r0
    2918:	00000902 	andeq	r0, r0, r2, lsl #18
    291c:	064a0609 	strbeq	r0, [sl], -r9, lsl #12
    2920:	060a0000 	streq	r0, [sl], -r0
    2924:	00000672 	andeq	r0, r0, r2, ror r6
    2928:	0871060b 	ldmdaeq	r1!, {r0, r1, r3, r9, sl}^
    292c:	060c0000 	streq	r0, [ip], -r0
    2930:	000007c2 	andeq	r0, r0, r2, asr #15
    2934:	0629060d 	strteq	r0, [r9], -sp, lsl #12
    2938:	060e0000 	streq	r0, [lr], -r0
    293c:	00000800 	andeq	r0, r0, r0, lsl #16
    2940:	0102000f 	tsteq	r2, pc
    2944:	0007b608 	andeq	fp, r7, r8, lsl #12
    2948:	07040200 	streq	r0, [r4, -r0, lsl #4]
    294c:	0000024f 	andeq	r0, r0, pc, asr #4
    2950:	19cb0107 	stmibne	fp, {r0, r1, r2, r8}^
    2954:	41010000 	mrsmi	r0, (UNDEF: 1)
    2958:	00005301 	andeq	r5, r0, r1, lsl #6
    295c:	01310100 	teqeq	r1, r0, lsl #2
    2960:	16080000 	strne	r0, [r8], -r0
    2964:	01000013 	tsteq	r0, r3, lsl r0
    2968:	00005343 	andeq	r5, r0, r3, asr #6
    296c:	01090000 	mrseq	r0, (UNDEF: 9)
    2970:	000019da 	ldrdeq	r1, [r0], -sl
    2974:	01010c01 	tsteq	r1, r1, lsl #24
    2978:	00000161 	andeq	r0, r0, r1, ror #2
    297c:	0019880a 	andseq	r8, r9, sl, lsl #16
    2980:	530c0100 	movwpl	r0, #49408	; 0xc100
    2984:	0a000000 	beq	298c <__standby_start+0x298c>
    2988:	0000193f 	andeq	r1, r0, pc, lsr r9
    298c:	00530c01 	subseq	r0, r3, r1, lsl #24
    2990:	16080000 	strne	r0, [r8], -r0
    2994:	01000013 	tsteq	r0, r3, lsl r0
    2998:	0000530f 	andeq	r5, r0, pc, lsl #6
    299c:	110b0000 	mrsne	r0, (UNDEF: 11)
    29a0:	0100001a 	tsteq	r0, sl, lsl r0
    29a4:	005301b5 	ldrheq	r0, [r3], #-21	; 0xffffffeb
    29a8:	89010000 	stmdbhi	r1, {}	; <UNPREDICTABLE>
    29ac:	0a000001 	beq	29b8 <__standby_start+0x29b8>
    29b0:	00001367 	andeq	r1, r0, r7, ror #6
    29b4:	0073b501 	rsbseq	fp, r3, r1, lsl #10
    29b8:	5c080000 	stcpl	0, cr0, [r8], {-0}
    29bc:	01000019 	tsteq	r0, r9, lsl r0
    29c0:	00004cb7 			; <UNDEFINED> instruction: 0x00004cb7
    29c4:	310c0000 	mrscc	r0, (UNDEF: 12)
    29c8:	80000001 	andhi	r0, r0, r1
    29cc:	b4f00011 	ldrbtlt	r0, [r0], #17
    29d0:	02f00011 	rscseq	r0, r0, #17
    29d4:	01b7007d 			; <UNDEFINED> instruction: 0x01b7007d
    29d8:	3f0d0000 	svccc	0x000d0000
    29dc:	a7000001 	strge	r0, [r0, -r1]
    29e0:	0e00000b 	cdpeq	0, 0, cr0, cr0, cr11, {0}
    29e4:	0000014a 	andeq	r0, r0, sl, asr #2
    29e8:	550f5101 	strpl	r5, [pc, #-257]	; 28ef <__standby_start+0x28ef>
    29ec:	ba000001 	blt	29f8 <__standby_start+0x29f8>
    29f0:	0000000b 	andeq	r0, r0, fp
    29f4:	19910110 	ldmibne	r1, {r4, r8}
    29f8:	2c010000 	stccs	0, cr0, [r1], {-0}
    29fc:	0011b401 	andseq	fp, r1, r1, lsl #8
    2a00:	0011d0f0 	ldrsheq	sp, [r1], -r0
    2a04:	007d02f0 	ldrshteq	r0, [sp], #-32	; 0xffffffe0
    2a08:	19070110 	stmdbne	r7, {r4, r8}
    2a0c:	36010000 	strcc	r0, [r1], -r0
    2a10:	0011d001 	andseq	sp, r1, r1
    2a14:	0011f4f0 			; <UNDEFINED> instruction: 0x0011f4f0
    2a18:	007d02f0 	ldrshteq	r0, [sp], #-32	; 0xffffffe0
    2a1c:	0001130c 	andeq	r1, r1, ip, lsl #6
    2a20:	0011f400 	andseq	pc, r1, r0, lsl #8
    2a24:	0011fcf0 			; <UNDEFINED> instruction: 0x0011fcf0
    2a28:	007d02f0 	ldrshteq	r0, [sp], #-32	; 0xffffffe0
    2a2c:	000001fb 	strdeq	r0, [r0], -fp
    2a30:	00012511 	andeq	r2, r1, r1, lsl r5
    2a34:	00500100 	subseq	r0, r0, r0, lsl #2
    2a38:	194e0112 	stmdbne	lr, {r1, r4, r8}^
    2a3c:	49010000 	stmdbmi	r1, {}	; <UNPREDICTABLE>
    2a40:	0011fc01 	andseq	pc, r1, r1, lsl #24
    2a44:	00120cf0 			; <UNDEFINED> instruction: 0x00120cf0
    2a48:	007d02f0 	ldrshteq	r0, [sp], #-32	; 0xffffffe0
    2a4c:	00000223 	andeq	r0, r0, r3, lsr #4
    2a50:	00131613 	andseq	r1, r3, r3, lsl r6
    2a54:	534b0100 	movtpl	r0, #45312	; 0xb100
    2a58:	03000000 	movweq	r0, #0
    2a5c:	0000000c 	andeq	r0, r0, ip
    2a60:	18c30114 	stmiane	r3, {r2, r4, r8}^
    2a64:	54010000 	strpl	r0, [r1], #-0
    2a68:	00120c01 	andseq	r0, r2, r1, lsl #24
    2a6c:	001240f0 	ldrsheq	r4, [r2], -r0
    2a70:	000c31f0 	strdeq	r3, [ip], -r0
    2a74:	0002a500 	andeq	sl, r2, r0, lsl #10
    2a78:	08121300 	ldmdaeq	r2, {r8, r9, ip}
    2a7c:	56010000 	strpl	r0, [r1], -r0
    2a80:	00000053 	andeq	r0, r0, r3, asr r0
    2a84:	00000c51 	andeq	r0, r0, r1, asr ip
    2a88:	646e6515 	strbtvs	r6, [lr], #-1301	; 0x515
    2a8c:	53570100 	cmppl	r7, #0
    2a90:	65000000 	strvs	r0, [r0, #-0]
    2a94:	1600000c 	strne	r0, [r0], -ip
    2a98:	00000113 	andeq	r0, r0, r3, lsl r1
    2a9c:	f0001210 			; <UNDEFINED> instruction: 0xf0001210
    2aa0:	f0001214 			; <UNDEFINED> instruction: 0xf0001214
    2aa4:	02815c01 	addeq	r5, r1, #256	; 0x100
    2aa8:	10170000 	andsne	r0, r7, r0
    2aac:	14f00012 	ldrbtne	r0, [r0], #18
    2ab0:	0ff00012 	svceq	0x00f00012
    2ab4:	00000125 	andeq	r0, r0, r5, lsr #2
    2ab8:	00000c79 	andeq	r0, r0, r9, ror ip
    2abc:	13180000 	tstne	r8, #0
    2ac0:	14000001 	strne	r0, [r0], #-1
    2ac4:	18f00012 	ldmne	r0!, {r1, r4}^
    2ac8:	01f00012 	mvnseq	r0, r2, lsl r0
    2acc:	1214175d 	andsne	r1, r4, #24379392	; 0x1740000
    2ad0:	1218f000 	andsne	pc, r8, #0
    2ad4:	250ff000 	strcs	pc, [pc, #-0]	; 2adc <__standby_start+0x2adc>
    2ad8:	8c000001 	stchi	0, cr0, [r0], {1}
    2adc:	0000000c 	andeq	r0, r0, ip
    2ae0:	01140000 	tsteq	r4, r0
    2ae4:	0000191b 	andeq	r1, r0, fp, lsl r9
    2ae8:	40016601 	andmi	r6, r1, r1, lsl #12
    2aec:	c8f00012 	ldmgt	r0!, {r1, r4}^
    2af0:	9ff00012 	svcls	0x00f00012
    2af4:	9500000c 	strls	r0, [r0, #-12]
    2af8:	19000003 	stmdbne	r0, {r0, r1}
    2afc:	01007375 	tsteq	r0, r5, ror r3
    2b00:	00005366 	andeq	r5, r0, r6, ror #6
    2b04:	000cbf00 	andeq	fp, ip, r0, lsl #30
    2b08:	19811300 	stmibne	r1, {r8, r9, ip}
    2b0c:	68010000 	stmdavs	r1, {}	; <UNPREDICTABLE>
    2b10:	00000053 	andeq	r0, r0, r3, asr r0
    2b14:	00000ce8 	andeq	r0, r0, r8, ror #25
    2b18:	72756315 	rsbsvc	r6, r5, #1409286144	; 0x54000000
    2b1c:	53690100 	cmnpl	r9, #0
    2b20:	18000000 	stmdane	r0, {}	; <UNPREDICTABLE>
    2b24:	1300000d 	movwne	r0, #13
    2b28:	000018bc 			; <UNDEFINED> instruction: 0x000018bc
    2b2c:	00536a01 	subseq	r6, r3, r1, lsl #20
    2b30:	0d4e0000 	stcleq	0, cr0, [lr, #-0]
    2b34:	a4130000 	ldrge	r0, [r3], #-0
    2b38:	01000018 	tsteq	r0, r8, lsl r0
    2b3c:	0000536b 	andeq	r5, r0, fp, ror #6
    2b40:	000d7900 	andeq	r7, sp, r0, lsl #18
    2b44:	756f1a00 	strbvc	r1, [pc, #-2560]!	; 214c <__standby_start+0x214c>
    2b48:	9f010074 	svcls	0x00010074
    2b4c:	f0001258 			; <UNDEFINED> instruction: 0xf0001258
    2b50:	00011316 	andeq	r1, r1, r6, lsl r3
    2b54:	00126c00 	andseq	r6, r2, r0, lsl #24
    2b58:	001270f0 	ldrsheq	r7, [r2], -r0
    2b5c:	387601f0 	ldmdacc	r6!, {r4, r5, r6, r7, r8}^
    2b60:	17000003 	strne	r0, [r0, -r3]
    2b64:	f000126c 			; <UNDEFINED> instruction: 0xf000126c
    2b68:	f0001270 			; <UNDEFINED> instruction: 0xf0001270
    2b6c:	00012511 	andeq	r2, r1, r1, lsl r5
    2b70:	00530100 	subseq	r0, r3, r0, lsl #2
    2b74:	01311600 	teqeq	r1, r0, lsl #12
    2b78:	12900000 	addsne	r0, r0, #0
    2b7c:	12b0f000 	adcsne	pc, r0, #0
    2b80:	7c01f000 	stcvc	0, cr15, [r1], {-0}
    2b84:	00000371 	andeq	r0, r0, r1, ror r3
    2b88:	00014a0d 	andeq	r4, r1, sp, lsl #20
    2b8c:	000da400 	andeq	sl, sp, r0, lsl #8
    2b90:	013f0d00 	teqeq	pc, r0, lsl #26
    2b94:	0db80000 	ldceq	0, cr0, [r8]
    2b98:	90170000 	andsls	r0, r7, r0
    2b9c:	b0f00012 	rscslt	r0, r0, r2, lsl r0
    2ba0:	0ff00012 	svceq	0x00f00012
    2ba4:	00000155 	andeq	r0, r0, r5, asr r1
    2ba8:	00000dcc 	andeq	r0, r0, ip, asr #27
    2bac:	13180000 	tstne	r8, #0
    2bb0:	b0000001 	andlt	r0, r0, r1
    2bb4:	b4f00012 	ldrbtlt	r0, [r0], #18
    2bb8:	01f00012 	mvnseq	r0, r2, lsl r0
    2bbc:	12b01780 	adcsne	r1, r0, #33554432	; 0x2000000
    2bc0:	12b4f000 	adcsne	pc, r4, #0
    2bc4:	250ff000 	strcs	pc, [pc, #-0]	; 2bcc <__standby_start+0x2bcc>
    2bc8:	f0000001 			; <UNDEFINED> instruction: 0xf0000001
    2bcc:	0000000d 	andeq	r0, r0, sp
    2bd0:	01140000 	tsteq	r4, r0
    2bd4:	000018b3 			; <UNDEFINED> instruction: 0x000018b3
    2bd8:	c801a901 	stmdagt	r1, {r0, r8, fp, sp, pc}
    2bdc:	fcf00012 	ldc2l	0, cr0, [r0], #72	; 0x48
    2be0:	03f00012 	mvnseq	r0, #18
    2be4:	bd00000e 	stclt	0, cr0, [r0, #-56]	; 0xffffffc8
    2be8:	19000003 	stmdbne	r0, {r0, r1}
    2bec:	0100736d 	tsteq	r0, sp, ror #6
    2bf0:	000053a9 	andeq	r5, r0, r9, lsr #7
    2bf4:	000e2300 	andeq	r2, lr, r0, lsl #6
    2bf8:	01120000 	tsteq	r2, r0
    2bfc:	000019fe 	strdeq	r1, [r0], -lr
    2c00:	fc01cf01 	stc2	15, cr12, [r1], {1}
    2c04:	28f00012 	ldmcs	r0!, {r1, r4}^
    2c08:	02f00013 	rscseq	r0, r0, #19
    2c0c:	0401007d 	streq	r0, [r1], #-125	; 0x7d
    2c10:	881b0000 	ldmdahi	fp, {}	; <UNPREDICTABLE>
    2c14:	01000019 	tsteq	r0, r9, lsl r0
    2c18:	000053cf 	andeq	r5, r0, pc, asr #7
    2c1c:	000e5900 	andeq	r5, lr, r0, lsl #18
    2c20:	193f1c00 	ldmdbne	pc!, {sl, fp, ip}	; <UNPREDICTABLE>
    2c24:	cf010000 	svcgt	0x00010000
    2c28:	00000053 	andeq	r0, r0, r3, asr r0
    2c2c:	16135101 	ldrne	r5, [r3], -r1, lsl #2
    2c30:	01000013 	tsteq	r0, r3, lsl r0
    2c34:	000053d2 	ldrdeq	r5, [r0], -r2
    2c38:	000e6c00 	andeq	r6, lr, r0, lsl #24
    2c3c:	01120000 	tsteq	r2, r0
    2c40:	000019ec 	andeq	r1, r0, ip, ror #19
    2c44:	2801ed01 	stmdacs	r1, {r0, r8, sl, fp, sp, lr, pc}
    2c48:	54f00013 	ldrbtpl	r0, [r0], #19
    2c4c:	02f00013 	rscseq	r0, r0, #19
    2c50:	044d007d 	strbeq	r0, [sp], #-125	; 0x7d
    2c54:	671c0000 	ldrvs	r0, [ip, -r0]
    2c58:	01000013 	tsteq	r0, r3, lsl r0
    2c5c:	000073ed 	andeq	r7, r0, sp, ror #7
    2c60:	13500100 	cmpne	r0, #0
    2c64:	0000195c 	andeq	r1, r0, ip, asr r9
    2c68:	0053f001 	subseq	pc, r3, r1
    2c6c:	0eb50000 	cdpeq	0, 11, cr0, cr5, cr0, {0}
    2c70:	61180000 	tstvs	r8, r0
    2c74:	28000001 	stmdacs	r0, {r0}
    2c78:	3cf00013 	ldclcc	0, cr0, [r0], #76	; 0x4c
    2c7c:	01f00013 	mvnseq	r0, r3, lsl r0
    2c80:	01720ef1 	ldrsheq	r0, [r2, #-225]!	; 0xffffff1f
    2c84:	50010000 	andpl	r0, r1, r0
    2c88:	011d0000 	tsteq	sp, r0
    2c8c:	0000192d 	andeq	r1, r0, sp, lsr #18
    2c90:	01010001 	tsteq	r1, r1
    2c94:	0000004c 	andeq	r0, r0, ip, asr #32
    2c98:	f0001354 			; <UNDEFINED> instruction: 0xf0001354
    2c9c:	f0001380 			; <UNDEFINED> instruction: 0xf0001380
    2ca0:	b5007d02 	strlt	r7, [r0, #-3330]	; 0xd02
    2ca4:	1e000004 	cdpne	0, 0, cr0, cr0, cr4, {0}
    2ca8:	00001367 	andeq	r1, r0, r7, ror #6
    2cac:	73010001 	movwvc	r0, #4097	; 0x1001
    2cb0:	c9000000 	stmdbgt	r0, {}	; <UNPREDICTABLE>
    2cb4:	1f00000e 	svcne	0x0000000e
    2cb8:	0000195c 	andeq	r1, r0, ip, asr r9
    2cbc:	4c010201 	sfmmi	f0, 4, [r1], {1}
    2cc0:	e9000000 	stmdb	r0, {}	; <UNPREDICTABLE>
    2cc4:	1f00000e 	svcne	0x0000000e
    2cc8:	000019a4 	andeq	r1, r0, r4, lsr #19
    2ccc:	4c010301 	stcmi	3, cr0, [r1], {1}
    2cd0:	08000000 	stmdaeq	r0, {}	; <UNPREDICTABLE>
    2cd4:	2000000f 	andcs	r0, r0, pc
    2cd8:	00000161 	andeq	r0, r0, r1, ror #2
    2cdc:	f0001354 			; <UNDEFINED> instruction: 0xf0001354
    2ce0:	f0001368 			; <UNDEFINED> instruction: 0xf0001368
    2ce4:	0d010401 	cfstrseq	mvf0, [r1, #-4]
    2ce8:	00000172 	andeq	r0, r0, r2, ror r1
    2cec:	00000f27 	andeq	r0, r0, r7, lsr #30
    2cf0:	82210000 	eorhi	r0, r1, #0
    2cf4:	01000022 	tsteq	r0, r2, lsr #32
    2cf8:	00005305 	andeq	r5, r0, r5, lsl #6
    2cfc:	6c030500 	cfstr32vs	mvfx0, [r3], {-0}
    2d00:	21f0003d 	mvnscs	r0, sp, lsr r0
    2d04:	00001924 	andeq	r1, r0, r4, lsr #18
    2d08:	00530601 	subseq	r0, r3, r1, lsl #12
    2d0c:	03050000 	movweq	r0, #20480	; 0x5000
    2d10:	f0003d68 			; <UNDEFINED> instruction: 0xf0003d68
    2d14:	0019ae21 	andseq	sl, r9, r1, lsr #28
    2d18:	53070100 	movwpl	r0, #28928	; 0x7100
    2d1c:	05000000 	streq	r0, [r0, #-0]
    2d20:	003d6003 	eorseq	r6, sp, r3
    2d24:	196221f0 	stmdbne	r2!, {r4, r5, r6, r7, r8, sp}^
    2d28:	08010000 	stmdaeq	r1, {}	; <UNPREDICTABLE>
    2d2c:	00000053 	andeq	r0, r0, r3, asr r0
    2d30:	3d640305 	stclcc	3, cr0, [r4, #-20]!	; 0xffffffec
    2d34:	4b00f000 	blmi	3ed3c <__standby_start+0x3ed3c>
    2d38:	02000001 	andeq	r0, r0, #1
    2d3c:	000d5200 	andeq	r5, sp, r0, lsl #4
    2d40:	fd010400 	stc2	4, cr0, [r1, #-0]
    2d44:	01000003 	tsteq	r0, r3
    2d48:	00001a6d 	andeq	r1, r0, sp, ror #20
    2d4c:	00000535 	andeq	r0, r0, r5, lsr r5
    2d50:	f0001380 			; <UNDEFINED> instruction: 0xf0001380
    2d54:	f0001420 			; <UNDEFINED> instruction: 0xf0001420
    2d58:	00000b6a 	andeq	r0, r0, sl, ror #22
    2d5c:	54070402 	strpl	r0, [r7], #-1026	; 0x402
    2d60:	02000002 	andeq	r0, r0, #2
    2d64:	07b60801 	ldreq	r0, [r6, r1, lsl #16]!
    2d68:	02020000 	andeq	r0, r2, #0
    2d6c:	00087f07 	andeq	r7, r8, r7, lsl #30
    2d70:	05040300 	streq	r0, [r4, #-768]	; 0x300
    2d74:	00746e69 	rsbseq	r6, r4, r9, ror #28
    2d78:	4f070402 	svcmi	0x00070402
    2d7c:	02000002 	andeq	r0, r0, #2
    2d80:	07ad0801 	streq	r0, [sp, r1, lsl #16]!
    2d84:	01020000 	mrseq	r0, (UNDEF: 2)
    2d88:	0007af06 	andeq	sl, r7, r6, lsl #30
    2d8c:	05020200 	streq	r0, [r2, #-512]	; 0x200
    2d90:	00000668 	andeq	r0, r0, r8, ror #12
    2d94:	00044304 	andeq	r4, r4, r4, lsl #6
    2d98:	25130300 	ldrcs	r0, [r3, #-768]	; 0x300
    2d9c:	02000000 	andeq	r0, r0, #0
    2da0:	047d0508 	ldrbteq	r0, [sp], #-1288	; 0x508
    2da4:	08020000 	stmdaeq	r2, {}	; <UNPREDICTABLE>
    2da8:	00024a07 	andeq	r4, r2, r7, lsl #20
    2dac:	1a300500 	bne	c041b4 <__standby_start+0xc041b4>
    2db0:	02240000 	eoreq	r0, r4, #0
    2db4:	0001004c 	andeq	r0, r1, ip, asr #32
    2db8:	1aa80600 	bne	fea045c0 <__bss_end+0xea004c0>
    2dbc:	4e020000 	cdpmi	0, 0, cr0, cr2, cr0, {0}
    2dc0:	0000005d 	andeq	r0, r0, sp, asr r0
    2dc4:	07002302 	streq	r2, [r0, -r2, lsl #6]
    2dc8:	02007263 	andeq	r7, r0, #805306374	; 0x30000006
    2dcc:	00005d50 	andeq	r5, r0, r0, asr sp
    2dd0:	04230200 	strteq	r0, [r3], #-512	; 0x200
    2dd4:	001aa306 	andseq	sl, sl, r6, lsl #6
    2dd8:	5d510200 	lfmpl	f0, 2, [r1, #-0]
    2ddc:	02000000 	andeq	r0, r0, #0
    2de0:	ad060823 	stcge	8, cr0, [r6, #-140]	; 0xffffff74
    2de4:	0200001a 	andeq	r0, r0, #26
    2de8:	00005d53 	andeq	r5, r0, r3, asr sp
    2dec:	0c230200 	sfmeq	f0, 4, [r3], #-0
    2df0:	001a4506 	andseq	r4, sl, r6, lsl #10
    2df4:	5d540200 	lfmpl	f0, 2, [r4, #-0]
    2df8:	02000000 	andeq	r0, r0, #0
    2dfc:	3f061023 	svccc	0x00061023
    2e00:	0200001a 	andeq	r0, r0, #26
    2e04:	00005d55 	andeq	r5, r0, r5, asr sp
    2e08:	14230200 	strtne	r0, [r3], #-512	; 0x200
    2e0c:	001a3a06 	andseq	r3, sl, r6, lsl #20
    2e10:	5d580200 	lfmpl	f0, 2, [r8, #-0]
    2e14:	02000000 	andeq	r0, r0, #0
    2e18:	9e061823 	cdpls	8, 0, cr1, cr6, cr3, {1}
    2e1c:	0200001a 	andeq	r0, r0, #26
    2e20:	00005d5b 	andeq	r5, r0, fp, asr sp
    2e24:	1c230200 	sfmne	f0, 4, [r3], #-0
    2e28:	001a2506 	andseq	r2, sl, r6, lsl #10
    2e2c:	5d5c0200 	lfmpl	f0, 2, [ip, #-0]
    2e30:	02000000 	andeq	r0, r0, #0
    2e34:	08002023 	stmdaeq	r0, {r0, r1, r5, sp}
    2e38:	001a5e01 	andseq	r5, sl, r1, lsl #28
    2e3c:	01070100 	mrseq	r0, (UNDEF: 23)
    2e40:	f0001380 			; <UNDEFINED> instruction: 0xf0001380
    2e44:	f00013bc 			; <UNDEFINED> instruction: 0xf00013bc
    2e48:	26007d02 	strcs	r7, [r0], -r2, lsl #26
    2e4c:	09000001 	stmdbeq	r0, {r0}
    2e50:	00001a2a 	andeq	r1, r0, sl, lsr #20
    2e54:	01260701 	teqeq	r6, r1, lsl #14
    2e58:	50010000 	andpl	r0, r1, r0
    2e5c:	76040a00 	strvc	r0, [r4], -r0, lsl #20
    2e60:	0b000000 	bleq	2e68 <__standby_start+0x2e68>
    2e64:	001a4c01 	andseq	r4, sl, r1, lsl #24
    2e68:	011e0100 	tsteq	lr, r0, lsl #2
    2e6c:	f00013bc 			; <UNDEFINED> instruction: 0xf00013bc
    2e70:	f0001420 			; <UNDEFINED> instruction: 0xf0001420
    2e74:	09007d02 	stmdbeq	r0, {r1, r8, sl, fp, ip, sp, lr}
    2e78:	00001a2a 	andeq	r1, r0, sl, lsr #20
    2e7c:	01261e01 	teqeq	r6, r1, lsl #28
    2e80:	50010000 	andpl	r0, r1, r0
    2e84:	11b90000 			; <UNDEFINED> instruction: 0x11b90000
    2e88:	00020000 	andeq	r0, r2, r0
    2e8c:	00000dfa 	strdeq	r0, [r0], -sl
    2e90:	03fd0104 	mvnseq	r0, #1
    2e94:	18010000 	stmdane	r1, {}	; <UNPREDICTABLE>
    2e98:	3500001c 	strcc	r0, [r0, #-28]
    2e9c:	80000005 	andhi	r0, r0, r5
    2ea0:	c4f00019 	ldrbtgt	r0, [r0], #25
    2ea4:	1ef0001e 	mrcne	0, 7, r0, cr0, cr14, {0}
    2ea8:	0200000c 	andeq	r0, r0, #12
    2eac:	07af0601 	streq	r0, [pc, r1, lsl #12]!
    2eb0:	01020000 	mrseq	r0, (UNDEF: 2)
    2eb4:	0007ad08 	andeq	sl, r7, r8, lsl #26
    2eb8:	05020200 	streq	r0, [r2, #-512]	; 0x200
    2ebc:	00000668 	andeq	r0, r0, r8, ror #12
    2ec0:	7f070202 	svcvc	0x00070202
    2ec4:	03000008 	movweq	r0, #8
    2ec8:	00000e4e 	andeq	r0, r0, lr, asr #28
    2ecc:	004c1202 	subeq	r1, ip, r2, lsl #4
    2ed0:	04040000 	streq	r0, [r4], #-0
    2ed4:	746e6905 	strbtvc	r6, [lr], #-2309	; 0x905
    2ed8:	04430300 	strbeq	r0, [r3], #-768	; 0x300
    2edc:	13020000 	movwne	r0, #8192	; 0x2000
    2ee0:	0000005e 	andeq	r0, r0, lr, asr r0
    2ee4:	54070402 	strpl	r0, [r7], #-1026	; 0x402
    2ee8:	02000002 	andeq	r0, r0, #2
    2eec:	047d0508 	ldrbteq	r0, [sp], #-1288	; 0x508
    2ef0:	08020000 	stmdaeq	r2, {}	; <UNPREDICTABLE>
    2ef4:	00024a07 	andeq	r4, r2, r7, lsl #20
    2ef8:	03040500 	movweq	r0, #17664	; 0x4500
    2efc:	0001041a 	andeq	r0, r1, sl, lsl r4
    2f00:	0af60600 	beq	ffd84708 <__bss_end+0xfd80608>
    2f04:	1c030000 	stcne	0, cr0, [r3], {-0}
    2f08:	00000053 	andeq	r0, r0, r3, asr r0
    2f0c:	021e0204 	andseq	r0, lr, #1073741824	; 0x40000000
    2f10:	d9060023 	stmdble	r6, {r0, r1, r5}
    2f14:	0300000e 	movweq	r0, #14
    2f18:	0000531d 	andeq	r5, r0, sp, lsl r3
    2f1c:	18060400 	stmdane	r6, {sl}
    2f20:	06002302 	streq	r2, [r0], -r2, lsl #6
    2f24:	00000afe 	strdeq	r0, [r0], -lr
    2f28:	00531e03 	subseq	r1, r3, r3, lsl #28
    2f2c:	08040000 	stmdaeq	r4, {}	; <UNPREDICTABLE>
    2f30:	00230210 	eoreq	r0, r3, r0, lsl r2
    2f34:	000b0e06 	andeq	r0, fp, r6, lsl #28
    2f38:	531f0300 	tstpl	pc, #0
    2f3c:	04000000 	streq	r0, [r0], #-0
    2f40:	23020f01 	movwcs	r0, #12033	; 0x2f01
    2f44:	0ef70600 	cdpeq	6, 15, cr0, cr7, cr0, {0}
    2f48:	20030000 	andcs	r0, r3, r0
    2f4c:	00000053 	andeq	r0, r0, r3, asr r0
    2f50:	02080704 	andeq	r0, r8, #1048576	; 0x100000
    2f54:	12060023 	andne	r0, r6, #35	; 0x23
    2f58:	0300000c 	movweq	r0, #12
    2f5c:	00005321 	andeq	r5, r0, r1, lsr #6
    2f60:	05030400 	streq	r0, [r3, #-1024]	; 0x400
    2f64:	06002302 	streq	r2, [r0], -r2, lsl #6
    2f68:	00000f01 	andeq	r0, r0, r1, lsl #30
    2f6c:	00532203 	subseq	r2, r3, r3, lsl #4
    2f70:	04040000 	streq	r0, [r4], #-0
    2f74:	00230201 	eoreq	r0, r3, r1, lsl #4
    2f78:	000ea306 	andeq	sl, lr, r6, lsl #6
    2f7c:	53230300 	teqpl	r3, #0
    2f80:	04000000 	streq	r0, [r0], #-0
    2f84:	23020001 	movwcs	r0, #8193	; 0x2001
    2f88:	04070000 	streq	r0, [r7], #-0
    2f8c:	01231803 	teqeq	r3, r3, lsl #16
    2f90:	d9080000 	stmdble	r8, {}	; <UNPREDICTABLE>
    2f94:	03000009 	movweq	r0, #9
    2f98:	00005319 	andeq	r5, r0, r9, lsl r3
    2f9c:	13940800 	orrsne	r0, r4, #0
    2fa0:	25030000 	strcs	r0, [r3, #-0]
    2fa4:	00000073 	andeq	r0, r0, r3, ror r0
    2fa8:	0ea90300 	cdpeq	3, 10, cr0, cr9, cr0, {0}
    2fac:	26030000 	strcs	r0, [r3], -r0
    2fb0:	00000104 	andeq	r0, r0, r4, lsl #2
    2fb4:	3e030405 	cdpcc	4, 0, cr0, cr3, cr5, {0}
    2fb8:	000001bf 			; <UNDEFINED> instruction: 0x000001bf
    2fbc:	00107406 	andseq	r7, r0, r6, lsl #8
    2fc0:	53400300 	movtpl	r0, #768	; 0x300
    2fc4:	04000000 	streq	r0, [r0], #-0
    2fc8:	23021e02 	movwcs	r1, #11778	; 0x2e02
    2fcc:	0ed90600 	cdpeq	6, 13, cr0, cr9, cr0, {0}
    2fd0:	41030000 	mrsmi	r0, (UNDEF: 3)
    2fd4:	00000053 	andeq	r0, r0, r3, asr r0
    2fd8:	02140a04 	andseq	r0, r4, #16384	; 0x4000
    2fdc:	c6060023 	strgt	r0, [r6], -r3, lsr #32
    2fe0:	0300000b 	movweq	r0, #11
    2fe4:	00005342 	andeq	r5, r0, r2, asr #6
    2fe8:	13010400 	movwne	r0, #5120	; 0x1400
    2fec:	06002302 	streq	r2, [r0], -r2, lsl #6
    2ff0:	00000ee3 	andeq	r0, r0, r3, ror #29
    2ff4:	00534303 	subseq	r4, r3, r3, lsl #6
    2ff8:	03040000 	movweq	r0, #16384	; 0x4000
    2ffc:	00230210 	eoreq	r0, r3, r0, lsl r2
    3000:	000cf006 	andeq	pc, ip, r6
    3004:	53440300 	movtpl	r0, #17152	; 0x4300
    3008:	04000000 	streq	r0, [r0], #-0
    300c:	23020e02 	movwcs	r0, #11778	; 0x2e02
    3010:	0eed0600 	cdpeq	6, 14, cr0, cr13, cr0, {0}
    3014:	45030000 	strmi	r0, [r3, #-0]
    3018:	00000053 	andeq	r0, r0, r3, asr r0
    301c:	02040a04 	andeq	r0, r4, #16384	; 0x4000
    3020:	5d060023 	stcpl	0, cr0, [r6, #-140]	; 0xffffff74
    3024:	0300000b 	movweq	r0, #11
    3028:	00005346 	andeq	r5, r0, r6, asr #6
    302c:	03010400 	movweq	r0, #5120	; 0x1400
    3030:	06002302 	streq	r2, [r0], -r2, lsl #6
    3034:	00000ef7 	strdeq	r0, [r0], -r7
    3038:	00534703 	subseq	r4, r3, r3, lsl #14
    303c:	03040000 	movweq	r0, #16384	; 0x4000
    3040:	00230200 	eoreq	r0, r3, r0, lsl #4
    3044:	03040700 	movweq	r0, #18176	; 0x4700
    3048:	0001de3c 	andeq	sp, r1, ip, lsr lr
    304c:	09d90800 	ldmibeq	r9, {fp}^
    3050:	3d030000 	stccc	0, cr0, [r3, #-0]
    3054:	00000053 	andeq	r0, r0, r3, asr r0
    3058:	00139408 	andseq	r9, r3, r8, lsl #8
    305c:	2e480300 	cdpcs	3, 4, cr0, cr8, cr0, {0}
    3060:	00000001 	andeq	r0, r0, r1
    3064:	000a6503 	andeq	r6, sl, r3, lsl #10
    3068:	bf490300 	svclt	0x00490300
    306c:	09000001 	stmdbeq	r0, {r0}
    3070:	00000966 	andeq	r0, r0, r6, ror #18
    3074:	6d4f0304 	stclvs	3, cr0, [pc, #-16]	; 306c <__standby_start+0x306c>
    3078:	06000002 	streq	r0, [r0], -r2
    307c:	00000ed9 	ldrdeq	r0, [r0], -r9
    3080:	00535103 	subseq	r5, r3, r3, lsl #2
    3084:	04040000 	streq	r0, [r4], #-0
    3088:	0023021c 	eoreq	r0, r3, ip, lsl r2
    308c:	000d4d06 	andeq	r4, sp, r6, lsl #26
    3090:	53520300 	cmppl	r2, #0
    3094:	04000000 	streq	r0, [r0], #-0
    3098:	23021a02 	movwcs	r1, #10754	; 0x2a02
    309c:	0cb60600 	ldceq	6, cr0, [r6]
    30a0:	53030000 	movwpl	r0, #12288	; 0x3000
    30a4:	00000053 	andeq	r0, r0, r3, asr r0
    30a8:	02180204 	andseq	r0, r8, #1073741824	; 0x40000000
    30ac:	46060023 	strmi	r0, [r6], -r3, lsr #32
    30b0:	0300000e 	movweq	r0, #14
    30b4:	00005354 	andeq	r5, r0, r4, asr r3
    30b8:	16020400 	strne	r0, [r2], -r0, lsl #8
    30bc:	06002302 	streq	r2, [r0], -r2, lsl #6
    30c0:	00000ee3 	andeq	r0, r0, r3, ror #29
    30c4:	00535503 	subseq	r5, r3, r3, lsl #10
    30c8:	02040000 	andeq	r0, r4, #0
    30cc:	00230214 	eoreq	r0, r3, r4, lsl r2
    30d0:	000e2806 	andeq	r2, lr, r6, lsl #16
    30d4:	53560300 	cmppl	r6, #0
    30d8:	04000000 	streq	r0, [r0], #-0
    30dc:	23021202 	movwcs	r1, #8706	; 0x2202
    30e0:	0eed0600 	cdpeq	6, 14, cr0, cr13, cr0, {0}
    30e4:	57030000 	strpl	r0, [r3, -r0]
    30e8:	00000053 	andeq	r0, r0, r3, asr r0
    30ec:	02001204 	andeq	r1, r0, #1073741824	; 0x40000000
    30f0:	03000023 	movweq	r0, #35	; 0x23
    30f4:	00000fff 	strdeq	r0, [r0], -pc	; <UNPREDICTABLE>
    30f8:	01e95803 	mvneq	r5, r3, lsl #16
    30fc:	04050000 	streq	r0, [r5], #-0
    3100:	02e75f03 	rsceq	r5, r7, #12
    3104:	7e060000 	cdpvc	0, 0, cr0, cr6, cr0, {0}
    3108:	0300000b 	movweq	r0, #11
    310c:	00005361 	andeq	r5, r0, r1, ror #6
    3110:	1b050400 	blne	144118 <__standby_start+0x144118>
    3114:	06002302 	streq	r2, [r0], -r2, lsl #6
    3118:	0000106b 	andeq	r1, r0, fp, rrx
    311c:	00536203 	subseq	r6, r3, r3, lsl #4
    3120:	0b040000 	bleq	103128 <__standby_start+0x103128>
    3124:	00230210 	eoreq	r0, r3, r0, lsl r2
    3128:	000b8306 	andeq	r8, fp, r6, lsl #6
    312c:	53630300 	cmnpl	r3, #0
    3130:	04000000 	streq	r0, [r0], #-0
    3134:	23020e02 	movwcs	r0, #11778	; 0x2e02
    3138:	0ee30600 	cdpeq	6, 14, cr0, cr3, cr0, {0}
    313c:	64030000 	strvs	r0, [r3], #-0
    3140:	00000053 	andeq	r0, r0, r3, asr r0
    3144:	02080604 	andeq	r0, r8, #4194304	; 0x400000
    3148:	5f060023 	svcpl	0x00060023
    314c:	0300000b 	movweq	r0, #11
    3150:	00005365 	andeq	r5, r0, r5, ror #6
    3154:	06020400 	streq	r0, [r2], -r0, lsl #8
    3158:	06002302 	streq	r2, [r0], -r2, lsl #6
    315c:	00000eed 	andeq	r0, r0, sp, ror #29
    3160:	00536603 	subseq	r6, r3, r3, lsl #12
    3164:	06040000 	streq	r0, [r4], -r0
    3168:	00230200 	eoreq	r0, r3, r0, lsl #4
    316c:	03040700 	movweq	r0, #18176	; 0x4700
    3170:	0003065d 	andeq	r0, r3, sp, asr r6
    3174:	09d90800 	ldmibeq	r9, {fp}^
    3178:	5e030000 	cdppl	0, 0, cr0, cr3, cr0, {0}
    317c:	00000053 	andeq	r0, r0, r3, asr r0
    3180:	00139408 	andseq	r9, r3, r8, lsl #8
    3184:	78670300 	stmdavc	r7!, {r8, r9}^
    3188:	00000002 	andeq	r0, r0, r2
    318c:	000d8703 	andeq	r8, sp, r3, lsl #14
    3190:	e7680300 	strb	r0, [r8, -r0, lsl #6]!
    3194:	09000002 	stmdbeq	r0, {r1}
    3198:	00000c5d 	andeq	r0, r0, sp, asr ip
    319c:	406a0304 	rsbmi	r0, sl, r4, lsl #6
    31a0:	06000003 	streq	r0, [r0], -r3
    31a4:	0000104c 	andeq	r1, r0, ip, asr #32
    31a8:	00536c03 	subseq	r6, r3, r3, lsl #24
    31ac:	10040000 	andne	r0, r4, r0
    31b0:	00230210 	eoreq	r0, r3, r0, lsl r2
    31b4:	00106b06 	andseq	r6, r0, r6, lsl #22
    31b8:	536d0300 	cmnpl	sp, #0
    31bc:	04000000 	streq	r0, [r0], #-0
    31c0:	23020010 	movwcs	r0, #8208	; 0x2010
    31c4:	73030000 	movwvc	r0, #12288	; 0x3000
    31c8:	0300000f 	movweq	r0, #15
    31cc:	0003116e 	andeq	r1, r3, lr, ror #2
    31d0:	10c90a00 	sbcne	r0, r9, r0, lsl #20
    31d4:	02dc0000 	sbcseq	r0, ip, #0
    31d8:	0b217003 	bleq	85f1ec <__standby_start+0x85f1ec>
    31dc:	1b0b0000 	blne	2c31e4 <__standby_start+0x2c31e4>
    31e0:	0300000c 	movweq	r0, #12
    31e4:	000b2172 	andeq	r2, fp, r2, ror r1
    31e8:	00230200 	eoreq	r0, r3, r0, lsl #4
    31ec:	000c400b 	andeq	r4, ip, fp
    31f0:	26730300 	ldrbtcs	r0, [r3], -r0, lsl #6
    31f4:	0200000b 	andeq	r0, r0, #11
    31f8:	c10b0423 	tstgt	fp, r3, lsr #8
    31fc:	03000010 	movweq	r0, #16
    3200:	000b2674 	andeq	r2, fp, r4, ror r6
    3204:	08230200 	stmdaeq	r3!, {r9}
    3208:	000ee30b 	andeq	lr, lr, fp, lsl #6
    320c:	26750300 	ldrbtcs	r0, [r5], -r0, lsl #6
    3210:	0200000b 	andeq	r0, r0, #11
    3214:	750b0c23 	strvc	r0, [fp, #-3107]	; 0xc23
    3218:	0300000d 	movweq	r0, #13
    321c:	000b2676 	andeq	r2, fp, r6, ror r6
    3220:	10230200 	eorne	r0, r3, r0, lsl #4
    3224:	000eed0b 	andeq	lr, lr, fp, lsl #26
    3228:	26770300 	ldrbtcs	r0, [r7], -r0, lsl #6
    322c:	0200000b 	andeq	r0, r0, #11
    3230:	470b1423 	strmi	r1, [fp, -r3, lsr #8]
    3234:	0300000a 	movweq	r0, #10
    3238:	000b2678 	andeq	r2, fp, r8, ror r6
    323c:	18230200 	stmdane	r3!, {r9}
    3240:	000ef70b 	andeq	pc, lr, fp, lsl #14
    3244:	26790300 	ldrbtcs	r0, [r9], -r0, lsl #6
    3248:	0200000b 	andeq	r0, r0, #11
    324c:	9b0b1c23 	blls	2ca2e0 <__standby_start+0x2ca2e0>
    3250:	0300000e 	movweq	r0, #14
    3254:	000b267a 	andeq	r2, fp, sl, ror r6
    3258:	20230200 	eorcs	r0, r3, r0, lsl #4
    325c:	000f010b 	andeq	r0, pc, fp, lsl #2
    3260:	267b0300 	ldrbtcs	r0, [fp], -r0, lsl #6
    3264:	0200000b 	andeq	r0, r0, #11
    3268:	0f0b2423 	svceq	0x000b2423
    326c:	0300000a 	movweq	r0, #10
    3270:	000b267c 	andeq	r2, fp, ip, ror r6
    3274:	28230200 	stmdacs	r3!, {r9}
    3278:	000f0b0b 	andeq	r0, pc, fp, lsl #22
    327c:	267d0300 	ldrbtcs	r0, [sp], -r0, lsl #6
    3280:	0200000b 	andeq	r0, r0, #11
    3284:	830b2c23 	movwhi	r2, #48163	; 0xbc23
    3288:	0300000e 	movweq	r0, #14
    328c:	000b267e 	andeq	r2, fp, lr, ror r6
    3290:	30230200 	eorcc	r0, r3, r0, lsl #4
    3294:	000f150b 	andeq	r1, pc, fp, lsl #10
    3298:	267f0300 	ldrbtcs	r0, [pc], -r0, lsl #6
    329c:	0200000b 	andeq	r0, r0, #11
    32a0:	550b3423 	strpl	r3, [fp, #-1059]	; 0x423
    32a4:	0300000c 	movweq	r0, #12
    32a8:	000b2680 	andeq	r2, fp, r0, lsl #13
    32ac:	38230200 	stmdacc	r3!, {r9}
    32b0:	000f1f0b 	andeq	r1, pc, fp, lsl #30
    32b4:	26810300 	strcs	r0, [r1], r0, lsl #6
    32b8:	0200000b 	andeq	r0, r0, #11
    32bc:	610b3c23 	tstvs	fp, r3, lsr #24
    32c0:	0300000f 	movweq	r0, #15
    32c4:	000b2682 	andeq	r2, fp, r2, lsl #13
    32c8:	40230200 	eormi	r0, r3, r0, lsl #4
    32cc:	0010f70b 	andseq	pc, r0, fp, lsl #14
    32d0:	26830300 	strcs	r0, [r3], r0, lsl #6
    32d4:	0200000b 	andeq	r0, r0, #11
    32d8:	3e0b4423 	cdpcc	4, 0, cr4, cr11, cr3, {1}
    32dc:	0300000a 	movweq	r0, #10
    32e0:	000b2684 	andeq	r2, fp, r4, lsl #13
    32e4:	48230200 	stmdami	r3!, {r9}
    32e8:	000fdb0b 	andeq	sp, pc, fp, lsl #22
    32ec:	26850300 	strcs	r0, [r5], r0, lsl #6
    32f0:	0200000b 	andeq	r0, r0, #11
    32f4:	7d0b4c23 	stcvc	12, cr4, [fp, #-140]	; 0xffffff74
    32f8:	0300000d 	movweq	r0, #13
    32fc:	000b2b86 	andeq	r2, fp, r6, lsl #23
    3300:	50230200 	eorpl	r0, r3, r0, lsl #4
    3304:	000d4d0b 	andeq	r4, sp, fp, lsl #26
    3308:	30870300 	addcc	r0, r7, r0, lsl #6
    330c:	0200000b 	andeq	r0, r0, #11
    3310:	060b5423 	streq	r5, [fp], -r3, lsr #8
    3314:	0300000b 	movweq	r0, #11
    3318:	000b3588 	andeq	r3, fp, r8, lsl #11
    331c:	58230200 	stmdapl	r3!, {r9}
    3320:	000ebf0b 	andeq	fp, lr, fp, lsl #30
    3324:	26890300 	strcs	r0, [r9], r0, lsl #6
    3328:	0200000b 	andeq	r0, r0, #11
    332c:	000b5c23 	andeq	r5, fp, r3, lsr #24
    3330:	0300000c 	movweq	r0, #12
    3334:	000b268a 	andeq	r2, fp, sl, lsl #13
    3338:	60230200 	eorvs	r0, r3, r0, lsl #4
    333c:	000c090b 	andeq	r0, ip, fp, lsl #18
    3340:	268b0300 	strcs	r0, [fp], r0, lsl #6
    3344:	0200000b 	andeq	r0, r0, #11
    3348:	7e0b6423 	cdpvc	4, 0, cr6, cr11, cr3, {1}
    334c:	03000010 	movweq	r0, #16
    3350:	000b268c 	andeq	r2, fp, ip, lsl #13
    3354:	68230200 	stmdavs	r3!, {r9}
    3358:	000ddf0b 	andeq	sp, sp, fp, lsl #30
    335c:	268d0300 	strcs	r0, [sp], r0, lsl #6
    3360:	0200000b 	andeq	r0, r0, #11
    3364:	290b6c23 	stmdbcs	fp, {r0, r1, r5, sl, fp, sp, lr}
    3368:	0300000f 	movweq	r0, #15
    336c:	000b4a8e 	andeq	r4, fp, lr, lsl #21
    3370:	70230200 	eorvc	r0, r3, r0, lsl #4
    3374:	0010ed0b 	andseq	lr, r0, fp, lsl #26
    3378:	268f0300 	strcs	r0, [pc], r0, lsl #6
    337c:	0200000b 	andeq	r0, r0, #11
    3380:	030b7823 	movweq	r7, #47139	; 0xb823
    3384:	0300000a 	movweq	r0, #10
    3388:	000b2690 	muleq	fp, r0, r6
    338c:	7c230200 	sfmvc	f0, 4, [r3], #-0
    3390:	0010e70b 	andseq	lr, r0, fp, lsl #14
    3394:	26910300 	ldrcs	r0, [r1], r0, lsl #6
    3398:	0300000b 	movweq	r0, #11
    339c:	0b018023 	bleq	63430 <__standby_start+0x63430>
    33a0:	00001087 	andeq	r1, r0, r7, lsl #1
    33a4:	0b269203 	bleq	9a7bb8 <__standby_start+0x9a7bb8>
    33a8:	23030000 	movwcs	r0, #12288	; 0x3000
    33ac:	530c0184 	movwpl	r0, #49540	; 0xc184
    33b0:	03003064 	movweq	r3, #100	; 0x64
    33b4:	000b2693 	muleq	fp, r3, r6
    33b8:	88230300 	stmdahi	r3!, {r8, r9}
    33bc:	64530c01 	ldrbvs	r0, [r3], #-3073	; 0xc01
    33c0:	94030031 	strls	r0, [r3], #-49	; 0x31
    33c4:	00000b26 	andeq	r0, r0, r6, lsr #22
    33c8:	018c2303 	orreq	r2, ip, r3, lsl #6
    33cc:	3264530c 	rsbcc	r5, r4, #805306368	; 0x30000000
    33d0:	26950300 	ldrcs	r0, [r5], r0, lsl #6
    33d4:	0300000b 	movweq	r0, #11
    33d8:	0b019023 	bleq	6746c <__standby_start+0x6746c>
    33dc:	00001092 	muleq	r0, r2, r0
    33e0:	0b4f9603 	bleq	13e8bf4 <__standby_start+0x13e8bf4>
    33e4:	23030000 	movwcs	r0, #12288	; 0x3000
    33e8:	530c0194 	movwpl	r0, #49556	; 0xc194
    33ec:	97030073 	smlsdxls	r3, r3, r0, r0
    33f0:	00000b26 	andeq	r0, r0, r6, lsr #22
    33f4:	019c2303 	orrseq	r2, ip, r3, lsl #6
    33f8:	000f570b 	andeq	r5, pc, fp, lsl #14
    33fc:	26980300 	ldrcs	r0, [r8], r0, lsl #6
    3400:	0300000b 	movweq	r0, #11
    3404:	0b01a023 	bleq	6b498 <__standby_start+0x6b498>
    3408:	00000f5c 	andeq	r0, r0, ip, asr pc
    340c:	0b269903 	bleq	9a9820 <__standby_start+0x9a9820>
    3410:	23030000 	movwcs	r0, #12288	; 0x3000
    3414:	9d0b01a4 	stflss	f0, [fp, #-656]	; 0xfffffd70
    3418:	03000010 	movweq	r0, #16
    341c:	000b549a 	muleq	fp, sl, r4
    3420:	a8230300 	stmdage	r3!, {r8, r9}
    3424:	0a2f0b01 	beq	bc6030 <__standby_start+0xbc6030>
    3428:	9b030000 	blls	c3430 <__standby_start+0xc3430>
    342c:	00000b26 	andeq	r0, r0, r6, lsr #22
    3430:	01b02303 	lslseq	r2, r3, #6
    3434:	000a340b 	andeq	r3, sl, fp, lsl #8
    3438:	269c0300 	ldrcs	r0, [ip], r0, lsl #6
    343c:	0300000b 	movweq	r0, #11
    3440:	0b01b423 	bleq	704d4 <__standby_start+0x704d4>
    3444:	00000a39 	andeq	r0, r0, r9, lsr sl
    3448:	0b269d03 	bleq	9aa85c <__standby_start+0x9aa85c>
    344c:	23030000 	movwcs	r0, #12288	; 0x3000
    3450:	d40b01b8 	strle	r0, [fp], #-440	; 0x1b8
    3454:	0300000a 	movweq	r0, #10
    3458:	000b269e 	muleq	fp, lr, r6
    345c:	bc230300 	stclt	3, cr0, [r3], #-0
    3460:	0dd60b01 	vldreq	d16, [r6, #4]
    3464:	9f030000 	svcls	0x00030000
    3468:	00000b26 	andeq	r0, r0, r6, lsr #22
    346c:	01c02303 	biceq	r2, r0, r3, lsl #6
    3470:	000d240b 	andeq	r2, sp, fp, lsl #8
    3474:	59a00300 	stmibpl	r0!, {r8, r9}
    3478:	0300000b 	movweq	r0, #11
    347c:	0c01c423 	cfstrseq	mvf12, [r1], {35}	; 0x23
    3480:	00627355 	rsbeq	r7, r2, r5, asr r3
    3484:	0b26a103 	bleq	9ab898 <__standby_start+0x9ab898>
    3488:	23030000 	movwcs	r0, #12288	; 0x3000
    348c:	1b0b01cc 	blne	2c3bc4 <__standby_start+0x2c3bc4>
    3490:	03000010 	movweq	r0, #16
    3494:	000b26a2 	andeq	r2, fp, r2, lsr #13
    3498:	d0230300 	eorle	r0, r3, r0, lsl #6
    349c:	0c740b01 	ldcleq	11, cr0, [r4], #-4
    34a0:	a3030000 	movwge	r0, #12288	; 0x3000
    34a4:	00000b6e 	andeq	r0, r0, lr, ror #22
    34a8:	01d42303 	bicseq	r2, r4, r3, lsl #6
    34ac:	0010b50b 	andseq	fp, r0, fp, lsl #10
    34b0:	26a40300 	strtcs	r0, [r4], r0, lsl #6
    34b4:	0300000b 	movweq	r0, #11
    34b8:	0b01f023 	bleq	7f54c <__standby_start+0x7f54c>
    34bc:	00000ff7 	strdeq	r0, [r0], -r7
    34c0:	0b26a503 	bleq	9ac8d4 <__standby_start+0x9ac8d4>
    34c4:	23030000 	movwcs	r0, #12288	; 0x3000
    34c8:	550b01f4 	strpl	r0, [fp, #-500]	; 0x1f4
    34cc:	03000010 	movweq	r0, #16
    34d0:	000b26a6 	andeq	r2, fp, r6, lsr #13
    34d4:	f8230300 			; <UNDEFINED> instruction: 0xf8230300
    34d8:	0e540b01 	vnmlseq.f64	d16, d4, d1
    34dc:	a7030000 	strge	r0, [r3, -r0]
    34e0:	00000b26 	andeq	r0, r0, r6, lsr #22
    34e4:	01fc2303 	mvnseq	r2, r3, lsl #6
    34e8:	000e1f0b 	andeq	r1, lr, fp, lsl #30
    34ec:	26a80300 	strtcs	r0, [r8], r0, lsl #6
    34f0:	0300000b 	movweq	r0, #11
    34f4:	0b028023 	bleq	a3588 <__standby_start+0xa3588>
    34f8:	00000c23 	andeq	r0, r0, r3, lsr #24
    34fc:	0b26a903 	bleq	9ad910 <__standby_start+0x9ad910>
    3500:	23030000 	movwcs	r0, #12288	; 0x3000
    3504:	9a0b0284 	bls	2c3f1c <__standby_start+0x2c3f1c>
    3508:	03000009 	movweq	r0, #9
    350c:	000b26aa 	andeq	r2, fp, sl, lsr #13
    3510:	88230300 	stmdahi	r3!, {r8, r9}
    3514:	0abb0b02 	beq	feec6124 <__bss_end+0xeec2024>
    3518:	ab030000 	blge	c3520 <__standby_start+0xc3520>
    351c:	00000b26 	andeq	r0, r0, r6, lsr #22
    3520:	028c2303 	addeq	r2, ip, #201326592	; 0xc000000
    3524:	0009a60b 	andeq	sl, r9, fp, lsl #12
    3528:	26ac0300 	strtcs	r0, [ip], r0, lsl #6
    352c:	0300000b 	movweq	r0, #11
    3530:	0b029023 	bleq	a75c4 <__standby_start+0xa75c4>
    3534:	000009b2 			; <UNDEFINED> instruction: 0x000009b2
    3538:	0b26ad03 	bleq	9ae94c <__standby_start+0x9ae94c>
    353c:	23030000 	movwcs	r0, #12288	; 0x3000
    3540:	f30b0294 	vqsub.u8	d0, d27, d4
    3544:	03000009 	movweq	r0, #9
    3548:	000b26ae 	andeq	r2, fp, lr, lsr #13
    354c:	98230300 	stmdals	r3!, {r8, r9}
    3550:	09fb0b02 	ldmibeq	fp!, {r1, r8, r9, fp}^
    3554:	af030000 	svcge	0x00030000
    3558:	00000b26 	andeq	r0, r0, r6, lsr #22
    355c:	029c2303 	addseq	r2, ip, #201326592	; 0xc000000
    3560:	000c7f0b 	andeq	r7, ip, fp, lsl #30
    3564:	83b00300 	movshi	r0, #0
    3568:	0300000b 	movweq	r0, #11
    356c:	0b02a023 	bleq	ab600 <__standby_start+0xab600>
    3570:	00000ec7 	andeq	r0, r0, r7, asr #29
    3574:	0b26b103 	bleq	9af988 <__standby_start+0x9af988>
    3578:	23030000 	movwcs	r0, #12288	; 0x3000
    357c:	4b0b02b0 	blmi	2c4044 <__standby_start+0x2c4044>
    3580:	0300000f 	movweq	r0, #15
    3584:	000b26b2 			; <UNDEFINED> instruction: 0x000b26b2
    3588:	b4230300 	strtlt	r0, [r3], #-768	; 0x300
    358c:	0a170b02 	beq	5c619c <__standby_start+0x5c619c>
    3590:	b3030000 	movwlt	r0, #12288	; 0x3000
    3594:	00000b26 	andeq	r0, r0, r6, lsr #22
    3598:	02b82303 	adcseq	r2, r8, #201326592	; 0xc000000
    359c:	0065560c 	rsbeq	r5, r5, ip, lsl #12
    35a0:	0b26b403 	bleq	9b05b4 <__standby_start+0x9b05b4>
    35a4:	23030000 	movwcs	r0, #12288	; 0x3000
    35a8:	120b02bc 	andne	r0, fp, #-1073741813	; 0xc000000b
    35ac:	0300000e 	movweq	r0, #14
    35b0:	000b26b5 			; <UNDEFINED> instruction: 0x000b26b5
    35b4:	c0230300 	eorgt	r0, r3, r0, lsl #6
    35b8:	76410c02 	strbvc	r0, [r1], -r2, lsl #24
    35bc:	b6030073 			; <UNDEFINED> instruction: 0xb6030073
    35c0:	00000b26 	andeq	r0, r0, r6, lsr #22
    35c4:	02c42303 	sbceq	r2, r4, #201326592	; 0xc000000
    35c8:	000a230b 	andeq	r2, sl, fp, lsl #6
    35cc:	26b70300 	ldrtcs	r0, [r7], r0, lsl #6
    35d0:	0300000b 	movweq	r0, #11
    35d4:	0b02c823 	bleq	b5668 <__standby_start+0xb5668>
    35d8:	00000c8a 	andeq	r0, r0, sl, lsl #25
    35dc:	0b26b803 	bleq	9b15f0 <__standby_start+0x9b15f0>
    35e0:	23030000 	movwcs	r0, #12288	; 0x3000
    35e4:	2f0b02cc 	svccs	0x000b02cc
    35e8:	0300000d 	movweq	r0, #13
    35ec:	000b26b9 			; <UNDEFINED> instruction: 0x000b26b9
    35f0:	d0230300 	eorle	r0, r3, r0, lsl #6
    35f4:	0f9a0b02 	svceq	0x009a0b02
    35f8:	ba030000 	blt	c3600 <__standby_start+0xc3600>
    35fc:	00000b26 	andeq	r0, r0, r6, lsr #22
    3600:	02d42303 	sbcseq	r2, r4, #201326592	; 0xc000000
    3604:	000aa30b 	andeq	sl, sl, fp, lsl #6
    3608:	26bb0300 	ldrtcs	r0, [fp], r0, lsl #6
    360c:	0300000b 	movweq	r0, #11
    3610:	0b02d823 	bleq	b96a4 <__standby_start+0xb96a4>
    3614:	00000ae3 	andeq	r0, r0, r3, ror #21
    3618:	0b26bc03 	bleq	9b262c <__standby_start+0x9b262c>
    361c:	23030000 	movwcs	r0, #12288	; 0x3000
    3620:	af0b02dc 	svcge	0x000b02dc
    3624:	0300000a 	movweq	r0, #10
    3628:	000b26bd 			; <UNDEFINED> instruction: 0x000b26bd
    362c:	e0230300 	eor	r0, r3, r0, lsl #6
    3630:	0c950b02 	vldmiaeq	r5, {d0}
    3634:	be030000 	cdplt	0, 0, cr0, cr3, cr0, {0}
    3638:	00000b26 	andeq	r0, r0, r6, lsr #22
    363c:	02e42303 	rsceq	r2, r4, #201326592	; 0xc000000
    3640:	000f330b 	andeq	r3, pc, fp, lsl #6
    3644:	26bf0300 	ldrtcs	r0, [pc], r0, lsl #6
    3648:	0300000b 	movweq	r0, #11
    364c:	0b02e823 	bleq	bd6e0 <__standby_start+0xbd6e0>
    3650:	00000f3f 	andeq	r0, r0, pc, lsr pc
    3654:	0b26c003 	bleq	9b3668 <__standby_start+0x9b3668>
    3658:	23030000 	movwcs	r0, #12288	; 0x3000
    365c:	a00b02ec 	andge	r0, fp, ip, ror #5
    3660:	0300000c 	movweq	r0, #12
    3664:	000b88c1 	andeq	r8, fp, r1, asr #17
    3668:	f0230300 			; <UNDEFINED> instruction: 0xf0230300
    366c:	10a80b02 	adcne	r0, r8, r2, lsl #22
    3670:	c2030000 	andgt	r0, r3, #0
    3674:	00000b26 	andeq	r0, r0, r6, lsr #22
    3678:	03802303 	orreq	r2, r0, #201326592	; 0xc000000
    367c:	000b920b 	andeq	r9, fp, fp, lsl #4
    3680:	26c30300 	strbcs	r0, [r3], r0, lsl #6
    3684:	0300000b 	movweq	r0, #11
    3688:	0b038423 	bleq	e471c <__standby_start+0xe471c>
    368c:	00000b9e 	muleq	r0, lr, fp
    3690:	0b26c403 	bleq	9b46a4 <__standby_start+0x9b46a4>
    3694:	23030000 	movwcs	r0, #12288	; 0x3000
    3698:	aa0b0388 	bge	2c44c0 <__standby_start+0x2c44c0>
    369c:	0300000b 	movweq	r0, #11
    36a0:	000b26c5 	andeq	r2, fp, r5, asr #13
    36a4:	8c230300 	stchi	3, cr0, [r3], #-0
    36a8:	0cab0b03 	fstmiaxeq	fp!, {d0}	;@ Deprecated
    36ac:	c6030000 	strgt	r0, [r3], -r0
    36b0:	00000b8d 	andeq	r0, r0, sp, lsl #23
    36b4:	03902303 	orrseq	r2, r0, #201326592	; 0xc000000
    36b8:	000bbe0b 	andeq	fp, fp, fp, lsl #28
    36bc:	26c70300 	strbcs	r0, [r7], r0, lsl #6
    36c0:	0300000b 	movweq	r0, #11
    36c4:	0b03a023 	bleq	eb758 <__standby_start+0xeb758>
    36c8:	00000b66 	andeq	r0, r0, r6, ror #22
    36cc:	0b26c803 	bleq	9b56e0 <__standby_start+0x9b56e0>
    36d0:	23030000 	movwcs	r0, #12288	; 0x3000
    36d4:	a30b03a4 	movwge	r0, #45988	; 0xb3a4
    36d8:	0300000d 	movweq	r0, #13
    36dc:	000b26c9 	andeq	r2, fp, r9, asr #13
    36e0:	a8230300 	stmdage	r3!, {r8, r9}
    36e4:	0be80b03 	bleq	ffa062f8 <__bss_end+0xfa021f8>
    36e8:	ca030000 	bgt	c36f0 <__standby_start+0xc36f0>
    36ec:	00000b26 	andeq	r0, r0, r6, lsr #22
    36f0:	03ac2303 			; <UNDEFINED> instruction: 0x03ac2303
    36f4:	000bf40b 	andeq	pc, fp, fp, lsl #8
    36f8:	26cb0300 	strbcs	r0, [fp], r0, lsl #6
    36fc:	0300000b 	movweq	r0, #11
    3700:	0b03b023 	bleq	ef794 <__standby_start+0xef794>
    3704:	00000d55 	andeq	r0, r0, r5, asr sp
    3708:	0ba2cc03 	bleq	fe8b671c <__bss_end+0xe8b261c>
    370c:	23030000 	movwcs	r0, #12288	; 0x3000
    3710:	ed0b03b4 	stc	3, cr0, [fp, #-720]	; 0xfffffd30
    3714:	03000009 	movweq	r0, #9
    3718:	000b26cd 	andeq	r2, fp, sp, asr #13
    371c:	c0230300 	eorgt	r0, r3, r0, lsl #6
    3720:	0c490b03 	mcrreq	11, 0, r0, r9, cr3
    3724:	ce030000 	cdpgt	0, 0, cr0, cr3, cr0, {0}
    3728:	00000bb7 			; <UNDEFINED> instruction: 0x00000bb7
    372c:	03c42303 	biceq	r2, r4, #201326592	; 0xc000000
    3730:	000bb60b 	andeq	fp, fp, fp, lsl #12
    3734:	bccf0300 	stcllt	3, cr0, [pc], {0}
    3738:	0300000b 	movweq	r0, #11
    373c:	0b048023 	bleq	1237d0 <__standby_start+0x1237d0>
    3740:	00000dfc 	strdeq	r0, [r0], -ip
    3744:	0b26d003 	bleq	9b7758 <__standby_start+0x9b7758>
    3748:	23030000 	movwcs	r0, #12288	; 0x3000
    374c:	5f0b0484 	svcpl	0x000b0484
    3750:	03000010 	movweq	r0, #16
    3754:	000b26d1 	ldrdeq	r2, [fp], -r1
    3758:	88230300 	stmdahi	r3!, {r8, r9}
    375c:	10270b04 	eorne	r0, r7, r4, lsl #22
    3760:	d2030000 	andle	r0, r3, #0
    3764:	00000b26 	andeq	r0, r0, r6, lsr #22
    3768:	048c2303 	streq	r2, [ip], #771	; 0x303
    376c:	000b160b 	andeq	r1, fp, fp, lsl #12
    3770:	c1d30300 	bicsgt	r0, r3, r0, lsl #6
    3774:	0300000b 	movweq	r0, #11
    3778:	0b049023 	bleq	12780c <__standby_start+0x12780c>
    377c:	00000cfb 	strdeq	r0, [r0], -fp
    3780:	0bd6d503 	bleq	ff5b8b94 <__bss_end+0xf5b4a94>
    3784:	23030000 	movwcs	r0, #12288	; 0x3000
    3788:	830b04a0 	movwhi	r0, #46240	; 0xb4a0
    378c:	0300000a 	movweq	r0, #10
    3790:	000b26d6 	ldrdeq	r2, [fp], -r6
    3794:	a4230300 	strtge	r0, [r3], #-768	; 0x300
    3798:	09df0b04 	ldmibeq	pc, {r2, r8, r9, fp}^	; <UNPREDICTABLE>
    379c:	d7030000 	strle	r0, [r3, -r0]
    37a0:	00000b26 	andeq	r0, r0, r6, lsr #22
    37a4:	04a82303 	strteq	r2, [r8], #771	; 0x303
    37a8:	000d1a0b 	andeq	r1, sp, fp, lsl #20
    37ac:	26d80300 	ldrbcs	r0, [r8], r0, lsl #6
    37b0:	0300000b 	movweq	r0, #11
    37b4:	0b04ac23 	bleq	12e848 <__standby_start+0x12e848>
    37b8:	00000bd0 	ldrdeq	r0, [r0], -r0	; <UNPREDICTABLE>
    37bc:	0b26d903 	bleq	9b9bd0 <__standby_start+0x9b9bd0>
    37c0:	23030000 	movwcs	r0, #12288	; 0x3000
    37c4:	8c0b04b0 	cfstrshi	mvf0, [fp], {176}	; 0xb0
    37c8:	0300000f 	movweq	r0, #15
    37cc:	000b26da 	ldrdeq	r2, [fp], -sl
    37d0:	b4230300 	strtlt	r0, [r3], #-768	; 0x300
    37d4:	10d90b04 	sbcsne	r0, r9, r4, lsl #22
    37d8:	db030000 	blle	c37e0 <__standby_start+0xc37e0>
    37dc:	00000b26 	andeq	r0, r0, r6, lsr #22
    37e0:	04b82303 	ldrteq	r2, [r8], #771	; 0x303
    37e4:	000b520b 	andeq	r5, fp, fp, lsl #4
    37e8:	26dc0300 	ldrbcs	r0, [ip], r0, lsl #6
    37ec:	0300000b 	movweq	r0, #11
    37f0:	0b04bc23 	bleq	132884 <__standby_start+0x132884>
    37f4:	00000bdb 	ldrdeq	r0, [r0], -fp
    37f8:	0b26dd03 	bleq	9bac0c <__standby_start+0x9bac0c>
    37fc:	23030000 	movwcs	r0, #12288	; 0x3000
    3800:	c80b04c0 	stmdagt	fp, {r6, r7, sl}
    3804:	0300000a 	movweq	r0, #10
    3808:	000b26de 	ldrdeq	r2, [fp], -lr
    380c:	c4230300 	strtgt	r0, [r3], #-768	; 0x300
    3810:	0e3c0b04 	vaddeq.f64	d0, d12, d4
    3814:	df030000 	svcle	0x00030000
    3818:	00000b26 	andeq	r0, r0, r6, lsr #22
    381c:	04c82303 	strbeq	r2, [r8], #771	; 0x303
    3820:	000e750b 	andeq	r7, lr, fp, lsl #10
    3824:	26e00300 	strbtcs	r0, [r0], r0, lsl #6
    3828:	0300000b 	movweq	r0, #11
    382c:	0b04cc23 	bleq	1368c0 <__standby_start+0x1368c0>
    3830:	00000adb 	ldrdeq	r0, [r0], -fp
    3834:	0b26e203 	bleq	9bc048 <__standby_start+0x9bc048>
    3838:	23030000 	movwcs	r0, #12288	; 0x3000
    383c:	330b04d0 	movwcc	r0, #46288	; 0xb4d0
    3840:	0300000e 	movweq	r0, #14
    3844:	000b26e3 	andeq	r2, fp, r3, ror #13
    3848:	d4230300 	strtle	r0, [r3], #-768	; 0x300
    384c:	0b220b04 	bleq	886464 <__standby_start+0x886464>
    3850:	e5030000 	str	r0, [r3, #-0]
    3854:	00000bdb 	ldrdeq	r0, [r0], -fp
    3858:	04d82303 	ldrbeq	r2, [r8], #771	; 0x303
    385c:	000e8e0b 	andeq	r8, lr, fp, lsl #28
    3860:	26e60300 	strbtcs	r0, [r6], r0, lsl #6
    3864:	0300000b 	movweq	r0, #11
    3868:	0b04e023 	bleq	13b8fc <__standby_start+0x13b8fc>
    386c:	00000b2e 	andeq	r0, r0, lr, lsr #22
    3870:	0be0e703 	bleq	ff83d484 <__bss_end+0xf839384>
    3874:	23030000 	movwcs	r0, #12288	; 0x3000
    3878:	e90b04e4 	stmdb	fp, {r2, r5, r6, r7, sl}
    387c:	0300000a 	movweq	r0, #10
    3880:	000b26e8 	andeq	r2, fp, r8, ror #13
    3884:	f0230300 			; <UNDEFINED> instruction: 0xf0230300
    3888:	0b3a0b04 	bleq	e864a0 <__standby_start+0xe864a0>
    388c:	e9030000 	stmdb	r3, {}	; <UNPREDICTABLE>
    3890:	00000be5 	andeq	r0, r0, r5, ror #23
    3894:	04f42303 	ldrbteq	r2, [r4], #771	; 0x303
    3898:	000dc80b 	andeq	ip, sp, fp, lsl #16
    389c:	26ea0300 	strbtcs	r0, [sl], r0, lsl #6
    38a0:	0300000b 	movweq	r0, #11
    38a4:	0b058023 	bleq	163938 <__standby_start+0x163938>
    38a8:	00000e61 	andeq	r0, r0, r1, ror #28
    38ac:	0b26ec03 	bleq	9be8c0 <__standby_start+0x9be8c0>
    38b0:	23030000 	movwcs	r0, #12288	; 0x3000
    38b4:	600b0584 	andvs	r0, fp, r4, lsl #11
    38b8:	0300000d 	movweq	r0, #13
    38bc:	000b26ed 	andeq	r2, fp, sp, ror #13
    38c0:	88230300 	stmdahi	r3!, {r8, r9}
    38c4:	0e050b05 	vmlaeq.f64	d0, d5, d5
    38c8:	ee030000 	cdp	0, 0, cr0, cr3, cr0, {0}
    38cc:	00000b26 	andeq	r0, r0, r6, lsr #22
    38d0:	058c2303 	streq	r2, [ip, #771]	; 0x303
    38d4:	000fa60b 	andeq	sl, pc, fp, lsl #12
    38d8:	26ef0300 	strbtcs	r0, [pc], r0, lsl #6
    38dc:	0300000b 	movweq	r0, #11
    38e0:	0b059023 	bleq	167974 <__standby_start+0x167974>
    38e4:	00000b46 	andeq	r0, r0, r6, asr #22
    38e8:	0beaf003 	bleq	ffabf8fc <__bss_end+0xfabb7fc>
    38ec:	23030000 	movwcs	r0, #12288	; 0x3000
    38f0:	e80b0594 	stmda	fp, {r2, r4, r7, r8, sl}
    38f4:	0300000d 	movweq	r0, #13
    38f8:	000b26f1 	strdeq	r2, [fp], -r1
    38fc:	a4230300 	strtge	r0, [r3], #-768	; 0x300
    3900:	10370b05 	eorsne	r0, r7, r5, lsl #22
    3904:	f2030000 	vhadd.s8	d0, d3, d0
    3908:	00000b26 	andeq	r0, r0, r6, lsr #22
    390c:	05a82303 	streq	r2, [r8, #771]!	; 0x303
    3910:	0009800b 	andeq	r8, r9, fp
    3914:	26f30300 	ldrbtcs	r0, [r3], r0, lsl #6
    3918:	0300000b 	movweq	r0, #11
    391c:	0b05ac23 	bleq	16e9b0 <__standby_start+0x16e9b0>
    3920:	00000fe5 	andeq	r0, r0, r5, ror #31
    3924:	0b26f403 	bleq	9c0938 <__standby_start+0x9c0938>
    3928:	23030000 	movwcs	r0, #12288	; 0x3000
    392c:	8d0b05b0 	cfstr32hi	mvfx0, [fp, #-704]	; 0xfffffd40
    3930:	03000009 	movweq	r0, #9
    3934:	000beff5 	strdeq	lr, [fp], -r5
    3938:	b4230300 	strtlt	r0, [r3], #-768	; 0x300
    393c:	0daa0b05 	stceq	11, cr0, [sl, #20]!
    3940:	f7030000 			; <UNDEFINED> instruction: 0xf7030000
    3944:	00000b26 	andeq	r0, r0, r6, lsr #22
    3948:	05c02303 	strbeq	r2, [r0, #771]	; 0x303
    394c:	000db40b 	andeq	fp, sp, fp, lsl #8
    3950:	26f80300 	ldrbtcs	r0, [r8], r0, lsl #6
    3954:	0300000b 	movweq	r0, #11
    3958:	0b05c423 	bleq	1749ec <__standby_start+0x1749ec>
    395c:	00000dbe 			; <UNDEFINED> instruction: 0x00000dbe
    3960:	0b26f903 	bleq	9c1d74 <__standby_start+0x9c1d74>
    3964:	23030000 	movwcs	r0, #12288	; 0x3000
    3968:	040b05c8 	streq	r0, [fp], #-1480	; 0x5c8
    396c:	0300000d 	movweq	r0, #13
    3970:	000b26fa 	strdeq	r2, [fp], -sl
    3974:	cc230300 	stcgt	3, cr0, [r3], #-0
    3978:	0ecf0b05 	vdiveq.f64	d16, d15, d5
    397c:	fb030000 	blx	c3986 <__standby_start+0xc3986>
    3980:	00000b26 	andeq	r0, r0, r6, lsr #22
    3984:	05d02303 	ldrbeq	r2, [r0, #771]	; 0x303
    3988:	000d0f0b 	andeq	r0, sp, fp, lsl #30
    398c:	26fc0300 	ldrbtcs	r0, [ip], r0, lsl #6
    3990:	0300000b 	movweq	r0, #11
    3994:	0b05d423 	bleq	178a28 <__standby_start+0x178a28>
    3998:	00000b88 	andeq	r0, r0, r8, lsl #23
    399c:	0b26fd03 	bleq	9c2db0 <__standby_start+0x9c2db0>
    39a0:	23030000 	movwcs	r0, #12288	; 0x3000
    39a4:	0d0005d8 	cfstr32eq	mvfx0, [r0, #-864]	; 0xfffffca0
    39a8:	00000123 	andeq	r0, r0, r3, lsr #2
    39ac:	0000530d 	andeq	r5, r0, sp, lsl #6
    39b0:	01de0d00 	bicseq	r0, lr, r0, lsl #26
    39b4:	6d0d0000 	stcvs	0, cr0, [sp, #-0]
    39b8:	0d000002 	stceq	0, cr0, [r0, #-8]
    39bc:	00000306 	andeq	r0, r0, r6, lsl #6
    39c0:	0000530e 	andeq	r5, r0, lr, lsl #6
    39c4:	000b4a00 	andeq	r4, fp, r0, lsl #20
    39c8:	005e0f00 	subseq	r0, lr, r0, lsl #30
    39cc:	00010000 	andeq	r0, r1, r0
    39d0:	000b3a0d 	andeq	r3, fp, sp, lsl #20
    39d4:	0b3a0d00 	bleq	e86ddc <__standby_start+0xe86ddc>
    39d8:	3a0d0000 	bcc	3439e0 <__standby_start+0x3439e0>
    39dc:	0d00000b 	stceq	0, cr0, [r0, #-44]	; 0xffffffd4
    39e0:	00000b3a 	andeq	r0, r0, sl, lsr fp
    39e4:	0000530e 	andeq	r5, r0, lr, lsl #6
    39e8:	000b6e00 	andeq	r6, fp, r0, lsl #28
    39ec:	005e0f00 	subseq	r0, lr, r0, lsl #30
    39f0:	00060000 	andeq	r0, r6, r0
    39f4:	000b5e0d 	andeq	r5, fp, sp, lsl #28
    39f8:	00530e00 	subseq	r0, r3, r0, lsl #28
    39fc:	0b830000 	bleq	fe0c3a04 <__bss_end+0xe0bf904>
    3a00:	5e0f0000 	cdppl	0, 0, cr0, cr15, cr0, {0}
    3a04:	03000000 	movweq	r0, #0
    3a08:	0b730d00 	bleq	1cc6e10 <__standby_start+0x1cc6e10>
    3a0c:	730d0000 	movwvc	r0, #53248	; 0xd000
    3a10:	0d00000b 	stceq	0, cr0, [r0, #-44]	; 0xffffffd4
    3a14:	00000b73 	andeq	r0, r0, r3, ror fp
    3a18:	0000530e 	andeq	r5, r0, lr, lsl #6
    3a1c:	000ba200 	andeq	sl, fp, r0, lsl #4
    3a20:	005e0f00 	subseq	r0, lr, r0, lsl #30
    3a24:	00020000 	andeq	r0, r2, r0
    3a28:	000b920d 	andeq	r9, fp, sp, lsl #4
    3a2c:	00530e00 	subseq	r0, r3, r0, lsl #28
    3a30:	0bb70000 	bleq	fedc3a38 <__bss_end+0xedbf938>
    3a34:	5e0f0000 	cdppl	0, 0, cr0, cr15, cr0, {0}
    3a38:	0e000000 	cdpeq	0, 0, cr0, cr0, cr0, {0}
    3a3c:	0ba70d00 	bleq	fe9c6e44 <__bss_end+0xe9c2d44>
    3a40:	400d0000 	andmi	r0, sp, r0
    3a44:	0d000003 	stceq	0, cr0, [r0, #-12]
    3a48:	00000b73 	andeq	r0, r0, r3, ror fp
    3a4c:	0000530e 	andeq	r5, r0, lr, lsl #6
    3a50:	000bd600 	andeq	sp, fp, r0, lsl #12
    3a54:	005e0f00 	subseq	r0, lr, r0, lsl #30
    3a58:	00000000 	andeq	r0, r0, r0
    3a5c:	000bc60d 	andeq	ip, fp, sp, lsl #12
    3a60:	0b3a0d00 	bleq	e86e68 <__standby_start+0xe86e68>
    3a64:	920d0000 	andls	r0, sp, #0
    3a68:	0d00000b 	stceq	0, cr0, [r0, #-44]	; 0xffffffd4
    3a6c:	00000b92 	muleq	r0, r2, fp
    3a70:	000b730d 	andeq	r7, fp, sp, lsl #6
    3a74:	0b920d00 	bleq	fe486e7c <__bss_end+0xe482d7c>
    3a78:	c9030000 	stmdbgt	r3, {}	; <UNPREDICTABLE>
    3a7c:	0300000f 	movweq	r0, #15
    3a80:	00034bfe 	strdeq	r4, [r3], -lr
    3a84:	f4041000 	vst4.8	{d1-d4}, [r4], r0
    3a88:	1100000b 	tstne	r0, fp
    3a8c:	00000877 	andeq	r0, r0, r7, ror r8
    3a90:	72890404 	addvc	r0, r9, #67108864	; 0x4000000
    3a94:	1200000c 	andne	r0, r0, #12
    3a98:	000006af 	andeq	r0, r0, pc, lsr #13
    3a9c:	033d1200 	teqeq	sp, #0
    3aa0:	12010000 	andne	r0, r1, #0
    3aa4:	00000768 	andeq	r0, r0, r8, ror #14
    3aa8:	03311202 	teqeq	r1, #536870912	; 0x20000000
    3aac:	12030000 	andne	r0, r3, #0
    3ab0:	00000437 	andeq	r0, r0, r7, lsr r4
    3ab4:	06bc1204 	ldrteq	r1, [ip], r4, lsl #4
    3ab8:	12050000 	andne	r0, r5, #0
    3abc:	000003f0 	strdeq	r0, [r0], -r0	; <UNPREDICTABLE>
    3ac0:	08611206 	stmdaeq	r1!, {r1, r2, r9, ip}^
    3ac4:	12070000 	andne	r0, r7, #0
    3ac8:	0000046a 	andeq	r0, r0, sl, ror #8
    3acc:	09021208 	stmdbeq	r2, {r3, r9, ip}
    3ad0:	12090000 	andne	r0, r9, #0
    3ad4:	0000064a 	andeq	r0, r0, sl, asr #12
    3ad8:	0672120a 	ldrbteq	r1, [r2], -sl, lsl #4
    3adc:	120b0000 	andne	r0, fp, #0
    3ae0:	00000871 	andeq	r0, r0, r1, ror r8
    3ae4:	07c2120c 	strbeq	r1, [r2, ip, lsl #4]
    3ae8:	120d0000 	andne	r0, sp, #0
    3aec:	00000629 	andeq	r0, r0, r9, lsr #12
    3af0:	0800120e 	stmdaeq	r0, {r1, r2, r3, r9, ip}
    3af4:	000f0000 	andeq	r0, pc, r0
    3af8:	b6080102 	strlt	r0, [r8], -r2, lsl #2
    3afc:	02000007 	andeq	r0, r0, #7
    3b00:	024f0704 	subeq	r0, pc, #1048576	; 0x100000
    3b04:	b4130000 	ldrlt	r0, [r3], #-0
    3b08:	0100001a 	tsteq	r0, sl, lsl r0
    3b0c:	00530111 	subseq	r0, r3, r1, lsl r1
    3b10:	e8010000 	stmda	r1, {}	; <UNPREDICTABLE>
    3b14:	1400000c 	strne	r0, [r0], #-12
    3b18:	00001bd3 	ldrdeq	r1, [r0], -r3
    3b1c:	00531101 	subseq	r1, r3, r1, lsl #2
    3b20:	33150000 	tstcc	r5, #0
    3b24:	0100001b 	tsteq	r0, fp, lsl r0
    3b28:	00005313 	andeq	r5, r0, r3, lsl r3
    3b2c:	1b8f1500 	blne	fe3c8f34 <__bss_end+0xe3c4e34>
    3b30:	14010000 	strne	r0, [r1], #-0
    3b34:	00000053 	andeq	r0, r0, r3, asr r0
    3b38:	67657216 			; <UNDEFINED> instruction: 0x67657216
    3b3c:	e8160100 	ldmda	r6, {r8}
    3b40:	1500000c 	strne	r0, [r0, #-12]
    3b44:	00001bb7 			; <UNDEFINED> instruction: 0x00001bb7
    3b48:	0bff1701 	bleq	fffc9754 <__bss_end+0xffc5654>
    3b4c:	49150000 	ldmdbmi	r5, {}	; <UNPREDICTABLE>
    3b50:	0100001c 	tsteq	r0, ip, lsl r0
    3b54:	00030618 	andeq	r0, r3, r8, lsl r6
    3b58:	06061500 	streq	r1, [r6], -r0, lsl #10
    3b5c:	1a010000 	bne	43b64 <__standby_start+0x43b64>
    3b60:	00000053 	andeq	r0, r0, r3, asr r0
    3b64:	01006916 	tsteq	r0, r6, lsl r9
    3b68:	0000531b 	andeq	r5, r0, fp, lsl r3
    3b6c:	04100000 	ldreq	r0, [r0], #-0
    3b70:	00000cee 	andeq	r0, r0, lr, ror #25
    3b74:	00005e0d 	andeq	r5, r0, sp, lsl #28
    3b78:	1b5a1700 	blne	1689780 <__standby_start+0x1689780>
    3b7c:	5b010000 	blpl	43b84 <__standby_start+0x43b84>
    3b80:	0c010101 	stfeqs	f0, [r1], {1}
    3b84:	1800000d 	stmdane	r0, {r0, r2, r3}
    3b88:	5b010063 	blpl	43d1c <__standby_start+0x43d1c>
    3b8c:	000c7201 	andeq	r7, ip, r1, lsl #4
    3b90:	52190000 	andspl	r0, r9, #0
    3b94:	0100001c 	tsteq	r0, ip, lsl r0
    3b98:	72010167 	andvc	r0, r1, #-1073741799	; 0xc0000019
    3b9c:	0100000c 	tsteq	r0, ip
    3ba0:	00000d2b 	andeq	r0, r0, fp, lsr #26
    3ba4:	000c161a 	andeq	r1, ip, sl, lsl r6
    3ba8:	01690100 	cmneq	r9, r0, lsl #2
    3bac:	00000053 	andeq	r0, r0, r3, asr r0
    3bb0:	bf011b00 	svclt	0x00011b00
    3bb4:	0100001b 	tsteq	r0, fp, lsl r0
    3bb8:	01010198 			; <UNDEFINED> instruction: 0x01010198
    3bbc:	1bdc011b 	blne	ff704030 <__bss_end+0xf6fff30>
    3bc0:	9f010000 	svcls	0x00010000
    3bc4:	17010101 	strne	r0, [r1, -r1, lsl #2]
    3bc8:	00001b7f 	andeq	r1, r0, pc, ror fp
    3bcc:	0101c501 	tsteq	r1, r1, lsl #10
    3bd0:	000d5a01 	andeq	r5, sp, r1, lsl #20
    3bd4:	00631800 	rsbeq	r1, r3, r0, lsl #16
    3bd8:	7201c501 	andvc	ip, r1, #4194304	; 0x400000
    3bdc:	0000000c 	andeq	r0, r0, ip
    3be0:	001b1119 	andseq	r1, fp, r9, lsl r1
    3be4:	01d10100 	bicseq	r0, r1, r0, lsl #2
    3be8:	000c7201 	andeq	r7, ip, r1, lsl #4
    3bec:	0d790100 	ldfeqe	f0, [r9, #-0]
    3bf0:	161a0000 	ldrne	r0, [sl], -r0
    3bf4:	0100000c 	tsteq	r0, ip
    3bf8:	005301d3 	ldrsbeq	r0, [r3], #-19	; 0xffffffed
    3bfc:	1c000000 	stcne	0, cr0, [r0], {-0}
    3c00:	00001ad8 	ldrdeq	r1, [r0], -r8
    3c04:	8001d901 	andhi	sp, r1, r1, lsl #18
    3c08:	28f00019 	ldmcs	r0!, {r0, r3, r4}^
    3c0c:	47f0001a 			; <UNDEFINED> instruction: 0x47f0001a
    3c10:	e700000f 	str	r0, [r0, -pc]
    3c14:	1d00000d 	stcne	0, cr0, [r0, #-52]	; 0xffffffcc
    3c18:	00001bd3 	ldrdeq	r1, [r0], -r3
    3c1c:	0053d901 	subseq	sp, r3, r1, lsl #18
    3c20:	0f670000 	svceq	0x00670000
    3c24:	9c1d0000 	ldcls	0, cr0, [sp], {-0}
    3c28:	0100001b 	tsteq	r0, fp, lsl r0
    3c2c:	000053d9 	ldrdeq	r5, [r0], -r9
    3c30:	000f8500 	andeq	r8, pc, r0, lsl #10
    3c34:	00691e00 	rsbeq	r1, r9, r0, lsl #28
    3c38:	0053db01 	subseq	sp, r3, r1, lsl #22
    3c3c:	1f000000 	svcne	0x00000000
    3c40:	00676572 	rsbeq	r6, r7, r2, ror r5
    3c44:	0ce8dc01 	stcleq	12, cr13, [r8], #4
    3c48:	0fa30000 	svceq	0x00a30000
    3c4c:	70200000 	eorvc	r0, r0, r0
    3c50:	0100001b 	tsteq	r0, fp, lsl r0
    3c54:	000053dd 	ldrdeq	r5, [r0], -sp
    3c58:	000fde00 	andeq	sp, pc, r0, lsl #28
    3c5c:	1ac32000 	bne	ff0cbc64 <__bss_end+0xf0c7b64>
    3c60:	de010000 	cdple	0, 0, cr0, cr1, cr0, {0}
    3c64:	00000053 	andeq	r0, r0, r3, asr r0
    3c68:	00000ffe 	strdeq	r0, [r0], -lr
    3c6c:	0c802100 	stfeqs	f2, [r0], {0}
    3c70:	1a280000 	bne	a03c78 <__standby_start+0xa03c78>
    3c74:	1ad4f000 	bne	ff53fc7c <__bss_end+0xf53bb7c>
    3c78:	1029f000 	eorne	pc, r9, r0
    3c7c:	0e840000 	cdpeq	0, 8, cr0, cr4, cr0, {0}
    3c80:	91220000 	teqls	r2, r0
    3c84:	4900000c 	stmdbmi	r0, {r2, r3}
    3c88:	23000010 	movwcs	r0, #16
    3c8c:	00000c9c 	muleq	r0, ip, ip
    3c90:	00001067 	andeq	r1, r0, r7, rrx
    3c94:	000ca723 	andeq	sl, ip, r3, lsr #14
    3c98:	00108600 	andseq	r8, r0, r0, lsl #12
    3c9c:	0cb22300 	ldceq	3, cr2, [r2]
    3ca0:	10b00000 	adcsne	r0, r0, r0
    3ca4:	bd230000 	stclt	0, cr0, [r3, #-0]
    3ca8:	e400000c 	str	r0, [r0], #-12
    3cac:	23000010 	movwcs	r0, #16
    3cb0:	00000cc8 	andeq	r0, r0, r8, asr #25
    3cb4:	00001103 	andeq	r1, r0, r3, lsl #2
    3cb8:	000cd324 	andeq	sp, ip, r4, lsr #6
    3cbc:	de240000 	cdple	0, 2, cr0, cr4, cr0, {0}
    3cc0:	0000000c 	andeq	r0, r0, ip
    3cc4:	000c8025 	andeq	r8, ip, r5, lsr #32
    3cc8:	001a6400 	andseq	r6, sl, r0, lsl #8
    3ccc:	000148f0 	strdeq	r4, [r1], -r0
    3cd0:	26110100 	ldrcs	r0, [r1], -r0, lsl #2
    3cd4:	00000160 	andeq	r0, r0, r0, ror #2
    3cd8:	000c9c27 	andeq	r9, ip, r7, lsr #24
    3cdc:	0ca72700 	stceq	7, cr2, [r7]
    3ce0:	b2280000 	eorlt	r0, r8, #0
    3ce4:	d800000c 	stmdale	r0, {r2, r3}
    3ce8:	7f8e8885 	svcvc	0x008e8885
    3cec:	000cbd27 	andeq	fp, ip, r7, lsr #26
    3cf0:	0cc82700 	stcleq	7, cr2, [r8], {0}
    3cf4:	91290000 	teqls	r9, r0
    3cf8:	2400000c 	strcs	r0, [r0], #-12
    3cfc:	00000cd3 	ldrdeq	r0, [r0], -r3
    3d00:	0cde2400 	cfldrdeq	mvd2, [lr], {0}
    3d04:	00000000 	andeq	r0, r0, r0
    3d08:	012a0000 	teqeq	sl, r0
    3d0c:	00001c68 	andeq	r1, r0, r8, ror #24
    3d10:	01010701 	tsteq	r1, r1, lsl #14
    3d14:	f0001ad4 			; <UNDEFINED> instruction: 0xf0001ad4
    3d18:	f0001b14 			; <UNDEFINED> instruction: 0xf0001b14
    3d1c:	ae007d02 	cdpge	13, 0, cr7, cr0, cr2, {0}
    3d20:	2b00000e 	blcs	3d60 <__standby_start+0x3d60>
    3d24:	00000d36 	andeq	r0, r0, r6, lsr sp
    3d28:	f0001b04 			; <UNDEFINED> instruction: 0xf0001b04
    3d2c:	f0001b0c 			; <UNDEFINED> instruction: 0xf0001b0c
    3d30:	00011401 	andeq	r1, r1, r1, lsl #8
    3d34:	1b21012c 	blne	8441ec <__standby_start+0x8441ec>
    3d38:	3f010000 	svccc	0x00010000
    3d3c:	1b140101 	blne	504148 <__standby_start+0x504148>
    3d40:	1b98f000 	blne	fe63fd48 <__bss_end+0xe63bc48>
    3d44:	1116f000 	tstne	r6, r0
    3d48:	0f180000 	svceq	0x00180000
    3d4c:	9c2d0000 	stcls	0, cr0, [sp], #-0
    3d50:	0100001b 	tsteq	r0, fp, lsl r0
    3d54:	0053013f 	subseq	r0, r3, pc, lsr r1
    3d58:	11360000 	teqne	r6, r0
    3d5c:	642e0000 	strtvs	r0, [lr], #-0
    3d60:	41010066 	tstmi	r1, r6, rrx
    3d64:	00005301 	andeq	r5, r0, r1, lsl #6
    3d68:	00115400 	andseq	r5, r1, r0, lsl #8
    3d6c:	636c2e00 	cmnvs	ip, #0
    3d70:	42010072 	andmi	r0, r1, #114	; 0x72
    3d74:	00005301 	andeq	r5, r0, r1, lsl #6
    3d78:	00117700 	andseq	r7, r1, r0, lsl #14
    3d7c:	1b8f2f00 	blne	fe3cf984 <__bss_end+0xe3cb884>
    3d80:	43010000 	movwmi	r0, #4096	; 0x1000
    3d84:	00005301 	andeq	r5, r0, r1, lsl #6
    3d88:	00119600 	andseq	r9, r1, r0, lsl #12
    3d8c:	0d2b3000 	stceq	0, cr3, [fp, #-0]
    3d90:	1b500000 	blne	1403d98 <__standby_start+0x1403d98>
    3d94:	0178f000 	cmneq	r8, r0
    3d98:	57010000 	strpl	r0, [r1, -r0]
    3d9c:	01310001 	teqeq	r1, r1
    3da0:	00001b48 	andeq	r1, r0, r8, asr #22
    3da4:	01017001 	tsteq	r1, r1
    3da8:	00000041 	andeq	r0, r0, r1, asr #32
    3dac:	f0001b98 			; <UNDEFINED> instruction: 0xf0001b98
    3db0:	f0001c48 			; <UNDEFINED> instruction: 0xf0001c48
    3db4:	000011c4 	andeq	r1, r0, r4, asr #3
    3db8:	00000f7b 	andeq	r0, r0, fp, ror pc
    3dbc:	001cf62d 	andseq	pc, ip, sp, lsr #12
    3dc0:	01700100 	cmneq	r0, r0, lsl #2
    3dc4:	00000f7b 	andeq	r0, r0, fp, ror pc
    3dc8:	000011e4 	andeq	r1, r0, r4, ror #3
    3dcc:	000cf332 	andeq	pc, ip, r2, lsr r3	; <UNPREDICTABLE>
    3dd0:	001bbc00 	andseq	fp, fp, r0, lsl #24
    3dd4:	000190f0 	strdeq	r9, [r1], -r0
    3dd8:	017e0100 	cmneq	lr, r0, lsl #2
    3ddc:	00000f60 	andeq	r0, r0, r0, ror #30
    3de0:	000d0129 	andeq	r0, sp, r9, lsr #2
    3de4:	f3330000 	vhadd.u<illegal width 64>	d0, d3, d0
    3de8:	d800000c 	stmdale	r0, {r2, r3}
    3dec:	00f0001b 	rscseq	r0, r0, fp, lsl r0
    3df0:	01f0001c 	mvnseq	r0, ip, lsl r0
    3df4:	01220180 	smlawbeq	r2, r0, r1, r0
    3df8:	0f00000d 	svceq	0x0000000d
    3dfc:	00000012 	andeq	r0, r0, r2, lsl r0
    3e00:	81041000 	mrshi	r1, (UNDEF: 4)
    3e04:	3400000f 	strcc	r0, [r0], #-15
    3e08:	00000c72 	andeq	r0, r0, r2, ror ip
    3e0c:	1bf00131 	blne	ffc042d8 <__bss_end+0xfc001d8>
    3e10:	86010000 	strhi	r0, [r1], -r0
    3e14:	00530101 	subseq	r0, r3, r1, lsl #2
    3e18:	1c480000 	marne	acc0, r0, r8
    3e1c:	1cd4f000 	ldclne	0, cr15, [r4], {0}
    3e20:	1222f000 	eorne	pc, r2, #0
    3e24:	0ffd0000 	svceq	0x00fd0000
    3e28:	62350000 	eorsvs	r0, r5, #0
    3e2c:	01006675 	tsteq	r0, r5, ror r6
    3e30:	0ffd0186 	svceq	0x00fd0186
    3e34:	12420000 	subne	r0, r2, #0
    3e38:	6e360000 	cdpvs	0, 3, cr0, cr6, cr0, {0}
    3e3c:	01860100 	orreq	r0, r6, r0, lsl #2
    3e40:	00000053 	andeq	r0, r0, r3, asr r0
    3e44:	692e5101 	stmdbvs	lr!, {r0, r8, ip, lr}
    3e48:	01880100 	orreq	r0, r8, r0, lsl #2
    3e4c:	00000053 	andeq	r0, r0, r3, asr r0
    3e50:	00001255 	andeq	r1, r0, r5, asr r2
    3e54:	0100632e 	tsteq	r0, lr, lsr #6
    3e58:	0c720189 	ldfeqe	f0, [r2], #-548	; 0xfffffddc
    3e5c:	12800000 	addne	r0, r0, #0
    3e60:	0c370000 	ldceq	0, cr0, [r7], #-0
    3e64:	7400000d 	strvc	r0, [r0], #-13
    3e68:	b0f0001c 	rscslt	r0, r0, ip, lsl r0
    3e6c:	01000001 	tsteq	r0, r1
    3e70:	d8260190 	stmdale	r6!, {r4, r7, r8}
    3e74:	23000001 	movwcs	r0, #1
    3e78:	00000d1e 	andeq	r0, r0, lr, lsl sp
    3e7c:	000012a0 	andeq	r1, r0, r0, lsr #5
    3e80:	10000000 	andne	r0, r0, r0
    3e84:	000c7204 	andeq	r7, ip, r4, lsl #4
    3e88:	0d2b3800 	stceq	8, cr3, [fp, #-0]
    3e8c:	1cd40000 	ldclne	0, cr0, [r4], {0}
    3e90:	1ce8f000 	stclne	0, cr15, [r8]
    3e94:	7d02f000 	stcvc	0, cr15, [r2, #-0]
    3e98:	0d363800 	ldceq	8, cr3, [r6, #-0]
    3e9c:	1ce80000 	stclne	0, cr0, [r8]
    3ea0:	1cfcf000 	ldclne	0, cr15, [ip]
    3ea4:	7d02f000 	stcvc	0, cr15, [r2, #-0]
    3ea8:	f4012c00 			; <UNDEFINED> instruction: 0xf4012c00
    3eac:	0100001a 	tsteq	r0, sl, lsl r0
    3eb0:	fc0101a5 	stc2	1, cr0, [r1], {165}	; 0xa5
    3eb4:	88f0001c 	ldmhi	r0!, {r2, r3, r4}^
    3eb8:	cbf0001d 	blgt	ffc03f34 <__bss_end+0xfbffe34>
    3ebc:	8d000012 	stchi	0, cr0, [r0, #-72]	; 0xffffffb8
    3ec0:	2d000010 	stccs	0, cr0, [r0, #-64]	; 0xffffffc0
    3ec4:	00001b9c 	muleq	r0, ip, fp
    3ec8:	5301a501 	movwpl	sl, #5377	; 0x1501
    3ecc:	eb000000 	bl	3ed4 <__standby_start+0x3ed4>
    3ed0:	2f000012 	svccs	0x00000012
    3ed4:	00001b8f 	andeq	r1, r0, pc, lsl #23
    3ed8:	5301a801 	movwpl	sl, #6145	; 0x1801
    3edc:	09000000 	stmdbeq	r0, {}	; <UNPREDICTABLE>
    3ee0:	2e000013 	mcrcs	0, 0, r0, cr0, cr3, {0}
    3ee4:	01006664 	tsteq	r0, r4, ror #12
    3ee8:	005301a9 	subseq	r0, r3, r9, lsr #3
    3eec:	13370000 	teqne	r7, #0
    3ef0:	6c2e0000 	stcvs	0, cr0, [lr], #-0
    3ef4:	01007263 	tsteq	r0, r3, ror #4
    3ef8:	005301aa 	subseq	r0, r3, sl, lsr #3
    3efc:	135a0000 	cmpne	sl, #0
    3f00:	2b2b0000 	blcs	ac3f08 <__standby_start+0xac3f08>
    3f04:	8000000d 	andhi	r0, r0, sp
    3f08:	84f0001d 	ldrbthi	r0, [r0], #29
    3f0c:	01f0001d 	mvnseq	r0, sp, lsl r0
    3f10:	310001bf 			; <UNDEFINED> instruction: 0x310001bf
    3f14:	001b3c01 	andseq	r3, fp, r1, lsl #24
    3f18:	01e60100 	mvneq	r0, r0, lsl #2
    3f1c:	00004101 	andeq	r4, r0, r1, lsl #2
    3f20:	001d8800 	andseq	r8, sp, r0, lsl #16
    3f24:	001e38f0 			; <UNDEFINED> instruction: 0x001e38f0
    3f28:	001379f0 			; <UNDEFINED> instruction: 0x001379f0
    3f2c:	0010f000 	andseq	pc, r0, r0
    3f30:	1cf62d00 	ldclne	13, cr2, [r6]
    3f34:	e6010000 	str	r0, [r1], -r0
    3f38:	000f7b01 	andeq	r7, pc, r1, lsl #22
    3f3c:	00139900 	andseq	r9, r3, r0, lsl #18
    3f40:	0d413200 	sfmeq	f3, 2, [r1, #-0]
    3f44:	1dac0000 	stcne	0, cr0, [ip]
    3f48:	0200f000 	andeq	pc, r0, #0
    3f4c:	f4010000 	vst4.8	{d0-d3}, [r1], r0
    3f50:	0010d501 	andseq	sp, r0, r1, lsl #10
    3f54:	0d4f2900 	stcleq	9, cr2, [pc, #-0]	; 3f5c <__standby_start+0x3f5c>
    3f58:	33000000 	movwcc	r0, #0
    3f5c:	00000d41 	andeq	r0, r0, r1, asr #26
    3f60:	f0001dc8 			; <UNDEFINED> instruction: 0xf0001dc8
    3f64:	f0001df0 			; <UNDEFINED> instruction: 0xf0001df0
    3f68:	2201f601 	andcs	pc, r1, #1048576	; 0x100000
    3f6c:	00000d4f 	andeq	r0, r0, pc, asr #26
    3f70:	000013c4 	andeq	r1, r0, r4, asr #7
    3f74:	01310000 	teqeq	r1, r0
    3f78:	00001ae8 	andeq	r1, r0, r8, ror #21
    3f7c:	0101fd01 	tsteq	r1, r1, lsl #26
    3f80:	00000053 	andeq	r0, r0, r3, asr r0
    3f84:	f0001e38 			; <UNDEFINED> instruction: 0xf0001e38
    3f88:	f0001ec4 			; <UNDEFINED> instruction: 0xf0001ec4
    3f8c:	000013d7 	ldrdeq	r1, [r0], -r7
    3f90:	00001167 	andeq	r1, r0, r7, ror #2
    3f94:	66756235 			; <UNDEFINED> instruction: 0x66756235
    3f98:	01fd0100 	mvnseq	r0, r0, lsl #2
    3f9c:	00000ffd 	strdeq	r0, [r0], -sp
    3fa0:	000013f7 	strdeq	r1, [r0], -r7
    3fa4:	01006e36 	tsteq	r0, r6, lsr lr
    3fa8:	005301fd 	ldrsheq	r0, [r3], #-29	; 0xffffffe3
    3fac:	51010000 	mrspl	r0, (UNDEF: 1)
    3fb0:	0100692e 	tsteq	r0, lr, lsr #18
    3fb4:	005301ff 	ldrsheq	r0, [r3], #-31	; 0xffffffe1
    3fb8:	140a0000 	strne	r0, [sl], #-0
    3fbc:	632e0000 	teqvs	lr, #0
    3fc0:	02000100 	andeq	r0, r0, #0
    3fc4:	00000c72 	andeq	r0, r0, r2, ror ip
    3fc8:	00001435 	andeq	r1, r0, r5, lsr r4
    3fcc:	000d5a37 	andeq	r5, sp, r7, lsr sl
    3fd0:	001e6400 	andseq	r6, lr, r0, lsl #8
    3fd4:	000220f0 	strdeq	r2, [r2], -r0
    3fd8:	02070100 	andeq	r0, r7, #0
    3fdc:	00024826 	andeq	r4, r2, r6, lsr #16
    3fe0:	0d6c2300 	stcleq	3, cr2, [ip, #-0]
    3fe4:	14550000 	ldrbne	r0, [r5], #-0
    3fe8:	00000000 	andeq	r0, r0, r0
    3fec:	1c743900 	ldclne	9, cr3, [r4], #-0
    3ff0:	0a010000 	beq	43ff8 <__standby_start+0x43ff8>
    3ff4:	00000053 	andeq	r0, r0, r3, asr r0
    3ff8:	3d740305 	ldclcc	3, cr0, [r4, #-20]!	; 0xffffffec
    3ffc:	0239f000 	eorseq	pc, r9, #0
    4000:	0100001c 	tsteq	r0, ip, lsl r0
    4004:	0000530b 	andeq	r5, r0, fp, lsl #6
    4008:	78030500 	stmdavc	r3, {r8, sl}
    400c:	39f0003d 	ldmibcc	r0!, {r0, r2, r3, r4, r5}^
    4010:	00001b00 	andeq	r1, r0, r0, lsl #22
    4014:	00530c01 	subseq	r0, r3, r1, lsl #24
    4018:	03050000 	movweq	r0, #20480	; 0x5000
    401c:	f0003d70 			; <UNDEFINED> instruction: 0xf0003d70
    4020:	001ba439 	andseq	sl, fp, r9, lsr r4
    4024:	530d0100 	movwpl	r0, #53504	; 0xd100
    4028:	05000000 	streq	r0, [r0, #-0]
    402c:	003d8003 	eorseq	r8, sp, r3
    4030:	1b9539f0 	blne	fe5527f8 <__bss_end+0xe54e6f8>
    4034:	0e010000 	cdpeq	0, 0, cr0, cr1, cr0, {0}
    4038:	00000053 	andeq	r0, r0, r3, asr r0
    403c:	3d7c0305 	ldclcc	3, cr0, [ip, #-20]!	; 0xffffffec
    4040:	4000f000 	andmi	pc, r0, r0
    4044:	02000008 	andeq	r0, r0, #8
    4048:	00111600 	andseq	r1, r1, r0, lsl #12
    404c:	fd010400 	stc2	4, cr0, [r1, #-0]
    4050:	01000003 	tsteq	r0, r3
    4054:	00001d32 	andeq	r1, r0, r2, lsr sp
    4058:	00000535 	andeq	r0, r0, r5, lsr r5
    405c:	f0001ec4 			; <UNDEFINED> instruction: 0xf0001ec4
    4060:	f00026b0 			; <UNDEFINED> instruction: 0xf00026b0
    4064:	00000e2b 	andeq	r0, r0, fp, lsr #28
    4068:	af060102 	svcge	0x00060102
    406c:	02000007 	andeq	r0, r0, #7
    4070:	07ad0801 	streq	r0, [sp, r1, lsl #16]!
    4074:	02020000 	andeq	r0, r2, #0
    4078:	00066805 	andeq	r6, r6, r5, lsl #16
    407c:	07020200 	streq	r0, [r2, -r0, lsl #4]
    4080:	0000087f 	andeq	r0, r0, pc, ror r8
    4084:	000e4e03 	andeq	r4, lr, r3, lsl #28
    4088:	4c120200 	lfmmi	f0, 4, [r2], {-0}
    408c:	04000000 	streq	r0, [r0], #-0
    4090:	6e690504 	cdpvs	5, 6, cr0, cr9, cr4, {0}
    4094:	04020074 	streq	r0, [r2], #-116	; 0x74
    4098:	00025407 	andeq	r5, r2, r7, lsl #8
    409c:	05080200 	streq	r0, [r8, #-512]	; 0x200
    40a0:	0000047d 	andeq	r0, r0, sp, ror r4
    40a4:	4a070802 	bmi	1c60b4 <__standby_start+0x1c60b4>
    40a8:	03000002 	movweq	r0, #2
    40ac:	00001c89 	andeq	r1, r0, r9, lsl #25
    40b0:	00531802 	subseq	r1, r3, r2, lsl #16
    40b4:	77050000 	strvc	r0, [r5, -r0]
    40b8:	04000008 	streq	r0, [r0], #-8
    40bc:	00e08904 	rsceq	r8, r0, r4, lsl #18
    40c0:	af060000 	svcge	0x00060000
    40c4:	00000006 	andeq	r0, r0, r6
    40c8:	00033d06 	andeq	r3, r3, r6, lsl #26
    40cc:	68060100 	stmdavs	r6, {r8}
    40d0:	02000007 	andeq	r0, r0, #7
    40d4:	00033106 	andeq	r3, r3, r6, lsl #2
    40d8:	37060300 	strcc	r0, [r6, -r0, lsl #6]
    40dc:	04000004 	streq	r0, [r0], #-4
    40e0:	0006bc06 	andeq	fp, r6, r6, lsl #24
    40e4:	f0060500 			; <UNDEFINED> instruction: 0xf0060500
    40e8:	06000003 	streq	r0, [r0], -r3
    40ec:	00086106 	andeq	r6, r8, r6, lsl #2
    40f0:	6a060700 	bvs	185cf8 <__standby_start+0x185cf8>
    40f4:	08000004 	stmdaeq	r0, {r2}
    40f8:	00090206 	andeq	r0, r9, r6, lsl #4
    40fc:	4a060900 	bmi	186504 <__standby_start+0x186504>
    4100:	0a000006 	beq	4120 <__standby_start+0x4120>
    4104:	00067206 	andeq	r7, r6, r6, lsl #4
    4108:	71060b00 	tstvc	r6, r0, lsl #22
    410c:	0c000008 	stceq	0, cr0, [r0], {8}
    4110:	0007c206 	andeq	ip, r7, r6, lsl #4
    4114:	29060d00 	stmdbcs	r6, {r8, sl, fp}
    4118:	0e000006 	cdpeq	0, 0, cr0, cr0, cr6, {0}
    411c:	00080006 	andeq	r0, r8, r6
    4120:	02000f00 	andeq	r0, r0, #0
    4124:	07b60801 	ldreq	r0, [r6, r1, lsl #16]!
    4128:	04020000 	streq	r0, [r2], #-0
    412c:	00024f07 	andeq	r4, r2, r7, lsl #30
    4130:	03040700 	movweq	r0, #18176	; 0x4700
    4134:	00001d23 	andeq	r1, r0, r3, lsr #26
    4138:	00fb2803 	rscseq	r2, fp, r3, lsl #16
    413c:	a4080000 	strge	r0, [r8], #-0
    4140:	0400001c 	streq	r0, [r0], #-28
    4144:	01150005 	tsteq	r5, r5
    4148:	e4090000 	str	r0, [r9], #-0
    414c:	ee00001c 	mcr	0, 0, r0, cr0, cr12, {0}
    4150:	02000000 	andeq	r0, r0, #0
    4154:	00010023 	andeq	r0, r1, r3, lsr #32
    4158:	001ca603 	andseq	sl, ip, r3, lsl #12
    415c:	f0660300 			; <UNDEFINED> instruction: 0xf0660300
    4160:	0a000000 	beq	4168 <__standby_start+0x4168>
    4164:	00001d63 	andeq	r1, r0, r3, ror #26
    4168:	5e015b01 	vmlapl.f64	d5, d1, d1
    416c:	01000001 	tsteq	r0, r1
    4170:	0000015e 	andeq	r0, r0, lr, asr r1
    4174:	001d050b 	andseq	r0, sp, fp, lsl #10
    4178:	5e5b0100 	rdfple	f0, f3, f0
    417c:	0c000001 	stceq	0, cr0, [r0], {1}
    4180:	00637273 	rsbeq	r7, r3, r3, ror r2
    4184:	01645b01 	cmneq	r4, r1, lsl #22
    4188:	d40b0000 	strle	r0, [fp], #-0
    418c:	01000019 	tsteq	r0, r9, lsl r0
    4190:	0000685b 	andeq	r6, r0, fp, asr r8
    4194:	6d740d00 	ldclvs	13, cr0, [r4, #-0]
    4198:	5d010070 	stcpl	0, cr0, [r1, #-448]	; 0xfffffe40
    419c:	0000015e 	andeq	r0, r0, lr, asr r1
    41a0:	e0040e00 	and	r0, r4, r0, lsl #28
    41a4:	0e000000 	cdpeq	0, 0, cr0, cr0, cr0, {0}
    41a8:	00016a04 	andeq	r6, r1, r4, lsl #20
    41ac:	00e00f00 	rsceq	r0, r0, r0, lsl #30
    41b0:	e90a0000 	stmdb	sl, {}	; <UNPREDICTABLE>
    41b4:	0100001c 	tsteq	r0, ip, lsl r0
    41b8:	0068011d 	rsbeq	r0, r8, sp, lsl r1
    41bc:	94010000 	strls	r0, [r1], #-0
    41c0:	0c000001 	stceq	0, cr0, [r0], {1}
    41c4:	1d010073 	stcne	0, cr0, [r1, #-460]	; 0xfffffe34
    41c8:	00000164 	andeq	r0, r0, r4, ror #2
    41cc:	0063730d 	rsbeq	r7, r3, sp, lsl #6
    41d0:	01641f01 	cmneq	r4, r1, lsl #30
    41d4:	0a000000 	beq	41dc <__standby_start+0x41dc>
    41d8:	00001cfd 	strdeq	r1, [r0], -sp
    41dc:	5e012e01 	cdppl	14, 0, cr2, cr1, cr1, {0}
    41e0:	01000001 	tsteq	r0, r1
    41e4:	000001c7 	andeq	r0, r0, r7, asr #3
    41e8:	001d050b 	andseq	r0, sp, fp, lsl #10
    41ec:	5e2e0100 	sufple	f0, f6, f0
    41f0:	0c000001 	stceq	0, cr0, [r0], {1}
    41f4:	00637273 	rsbeq	r7, r3, r3, ror r2
    41f8:	01642e01 	cmneq	r4, r1, lsl #28
    41fc:	740d0000 	strvc	r0, [sp], #-0
    4200:	0100706d 	tsteq	r0, sp, rrx
    4204:	00015e30 	andeq	r5, r1, r0, lsr lr
    4208:	ce0a0000 	cdpgt	0, 0, cr0, cr10, cr0, {0}
    420c:	0100001c 	tsteq	r0, ip, lsl r0
    4210:	015e019f 			; <UNDEFINED> instruction: 0x015e019f
    4214:	2d010000 	stccs	0, cr0, [r1, #-0]
    4218:	0b000002 	bleq	4228 <__standby_start+0x4228>
    421c:	00001316 	andeq	r1, r0, r6, lsl r3
    4220:	004c9f01 	subeq	r9, ip, r1, lsl #30
    4224:	f60b0000 			; <UNDEFINED> instruction: 0xf60b0000
    4228:	0100001c 	tsteq	r0, ip, lsl r0
    422c:	00015e9f 	muleq	r1, pc, lr	; <UNPREDICTABLE>
    4230:	1cde0b00 	vldmiane	lr, {d16-d15}
    4234:	9f010000 	svcls	0x00010000
    4238:	0000004c 	andeq	r0, r0, ip, asr #32
    423c:	001cd310 	andseq	sp, ip, r0, lsl r3
    4240:	2da10100 	stfcss	f0, [r1]
    4244:	10000002 	andne	r0, r0, r2
    4248:	00001cbe 			; <UNDEFINED> instruction: 0x00001cbe
    424c:	004ca201 	subeq	sl, ip, r1, lsl #4
    4250:	690d0000 	stmdbvs	sp, {}	; <UNPREDICTABLE>
    4254:	4ca30100 	stfmis	f0, [r3]
    4258:	0d000000 	stceq	0, cr0, [r0, #-0]
    425c:	a401006a 	strge	r0, [r1], #-106	; 0x6a
    4260:	0000004c 	andeq	r0, r0, ip, asr #32
    4264:	001cf010 	andseq	pc, ip, r0, lsl r0	; <UNPREDICTABLE>
    4268:	3da50100 	stfccs	f0, [r5]
    426c:	00000002 	andeq	r0, r0, r2
    4270:	0000e011 	andeq	lr, r0, r1, lsl r0
    4274:	00023d00 	andeq	r3, r2, r0, lsl #26
    4278:	00531200 	subseq	r1, r3, r0, lsl #4
    427c:	000f0000 	andeq	r0, pc, r0
    4280:	0000e011 	andeq	lr, r0, r1, lsl r0
    4284:	00024d00 	andeq	r4, r2, r0, lsl #26
    4288:	00531200 	subseq	r1, r3, r0, lsl #4
    428c:	00100000 	andseq	r0, r0, r0
    4290:	001c8413 	andseq	r8, ip, r3, lsl r4
    4294:	01ce0100 	biceq	r0, lr, r0, lsl #2
    4298:	0000015e 	andeq	r0, r0, lr, asr r1
    429c:	f0001ec4 			; <UNDEFINED> instruction: 0xf0001ec4
    42a0:	f0001f80 			; <UNDEFINED> instruction: 0xf0001f80
    42a4:	00001480 	andeq	r1, r0, r0, lsl #9
    42a8:	000002ce 	andeq	r0, r0, lr, asr #5
    42ac:	00131614 	andseq	r1, r3, r4, lsl r6
    42b0:	53ce0100 	bicpl	r0, lr, #0
    42b4:	ad000000 	stcge	0, cr0, [r0, #-0]
    42b8:	14000014 	strne	r0, [r0], #-20
    42bc:	00001cf6 	strdeq	r1, [r0], -r6
    42c0:	015ece01 	cmpeq	lr, r1, lsl #28
    42c4:	14e10000 	strbtne	r0, [r1], #0
    42c8:	de140000 	cdple	0, 1, cr0, cr4, cr0, {0}
    42cc:	0100001c 	tsteq	r0, ip, lsl r0
    42d0:	00004cce 	andeq	r4, r0, lr, asr #25
    42d4:	0014ff00 	andseq	pc, r4, r0, lsl #30
    42d8:	1cd31500 	cfldr64ne	mvdx1, [r3], {0}
    42dc:	d0010000 	andle	r0, r1, r0
    42e0:	0000022d 	andeq	r0, r0, sp, lsr #4
    42e4:	16509102 	ldrbne	r9, [r0], -r2, lsl #2
    42e8:	d1010069 	tstle	r1, r9, rrx
    42ec:	0000004c 	andeq	r0, r0, ip, asr #32
    42f0:	0000151d 	andeq	r1, r0, sp, lsl r5
    42f4:	01006a16 	tsteq	r0, r6, lsl sl
    42f8:	00004cd2 	ldrdeq	r4, [r0], -r2
    42fc:	00154600 	andseq	r4, r5, r0, lsl #12
    4300:	1cf01500 	cfldr64ne	mvdx1, [r0]
    4304:	d3010000 	movwle	r0, #4096	; 0x1000
    4308:	0000023d 	andeq	r0, r0, sp, lsr r2
    430c:	7fbc9103 	svcvc	0x00bc9103
    4310:	1d0a1700 	stcne	7, cr1, [sl, #-0]
    4314:	6a010000 	bvs	4431c <__standby_start+0x4431c>
    4318:	00410101 	subeq	r0, r1, r1, lsl #2
    431c:	1f800000 	svcne	0x00800000
    4320:	2028f000 	eorcs	pc, r8, r0
    4324:	155af000 	ldrbne	pc, [sl, #-0]	; <UNPREDICTABLE>
    4328:	03660000 	cmneq	r6, #0
    432c:	f6180000 			; <UNDEFINED> instruction: 0xf6180000
    4330:	0100001c 	tsteq	r0, ip, lsl r0
    4334:	015e016a 	cmpeq	lr, sl, ror #2
    4338:	15860000 	strne	r0, [r6]
    433c:	6c190000 	ldcvs	0, cr0, [r9], {-0}
    4340:	01006e65 	tsteq	r0, r5, ror #28
    4344:	0041016a 	subeq	r0, r1, sl, ror #2
    4348:	15a40000 	strne	r0, [r4, #0]!
    434c:	10180000 	andsne	r0, r8, r0
    4350:	0100001d 	tsteq	r0, sp, lsl r0
    4354:	0041016a 	subeq	r0, r1, sl, ror #2
    4358:	15c20000 	strbne	r0, [r2]
    435c:	9c1a0000 	ldcls	0, cr0, [sl], {-0}
    4360:	0100001c 	tsteq	r0, ip, lsl r0
    4364:	023d016e 	eorseq	r0, sp, #-2147483621	; 0x8000001b
    4368:	91020000 	mrsls	r0, (UNDEF: 2)
    436c:	01201b5c 	teqeq	r0, ip, asr fp
    4370:	1fbc0000 	svcne	0x00bc0000
    4374:	0270f000 	rsbseq	pc, r0, #0
    4378:	72010000 	andvc	r0, r1, #0
    437c:	01471c01 	cmpeq	r7, r1, lsl #24
    4380:	15e00000 	strbne	r0, [r0, #0]!
    4384:	3c1c0000 	ldccc	0, cr0, [ip], {-0}
    4388:	16000001 	strne	r0, [r0], -r1
    438c:	1c000016 	stcne	0, cr0, [r0], {22}
    4390:	00000131 	andeq	r0, r0, r1, lsr r1
    4394:	00001638 	andeq	r1, r0, r8, lsr r6
    4398:	0002881d 	andeq	r8, r2, sp, lsl r8
    439c:	01521e00 	cmpeq	r2, r0, lsl #28
    43a0:	16980000 	ldrne	r0, [r8], r0
    43a4:	00000000 	andeq	r0, r0, r0
    43a8:	01c71f00 	biceq	r1, r7, r0, lsl #30
    43ac:	20280000 	eorcs	r0, r8, r0
    43b0:	2110f000 	tstcs	r0, r0
    43b4:	16abf000 	strtne	pc, [fp], r0
    43b8:	03bf0000 			; <UNDEFINED> instruction: 0x03bf0000
    43bc:	d81c0000 	ldmdale	ip, {}	; <UNPREDICTABLE>
    43c0:	d8000001 	stmdale	r0, {r0}
    43c4:	1c000016 	stcne	0, cr0, [r0], {22}
    43c8:	000001e3 	andeq	r0, r0, r3, ror #3
    43cc:	0000170c 	andeq	r1, r0, ip, lsl #14
    43d0:	0001f920 	andeq	pc, r1, r0, lsr #18
    43d4:	58910200 	ldmpl	r1, {r9}
    43d8:	0002041e 	andeq	r0, r2, lr, lsl r4
    43dc:	00172a00 	andseq	r2, r7, r0, lsl #20
    43e0:	020f1e00 	andeq	r1, pc, #0
    43e4:	17550000 	ldrbne	r0, [r5, -r0]
    43e8:	181e0000 	ldmdane	lr, {}	; <UNPREDICTABLE>
    43ec:	8a000002 	bhi	43fc <__standby_start+0x43fc>
    43f0:	20000017 	andcs	r0, r0, r7, lsl r0
    43f4:	00000221 	andeq	r0, r0, r1, lsr #4
    43f8:	21449102 	cmpcs	r4, r2, lsl #2
    43fc:	000001ee 	andeq	r0, r0, lr, ror #3
    4400:	0122000a 	teqeq	r2, sl
    4404:	00001cc7 	andeq	r1, r0, r7, asr #25
    4408:	01010401 	tsteq	r1, r1, lsl #8
    440c:	00000041 	andeq	r0, r0, r1, asr #32
    4410:	f0002110 			; <UNDEFINED> instruction: 0xf0002110
    4414:	f00023e0 			; <UNDEFINED> instruction: 0xf00023e0
    4418:	000017a9 	andeq	r1, r0, r9, lsr #15
    441c:	000005f0 	strdeq	r0, [r0], -r0	; <UNPREDICTABLE>
    4420:	001c9518 	andseq	r9, ip, r8, lsl r5
    4424:	01040100 	mrseq	r0, (UNDEF: 20)
    4428:	00000164 	andeq	r0, r0, r4, ror #2
    442c:	000017e2 	andeq	r1, r0, r2, ror #15
    4430:	1cd91a23 	vldmiane	r9, {s3-s37}
    4434:	06010000 	streq	r0, [r1], -r0
    4438:	00011501 	andeq	r1, r1, r1, lsl #10
    443c:	4c910200 	lfmmi	f0, 4, [r1], {0}
    4440:	001cf61a 	andseq	pc, ip, sl, lsl r6	; <UNPREDICTABLE>
    4444:	01070100 	mrseq	r0, (UNDEF: 23)
    4448:	0000022d 	andeq	r0, r0, sp, lsr #4
    444c:	7fbc9103 	svcvc	0x00bc9103
    4450:	001d0424 	andseq	r0, sp, r4, lsr #8
    4454:	01080100 	mrseq	r0, (UNDEF: 24)
    4458:	0000015e 	andeq	r0, r0, lr, asr r1
    445c:	00001825 	andeq	r1, r0, r5, lsr #16
    4460:	001c9024 	andseq	r9, ip, r4, lsr #32
    4464:	01090100 	mrseq	r0, (UNDEF: 25)
    4468:	0000015e 	andeq	r0, r0, lr, asr r1
    446c:	00001897 	muleq	r0, r7, r8
    4470:	001d1024 	andseq	r1, sp, r4, lsr #32
    4474:	010a0100 	mrseq	r0, (UNDEF: 26)
    4478:	00000041 	andeq	r0, r0, r1, asr #32
    447c:	000018ad 	andeq	r1, r0, sp, lsr #17
    4480:	6e656c25 	cdpvs	12, 6, cr6, cr5, cr5, {1}
    4484:	010b0100 	mrseq	r0, (UNDEF: 27)
    4488:	00000041 	andeq	r0, r0, r1, asr #32
    448c:	000018cb 	andeq	r1, r0, fp, asr #17
    4490:	00016f26 	andeq	r6, r1, r6, lsr #30
    4494:	00223000 	eoreq	r3, r2, r0
    4498:	002250f0 	strdeq	r5, [r2], -r0	; <UNPREDICTABLE>
    449c:	013c01f0 			; <UNDEFINED> instruction: 0x013c01f0
    44a0:	0000047e 	andeq	r0, r0, lr, ror r4
    44a4:	0001801c 	andeq	r8, r1, ip, lsl r0
    44a8:	00192100 	andseq	r2, r9, r0, lsl #2
    44ac:	22302700 	eorscs	r2, r0, #0
    44b0:	2250f000 	subscs	pc, r0, #0
    44b4:	891ef000 	ldmdbhi	lr, {ip, sp, lr, pc}
    44b8:	34000001 	strcc	r0, [r0], #-1
    44bc:	00000019 	andeq	r0, r0, r9, lsl r0
    44c0:	01942600 	orrseq	r2, r4, r0, lsl #12
    44c4:	226c0000 	rsbcs	r0, ip, #0
    44c8:	227cf000 	rsbscs	pc, ip, #0
    44cc:	3e01f000 	cdpcc	0, 0, cr15, cr1, cr0, {0}
    44d0:	0004b801 	andeq	fp, r4, r1, lsl #16
    44d4:	01b01c00 	lslseq	r1, r0, #24
    44d8:	195f0000 	ldmdbne	pc, {}^	; <UNPREDICTABLE>
    44dc:	a51c0000 	ldrge	r0, [ip, #-0]
    44e0:	72000001 	andvc	r0, r0, #1
    44e4:	27000019 	smladcs	r0, r9, r0, r0
    44e8:	f000226c 			; <UNDEFINED> instruction: 0xf000226c
    44ec:	f000227c 			; <UNDEFINED> instruction: 0xf000227c
    44f0:	0001bb1e 	andeq	fp, r1, lr, lsl fp
    44f4:	00199000 	andseq	r9, r9, r0
    44f8:	26000000 	strcs	r0, [r0], -r0
    44fc:	00000194 	muleq	r0, r4, r1
    4500:	f000229c 			; <UNDEFINED> instruction: 0xf000229c
    4504:	f00022ac 			; <UNDEFINED> instruction: 0xf00022ac
    4508:	f2014c01 			; <UNDEFINED> instruction: 0xf2014c01
    450c:	1c000004 	stcne	0, cr0, [r0], {4}
    4510:	000001b0 			; <UNDEFINED> instruction: 0x000001b0
    4514:	000019a3 	andeq	r1, r0, r3, lsr #19
    4518:	0001a51c 	andeq	sl, r1, ip, lsl r5
    451c:	0019b900 	andseq	fp, r9, r0, lsl #18
    4520:	229c2700 	addscs	r2, ip, #0
    4524:	22acf000 	adccs	pc, ip, #0
    4528:	bb1ef000 	bllt	7c0530 <__standby_start+0x7c0530>
    452c:	d7000001 	strle	r0, [r0, -r1]
    4530:	00000019 	andeq	r0, r0, r9, lsl r0
    4534:	016f2600 	cmneq	pc, r0, lsl #12
    4538:	22ac0000 	adccs	r0, ip, #0
    453c:	22ccf000 	sbccs	pc, ip, #0
    4540:	4d01f000 	stcmi	0, cr15, [r1, #-0]
    4544:	00051f01 	andeq	r1, r5, r1, lsl #30
    4548:	01802800 	orreq	r2, r0, r0, lsl #16
    454c:	ac270000 	stcge	0, cr0, [r7], #-0
    4550:	ccf00022 	ldclgt	0, cr0, [r0], #136	; 0x88
    4554:	1ef00022 	cdpne	0, 15, cr0, cr0, cr2, {1}
    4558:	00000189 	andeq	r0, r0, r9, lsl #3
    455c:	000019ea 	andeq	r1, r0, sl, ror #19
    4560:	6f260000 	svcvs	0x00260000
    4564:	f0000001 			; <UNDEFINED> instruction: 0xf0000001
    4568:	10f00022 	rscsne	r0, r0, r2, lsr #32
    456c:	01f00023 	mvnseq	r0, r3, lsr #32
    4570:	05500132 	ldrbeq	r0, [r0, #-306]	; 0x132
    4574:	801c0000 	andshi	r0, ip, r0
    4578:	18000001 	stmdane	r0, {r0}
    457c:	2700001a 	smladcs	r0, sl, r0, r0
    4580:	f00022f0 			; <UNDEFINED> instruction: 0xf00022f0
    4584:	f0002310 			; <UNDEFINED> instruction: 0xf0002310
    4588:	0001891e 	andeq	r8, r1, lr, lsl r9
    458c:	001a2b00 	andseq	r2, sl, r0, lsl #22
    4590:	26000000 	strcs	r0, [r0], -r0
    4594:	00000194 	muleq	r0, r4, r1
    4598:	f000232c 			; <UNDEFINED> instruction: 0xf000232c
    459c:	f000233c 			; <UNDEFINED> instruction: 0xf000233c
    45a0:	8a013401 	bhi	515ac <__standby_start+0x515ac>
    45a4:	1c000005 	stcne	0, cr0, [r0], {5}
    45a8:	000001b0 			; <UNDEFINED> instruction: 0x000001b0
    45ac:	00001a56 	andeq	r1, r0, r6, asr sl
    45b0:	0001a51c 	andeq	sl, r1, ip, lsl r5
    45b4:	001a6900 	andseq	r6, sl, r0, lsl #18
    45b8:	232c2700 	teqcs	ip, #0
    45bc:	233cf000 	teqcs	ip, #0
    45c0:	bb1ef000 	bllt	7c05c8 <__standby_start+0x7c05c8>
    45c4:	87000001 	strhi	r0, [r0, -r1]
    45c8:	0000001a 	andeq	r0, r0, sl, lsl r0
    45cc:	016f2600 	cmneq	pc, r0, lsl #12
    45d0:	23880000 	orrcs	r0, r8, #0
    45d4:	23a8f000 			; <UNDEFINED> instruction: 0x23a8f000
    45d8:	2701f000 	strcs	pc, [r1, -r0]
    45dc:	0005b901 	andeq	fp, r5, r1, lsl #18
    45e0:	01802900 	orreq	r2, r0, r0, lsl #18
    45e4:	56010000 	strpl	r0, [r1], -r0
    45e8:	00238827 	eoreq	r8, r3, r7, lsr #16
    45ec:	0023a8f0 	strdeq	sl, [r3], -r0	; <UNPREDICTABLE>
    45f0:	01891ef0 	strdeq	r1, [r9, r0]
    45f4:	1a9a0000 	bne	fe6845fc <__bss_end+0xe6804fc>
    45f8:	00000000 	andeq	r0, r0, r0
    45fc:	0001942a 	andeq	r9, r1, sl, lsr #8
    4600:	0023c400 	eoreq	ip, r3, r0, lsl #8
    4604:	0023d4f0 	strdeq	sp, [r3], -r0	; <UNPREDICTABLE>
    4608:	012901f0 	strdeq	r0, [r9, -r0]!	; <UNPREDICTABLE>
    460c:	0001b01c 	andeq	fp, r1, ip, lsl r0
    4610:	001ac500 	andseq	ip, sl, r0, lsl #10
    4614:	01a51c00 			; <UNDEFINED> instruction: 0x01a51c00
    4618:	1ad80000 	bne	ff604620 <__bss_end+0xf600520>
    461c:	c4270000 	strtgt	r0, [r7], #-0
    4620:	d4f00023 	ldrbtle	r0, [r0], #35	; 0x23
    4624:	1ef00023 	cdpne	0, 15, cr0, cr0, cr3, {1}
    4628:	000001bb 			; <UNDEFINED> instruction: 0x000001bb
    462c:	00001af6 	strdeq	r1, [r0], -r6
    4630:	22000000 	andcs	r0, r0, #0
    4634:	001d1601 	andseq	r1, sp, r1, lsl #12
    4638:	01790100 	cmneq	r9, r0, lsl #2
    463c:	00004101 	andeq	r4, r0, r1, lsl #2
    4640:	0023e000 	eoreq	lr, r3, r0
    4644:	0026b0f0 	strdeq	fp, [r6], -r0	; <UNPREDICTABLE>
    4648:	001b09f0 			; <UNDEFINED> instruction: 0x001b09f0
    464c:	00082100 	andeq	r2, r8, r0, lsl #2
    4650:	1c951800 	ldcne	8, cr1, [r5], {0}
    4654:	79010000 	stmdbvc	r1, {}	; <UNPREDICTABLE>
    4658:	00016401 	andeq	r6, r1, r1, lsl #8
    465c:	001b4200 	andseq	r4, fp, r0, lsl #4
    4660:	d91a2300 	ldmdble	sl, {r8, r9, sp}
    4664:	0100001c 	tsteq	r0, ip, lsl r0
    4668:	0115017b 	tsteq	r5, fp, ror r1
    466c:	91020000 	mrsls	r0, (UNDEF: 2)
    4670:	1cf61a4c 	vldmiane	r6!, {s3-s78}
    4674:	7c010000 	stcvc	0, cr0, [r1], {-0}
    4678:	00022d01 	andeq	r2, r2, r1, lsl #26
    467c:	bc910300 	ldclt	3, cr0, [r1], {0}
    4680:	1d04247f 	cfstrsne	mvf2, [r4, #-508]	; 0xfffffe04
    4684:	7d010000 	stcvc	0, cr0, [r1, #-0]
    4688:	00015e01 	andeq	r5, r1, r1, lsl #28
    468c:	001b8500 	andseq	r8, fp, r0, lsl #10
    4690:	1c902400 	cfldrsne	mvf2, [r0], {0}
    4694:	7e010000 	cdpvc	0, 0, cr0, cr1, cr0, {0}
    4698:	00015e01 	andeq	r5, r1, r1, lsl #28
    469c:	001bf700 	andseq	pc, fp, r0, lsl #14
    46a0:	1d102400 	cfldrsne	mvf2, [r0, #-0]
    46a4:	7f010000 	svcvc	0x00010000
    46a8:	00004101 	andeq	r4, r0, r1, lsl #2
    46ac:	001c0d00 	andseq	r0, ip, r0, lsl #26
    46b0:	656c2500 	strbvs	r2, [ip, #-1280]!	; 0x500
    46b4:	8001006e 	andhi	r0, r1, lr, rrx
    46b8:	00004101 	andeq	r4, r0, r1, lsl #2
    46bc:	001c2b00 	andseq	r2, ip, r0, lsl #22
    46c0:	016f2600 	cmneq	pc, r0, lsl #12
    46c4:	25000000 	strcs	r0, [r0, #-0]
    46c8:	2520f000 	strcs	pc, [r0, #-0]!
    46cc:	b101f000 	mrslt	pc, (UNDEF: 1)	; <UNPREDICTABLE>
    46d0:	0006af01 	andeq	sl, r6, r1, lsl #30
    46d4:	01801c00 	orreq	r1, r0, r0, lsl #24
    46d8:	1c810000 	stcne	0, cr0, [r1], {0}
    46dc:	00270000 	eoreq	r0, r7, r0
    46e0:	20f00025 	rscscs	r0, r0, r5, lsr #32
    46e4:	1ef00025 	cdpne	0, 15, cr0, cr0, cr5, {1}
    46e8:	00000189 	andeq	r0, r0, r9, lsl #3
    46ec:	00001c94 	muleq	r0, r4, ip
    46f0:	94260000 	strtls	r0, [r6], #-0
    46f4:	3c000001 	stccc	0, cr0, [r0], {1}
    46f8:	4cf00025 	ldclmi	0, cr0, [r0], #148	; 0x94
    46fc:	01f00025 	mvnseq	r0, r5, lsr #32
    4700:	06e901b3 			; <UNDEFINED> instruction: 0x06e901b3
    4704:	b01c0000 	andslt	r0, ip, r0
    4708:	bf000001 	svclt	0x00000001
    470c:	1c00001c 	stcne	0, cr0, [r0], {28}
    4710:	000001a5 	andeq	r0, r0, r5, lsr #3
    4714:	00001cd2 	ldrdeq	r1, [r0], -r2
    4718:	00253c27 	eoreq	r3, r5, r7, lsr #24
    471c:	00254cf0 	strdeq	r4, [r5], -r0	; <UNPREDICTABLE>
    4720:	01bb1ef0 			; <UNDEFINED> instruction: 0x01bb1ef0
    4724:	1cf00000 	ldclne	0, cr0, [r0]
    4728:	00000000 	andeq	r0, r0, r0
    472c:	00019426 	andeq	r9, r1, r6, lsr #8
    4730:	00256c00 	eoreq	r6, r5, r0, lsl #24
    4734:	00257cf0 	strdeq	r7, [r5], -r0	; <UNPREDICTABLE>
    4738:	01c101f0 	strdeq	r0, [r1, #16]
    473c:	00000723 	andeq	r0, r0, r3, lsr #14
    4740:	0001b01c 	andeq	fp, r1, ip, lsl r0
    4744:	001d0300 	andseq	r0, sp, r0, lsl #6
    4748:	01a51c00 			; <UNDEFINED> instruction: 0x01a51c00
    474c:	1d190000 	ldcne	0, cr0, [r9, #-0]
    4750:	6c270000 	stcvs	0, cr0, [r7], #-0
    4754:	7cf00025 	ldclvc	0, cr0, [r0], #148	; 0x94
    4758:	1ef00025 	cdpne	0, 15, cr0, cr0, cr5, {1}
    475c:	000001bb 			; <UNDEFINED> instruction: 0x000001bb
    4760:	00001d37 	andeq	r1, r0, r7, lsr sp
    4764:	6f260000 	svcvs	0x00260000
    4768:	7c000001 	stcvc	0, cr0, [r0], {1}
    476c:	9cf00025 	ldclls	0, cr0, [r0], #148	; 0x94
    4770:	01f00025 	mvnseq	r0, r5, lsr #32
    4774:	075001c2 	ldrbeq	r0, [r0, -r2, asr #3]
    4778:	80280000 	eorhi	r0, r8, r0
    477c:	27000001 	strcs	r0, [r0, -r1]
    4780:	f000257c 			; <UNDEFINED> instruction: 0xf000257c
    4784:	f000259c 			; <UNDEFINED> instruction: 0xf000259c
    4788:	0001891e 	andeq	r8, r1, lr, lsl r9
    478c:	001d4a00 	andseq	r4, sp, r0, lsl #20
    4790:	26000000 	strcs	r0, [r0], -r0
    4794:	0000016f 	andeq	r0, r0, pc, ror #2
    4798:	f00025c0 			; <UNDEFINED> instruction: 0xf00025c0
    479c:	f00025e0 			; <UNDEFINED> instruction: 0xf00025e0
    47a0:	8101a701 	tsthi	r1, r1, lsl #14
    47a4:	1c000007 	stcne	0, cr0, [r0], {7}
    47a8:	00000180 	andeq	r0, r0, r0, lsl #3
    47ac:	00001d78 	andeq	r1, r0, r8, ror sp
    47b0:	0025c027 	eoreq	ip, r5, r7, lsr #32
    47b4:	0025e0f0 	strdeq	lr, [r5], -r0	; <UNPREDICTABLE>
    47b8:	01891ef0 	strdeq	r1, [r9, r0]
    47bc:	1d8b0000 	stcne	0, cr0, [fp]
    47c0:	00000000 	andeq	r0, r0, r0
    47c4:	00019426 	andeq	r9, r1, r6, lsr #8
    47c8:	0025fc00 	eoreq	pc, r5, r0, lsl #24
    47cc:	00260cf0 	strdeq	r0, [r6], -r0	; <UNPREDICTABLE>
    47d0:	01a901f0 	strdeq	r0, [r9, r0]!	; <UNPREDICTABLE>
    47d4:	000007bb 			; <UNDEFINED> instruction: 0x000007bb
    47d8:	0001b01c 	andeq	fp, r1, ip, lsl r0
    47dc:	001db600 	andseq	fp, sp, r0, lsl #12
    47e0:	01a51c00 			; <UNDEFINED> instruction: 0x01a51c00
    47e4:	1dc90000 	stclne	0, cr0, [r9]
    47e8:	fc270000 	stc2	0, cr0, [r7], #-0
    47ec:	0cf00025 	ldcleq	0, cr0, [r0], #148	; 0x94
    47f0:	1ef00026 	cdpne	0, 15, cr0, cr0, cr6, {1}
    47f4:	000001bb 			; <UNDEFINED> instruction: 0x000001bb
    47f8:	00001de7 	andeq	r1, r0, r7, ror #27
    47fc:	6f260000 	svcvs	0x00260000
    4800:	58000001 	stmdapl	r0, {r0}
    4804:	78f00026 	ldmvc	r0!, {r1, r2, r5}^
    4808:	01f00026 	mvnseq	r0, r6, lsr #32
    480c:	07ea019c 			; <UNDEFINED> instruction: 0x07ea019c
    4810:	80290000 	eorhi	r0, r9, r0
    4814:	01000001 	tsteq	r0, r1
    4818:	26582756 			; <UNDEFINED> instruction: 0x26582756
    481c:	2678f000 	ldrbtcs	pc, [r8], -r0	; <UNPREDICTABLE>
    4820:	891ef000 	ldmdbhi	lr, {ip, sp, lr, pc}
    4824:	fa000001 	blx	4830 <__standby_start+0x4830>
    4828:	0000001d 	andeq	r0, r0, sp, lsl r0
    482c:	01942a00 	orrseq	r2, r4, r0, lsl #20
    4830:	26940000 	ldrcs	r0, [r4], r0
    4834:	26a4f000 	strtcs	pc, [r4], r0
    4838:	9e01f000 	cdpls	0, 0, cr15, cr1, cr0, {0}
    483c:	01b01c01 	lslseq	r1, r1, #24
    4840:	1e250000 	cdpne	0, 2, cr0, cr5, cr0, {0}
    4844:	a51c0000 	ldrge	r0, [ip, #-0]
    4848:	38000001 	stmdacc	r0, {r0}
    484c:	2700001e 	smladcs	r0, lr, r0, r0
    4850:	f0002694 			; <UNDEFINED> instruction: 0xf0002694
    4854:	f00026a4 			; <UNDEFINED> instruction: 0xf00026a4
    4858:	0001bb1e 	andeq	fp, r1, lr, lsl fp
    485c:	001e5600 	andseq	r5, lr, r0, lsl #12
    4860:	00000000 	andeq	r0, r0, r0
    4864:	0000e011 	andeq	lr, r0, r1, lsl r0
    4868:	00083100 	andeq	r3, r8, r0, lsl #2
    486c:	00531200 	subseq	r1, r3, r0, lsl #4
    4870:	00ff0000 	rscseq	r0, pc, r0
    4874:	001cae1a 	andseq	sl, ip, sl, lsl lr
    4878:	01030100 	mrseq	r0, (UNDEF: 19)
    487c:	00000821 	andeq	r0, r0, r1, lsr #16
    4880:	3d840305 	stccc	3, cr0, [r4, #20]
    4884:	f600f000 			; <UNDEFINED> instruction: 0xf600f000
    4888:	02000000 	andeq	r0, r0, #0
    488c:	00133700 	andseq	r3, r3, r0, lsl #14
    4890:	fd010400 	stc2	4, cr0, [r1, #-0]
    4894:	01000003 	tsteq	r0, r3
    4898:	00001da4 	andeq	r1, r0, r4, lsr #27
    489c:	00000535 	andeq	r0, r0, r5, lsr r5
    48a0:	f000288c 			; <UNDEFINED> instruction: 0xf000288c
    48a4:	f00028e4 			; <UNDEFINED> instruction: 0xf00028e4
    48a8:	00001177 	andeq	r1, r0, r7, ror r1
    48ac:	af060102 	svcge	0x00060102
    48b0:	02000007 	andeq	r0, r0, #7
    48b4:	07ad0801 	streq	r0, [sp, r1, lsl #16]!
    48b8:	02020000 	andeq	r0, r2, #0
    48bc:	00066805 	andeq	r6, r6, r5, lsl #16
    48c0:	07020200 	streq	r0, [r2, -r0, lsl #4]
    48c4:	0000087f 	andeq	r0, r0, pc, ror r8
    48c8:	000e4e03 	andeq	r4, lr, r3, lsl #28
    48cc:	4c120200 	lfmmi	f0, 4, [r2], {-0}
    48d0:	04000000 	streq	r0, [r0], #-0
    48d4:	6e690504 	cdpvs	5, 6, cr0, cr9, cr4, {0}
    48d8:	43030074 	movwmi	r0, #12404	; 0x3074
    48dc:	02000004 	andeq	r0, r0, #4
    48e0:	00005e13 	andeq	r5, r0, r3, lsl lr
    48e4:	07040200 	streq	r0, [r4, -r0, lsl #4]
    48e8:	00000254 	andeq	r0, r0, r4, asr r2
    48ec:	7d050802 	stcvc	8, cr0, [r5, #-8]
    48f0:	02000004 	andeq	r0, r0, #4
    48f4:	024a0708 	subeq	r0, sl, #2097152	; 0x200000
    48f8:	01020000 	mrseq	r0, (UNDEF: 2)
    48fc:	0007b608 	andeq	fp, r7, r8, lsl #12
    4900:	07040200 	streq	r0, [r4, -r0, lsl #4]
    4904:	0000024f 	andeq	r0, r0, pc, asr #4
    4908:	1d6b0105 	stfnee	f0, [fp, #-20]!	; 0xffffffec
    490c:	03010000 	movweq	r0, #4096	; 0x1000
    4910:	00288c01 	eoreq	r8, r8, r1, lsl #24
    4914:	002898f0 	strdeq	r9, [r8], -r0	; <UNPREDICTABLE>
    4918:	007d02f0 	ldrshteq	r0, [sp], #-32	; 0xffffffe0
    491c:	1d900106 	ldfnes	f0, [r0, #24]
    4920:	08010000 	stmdaeq	r1, {}	; <UNPREDICTABLE>
    4924:	00005301 	andeq	r5, r0, r1, lsl #6
    4928:	00289800 	eoreq	r9, r8, r0, lsl #16
    492c:	0028e4f0 	strdeq	lr, [r8], -r0	; <UNPREDICTABLE>
    4930:	007d02f0 	ldrshteq	r0, [sp], #-32	; 0xffffffe0
    4934:	001d8707 	andseq	r8, sp, r7, lsl #14
    4938:	53080100 	movwpl	r0, #33024	; 0x8100
    493c:	69000000 	stmdbvs	r0, {}	; <UNPREDICTABLE>
    4940:	0700001e 	smladeq	r0, lr, r0, r0
    4944:	00001d7e 	andeq	r1, r0, lr, ror sp
    4948:	00530801 	subseq	r0, r3, r1, lsl #16
    494c:	1e7c0000 	cdpne	0, 7, cr0, cr12, cr0, {0}
    4950:	9d080000 	stcls	0, cr0, [r8, #-0]
    4954:	0100001d 	tsteq	r0, sp, lsl r0
    4958:	0000530a 	andeq	r5, r0, sl, lsl #6
    495c:	001e8f00 	andseq	r8, lr, r0, lsl #30
    4960:	1d760800 	ldclne	8, cr0, [r6, #-0]
    4964:	0b010000 	bleq	4496c <__standby_start+0x4496c>
    4968:	00000053 	andeq	r0, r0, r3, asr r0
    496c:	00001ec7 	andeq	r1, r0, r7, asr #29
    4970:	00140108 	andseq	r0, r4, r8, lsl #2
    4974:	410c0100 	mrsmi	r0, (UNDEF: 28)
    4978:	f1000000 	cps	#0
    497c:	0000001e 	andeq	r0, r0, lr, lsl r0
    4980:	0002cd00 	andeq	ip, r2, r0, lsl #26
    4984:	b8000200 	stmdalt	r0, {r9}
    4988:	04000013 	streq	r0, [r0], #-19
    498c:	0003fd01 	andeq	pc, r3, r1, lsl #26
    4990:	1dd60100 	ldfnee	f0, [r6]
    4994:	05350000 	ldreq	r0, [r5, #-0]!
    4998:	28e40000 	stmiacs	r4!, {}^	; <UNPREDICTABLE>
    499c:	2a80f000 	bcs	fe0409a4 <__bss_end+0xe03c8a4>
    49a0:	11fff000 	mvnsne	pc, r0
    49a4:	01020000 	mrseq	r0, (UNDEF: 2)
    49a8:	0007af06 	andeq	sl, r7, r6, lsl #30
    49ac:	08010200 	stmdaeq	r1, {r9}
    49b0:	000007ad 	andeq	r0, r0, sp, lsr #15
    49b4:	68050202 	stmdavs	r5, {r1, r9}
    49b8:	02000006 	andeq	r0, r0, #6
    49bc:	087f0702 	ldmdaeq	pc!, {r1, r8, r9, sl}^	; <UNPREDICTABLE>
    49c0:	4e030000 	cdpmi	0, 0, cr0, cr3, cr0, {0}
    49c4:	0200000e 	andeq	r0, r0, #14
    49c8:	00004c12 	andeq	r4, r0, r2, lsl ip
    49cc:	05040400 	streq	r0, [r4, #-1024]	; 0x400
    49d0:	00746e69 	rsbseq	r6, r4, r9, ror #28
    49d4:	00044303 	andeq	r4, r4, r3, lsl #6
    49d8:	5e130200 	cdppl	2, 1, cr0, cr3, cr0, {0}
    49dc:	02000000 	andeq	r0, r0, #0
    49e0:	02540704 	subseq	r0, r4, #1048576	; 0x100000
    49e4:	08020000 	stmdaeq	r2, {}	; <UNPREDICTABLE>
    49e8:	00047d05 	andeq	r7, r4, r5, lsl #26
    49ec:	07080200 	streq	r0, [r8, -r0, lsl #4]
    49f0:	0000024a 	andeq	r0, r0, sl, asr #4
    49f4:	00005305 	andeq	r5, r0, r5, lsl #6
    49f8:	06550600 	ldrbeq	r0, [r5], -r0, lsl #12
    49fc:	03040000 	movweq	r0, #16384	; 0x4000
    4a00:	00012918 	andeq	r2, r1, r8, lsl r9
    4a04:	01d30700 	bicseq	r0, r3, r0, lsl #14
    4a08:	07320000 	ldreq	r0, [r2, -r0]!
    4a0c:	000001e5 	andeq	r0, r0, r5, ror #3
    4a10:	06150733 			; <UNDEFINED> instruction: 0x06150733
    4a14:	07000000 	streq	r0, [r0, -r0]
    4a18:	000006c8 	andeq	r0, r0, r8, asr #13
    4a1c:	310700ca 	smlabtcc	r7, sl, r0, r0
    4a20:	c0000002 	andgt	r0, r0, r2
    4a24:	05c80700 	strbeq	r0, [r8, #1792]	; 0x700
    4a28:	00d10000 	sbcseq	r0, r1, r0
    4a2c:	00000d07 	andeq	r0, r0, r7, lsl #26
    4a30:	cb070000 	blgt	1c4a38 <__standby_start+0x1c4a38>
    4a34:	00000002 	andeq	r0, r0, r2
    4a38:	0002da07 	andeq	sp, r2, r7, lsl #20
    4a3c:	be070000 	cdplt	0, 0, cr0, cr7, cr0, {0}
    4a40:	e7000000 	str	r0, [r0, -r0]
    4a44:	04d50700 	ldrbeq	r0, [r5], #1792	; 0x700
    4a48:	00e80000 	rsceq	r0, r8, r0
    4a4c:	0004e907 	andeq	lr, r4, r7, lsl #18
    4a50:	0700ea00 	streq	lr, [r0, -r0, lsl #20]
    4a54:	000004fd 	strdeq	r0, [r0], -sp
    4a58:	003d0700 	eorseq	r0, sp, r0, lsl #14
    4a5c:	00e90000 	rsceq	r0, r9, r0
    4a60:	00005107 	andeq	r5, r0, r7, lsl #2
    4a64:	65070000 	strvs	r0, [r7, #-0]
    4a68:	00000000 	andeq	r0, r0, r0
    4a6c:	00011307 	andeq	r1, r1, r7, lsl #6
    4a70:	24070000 	strcs	r0, [r7], #-0
    4a74:	2f000001 	svccs	0x00000001
    4a78:	00013507 	andeq	r3, r1, r7, lsl #10
    4a7c:	46070000 	strmi	r0, [r7], -r0
    4a80:	00000001 	andeq	r0, r0, r1
    4a84:	00015707 	andeq	r5, r1, r7, lsl #14
    4a88:	68070000 	stmdavs	r7, {}	; <UNPREDICTABLE>
    4a8c:	00000001 	andeq	r0, r0, r1
    4a90:	00017907 	andeq	r7, r1, r7, lsl #18
    4a94:	8a073100 	bhi	1d0e9c <__standby_start+0x1d0e9c>
    4a98:	84000001 	strhi	r0, [r0], #-1
    4a9c:	019b0701 	orrseq	r0, fp, r1, lsl #14
    4aa0:	07000000 	streq	r0, [r0, -r0]
    4aa4:	000001ac 	andeq	r0, r0, ip, lsr #3
    4aa8:	77060000 	strvc	r0, [r6, -r0]
    4aac:	04000008 	streq	r0, [r0], #-8
    4ab0:	01968904 	orrseq	r8, r6, r4, lsl #18
    4ab4:	af070000 	svcge	0x00070000
    4ab8:	00000006 	andeq	r0, r0, r6
    4abc:	00033d07 	andeq	r3, r3, r7, lsl #26
    4ac0:	68070100 	stmdavs	r7, {r8}
    4ac4:	02000007 	andeq	r0, r0, #7
    4ac8:	00033107 	andeq	r3, r3, r7, lsl #2
    4acc:	37070300 	strcc	r0, [r7, -r0, lsl #6]
    4ad0:	04000004 	streq	r0, [r0], #-4
    4ad4:	0006bc07 	andeq	fp, r6, r7, lsl #24
    4ad8:	f0070500 			; <UNDEFINED> instruction: 0xf0070500
    4adc:	06000003 	streq	r0, [r0], -r3
    4ae0:	00086107 	andeq	r6, r8, r7, lsl #2
    4ae4:	6a070700 	bvs	1c66ec <__standby_start+0x1c66ec>
    4ae8:	08000004 	stmdaeq	r0, {r2}
    4aec:	00090207 	andeq	r0, r9, r7, lsl #4
    4af0:	4a070900 	bmi	1c6ef8 <__standby_start+0x1c6ef8>
    4af4:	0a000006 	beq	4b14 <__standby_start+0x4b14>
    4af8:	00067207 	andeq	r7, r6, r7, lsl #4
    4afc:	71070b00 	tstvc	r7, r0, lsl #22
    4b00:	0c000008 	stceq	0, cr0, [r0], {8}
    4b04:	0007c207 	andeq	ip, r7, r7, lsl #4
    4b08:	29070d00 	stmdbcs	r7, {r8, sl, fp}
    4b0c:	0e000006 	cdpeq	0, 0, cr0, cr0, cr6, {0}
    4b10:	00080007 	andeq	r0, r8, r7
    4b14:	02000f00 	andeq	r0, r0, #0
    4b18:	07b60801 	ldreq	r0, [r6, r1, lsl #16]!
    4b1c:	04020000 	streq	r0, [r2], #-0
    4b20:	00024f07 	andeq	r4, r2, r7, lsl #30
    4b24:	09040800 	stmdbeq	r4, {fp}
    4b28:	001e1801 	andseq	r1, lr, r1, lsl #16
    4b2c:	01220100 	teqeq	r2, r0, lsl #2
    4b30:	00000041 	andeq	r0, r0, r1, asr #32
    4b34:	f00028e4 			; <UNDEFINED> instruction: 0xf00028e4
    4b38:	f0002974 			; <UNDEFINED> instruction: 0xf0002974
    4b3c:	00001f1b 	andeq	r1, r0, fp, lsl pc
    4b40:	000001d1 	ldrdeq	r0, [r0], -r1
    4b44:	0100690a 	tsteq	r0, sl, lsl #18
    4b48:	00005324 	andeq	r5, r0, r4, lsr #6
    4b4c:	001f3b00 	andseq	r3, pc, r0, lsl #22
    4b50:	01090000 	mrseq	r0, (UNDEF: 9)
    4b54:	00001e0b 	andeq	r1, r0, fp, lsl #28
    4b58:	41015701 	tstmi	r1, r1, lsl #14
    4b5c:	74000000 	strvc	r0, [r0], #-0
    4b60:	c8f00029 	ldmgt	r0!, {r0, r3, r5}^
    4b64:	5af00029 	bpl	ffc04c10 <__bss_end+0xfc00b10>
    4b68:	0b00001f 	bleq	4bec <__standby_start+0x4bec>
    4b6c:	0a000002 	beq	4b7c <__standby_start+0x4b7c>
    4b70:	59010069 	stmdbpl	r1, {r0, r3, r5, r6}
    4b74:	0000004c 	andeq	r0, r0, ip, asr #32
    4b78:	00001f7a 	andeq	r1, r0, sl, ror pc
    4b7c:	001e3d0b 	andseq	r3, lr, fp, lsl #26
    4b80:	735a0100 	cmpvc	sl, #0
    4b84:	99000000 	stmdbls	r0, {}	; <UNPREDICTABLE>
    4b88:	0000001f 	andeq	r0, r0, pc, lsl r0
    4b8c:	1e25010c 	sufnes	f0, f5, #4.0
    4b90:	71010000 	mrsvc	r0, (UNDEF: 1)
    4b94:	00004101 	andeq	r4, r0, r1, lsl #2
    4b98:	0029c800 	eoreq	ip, r9, r0, lsl #16
    4b9c:	002a24f0 	strdeq	r2, [sl], -r0	; <UNPREDICTABLE>
    4ba0:	007d02f0 	ldrshteq	r0, [sp], #-32	; 0xffffffe0
    4ba4:	00000255 	andeq	r0, r0, r5, asr r2
    4ba8:	6372730d 	cmnvs	r2, #872415232	; 0x34000000
    4bac:	78710100 	ldmdavc	r1!, {r8}^
    4bb0:	c4000000 	strgt	r0, [r0], #-0
    4bb4:	0b00001f 	bleq	4c38 <__standby_start+0x4c38>
    4bb8:	00001e66 	andeq	r1, r0, r6, ror #28
    4bbc:	00537301 	subseq	r7, r3, r1, lsl #6
    4bc0:	1fe20000 	svcne	0x00e20000
    4bc4:	480b0000 	stmdami	fp, {}	; <UNPREDICTABLE>
    4bc8:	0100001e 	tsteq	r0, lr, lsl r0
    4bcc:	00005374 	andeq	r5, r0, r4, ror r3
    4bd0:	00201500 	eoreq	r1, r0, r0, lsl #10
    4bd4:	010c0000 	mrseq	r0, (UNDEF: 12)
    4bd8:	00001e58 	andeq	r1, r0, r8, asr lr
    4bdc:	41019301 	tstmi	r1, r1, lsl #6
    4be0:	24000000 	strcs	r0, [r0], #-0
    4be4:	80f0002a 	rscshi	r0, r0, sl, lsr #32
    4be8:	02f0002a 	rscseq	r0, r0, #42	; 0x2a
    4bec:	02ae007d 	adceq	r0, lr, #125	; 0x7d
    4bf0:	730d0000 	movwvc	r0, #53248	; 0xd000
    4bf4:	01006372 	tsteq	r0, r2, ror r3
    4bf8:	00007893 	muleq	r0, r3, r8
    4bfc:	00204600 	eoreq	r4, r0, r0, lsl #12
    4c00:	1e040b00 	vmlane.f64	d0, d4, d0
    4c04:	95010000 	strls	r0, [r1, #-0]
    4c08:	00000041 	andeq	r0, r0, r1, asr #32
    4c0c:	00002064 	andeq	r2, r0, r4, rrx
    4c10:	001e660b 	andseq	r6, lr, fp, lsl #12
    4c14:	53960100 	orrspl	r0, r6, #0
    4c18:	84000000 	strhi	r0, [r0], #-0
    4c1c:	0b000020 	bleq	4ca4 <__standby_start+0x4ca4>
    4c20:	00001e48 	andeq	r1, r0, r8, asr #28
    4c24:	00539701 	subseq	r9, r3, r1, lsl #14
    4c28:	20c30000 	sbccs	r0, r3, r0
    4c2c:	0e000000 	cdpeq	0, 0, cr0, cr0, cr0, {0}
    4c30:	00001e4f 	andeq	r1, r0, pc, asr #28
    4c34:	01a41401 			; <UNDEFINED> instruction: 0x01a41401
    4c38:	03050000 	movweq	r0, #20480	; 0x5000
    4c3c:	f0003e84 			; <UNDEFINED> instruction: 0xf0003e84
    4c40:	001e340e 	andseq	r3, lr, lr, lsl #8
    4c44:	a4150100 	ldrge	r0, [r5], #-256	; 0x100
    4c48:	05000001 	streq	r0, [r0, #-1]
    4c4c:	003e8803 	eorseq	r8, lr, r3, lsl #16
    4c50:	016600f0 	strdeq	r0, [r6, #-0]!
    4c54:	00020000 	andeq	r0, r2, r0
    4c58:	00001483 	andeq	r1, r0, r3, lsl #9
    4c5c:	03fd0104 	mvnseq	r0, #1
    4c60:	7e010000 	cdpvc	0, 0, cr0, cr1, cr0, {0}
    4c64:	3500001e 	strcc	r0, [r0, #-30]
    4c68:	80000005 	andhi	r0, r0, r5
    4c6c:	20f0002a 	rscscs	r0, r0, sl, lsr #32
    4c70:	26f0002b 	ldrbtcs	r0, [r0], fp, lsr #32
    4c74:	02000013 	andeq	r0, r0, #19
    4c78:	07af0601 	streq	r0, [pc, r1, lsl #12]!
    4c7c:	01020000 	mrseq	r0, (UNDEF: 2)
    4c80:	0007ad08 	andeq	sl, r7, r8, lsl #26
    4c84:	05020200 	streq	r0, [r2, #-512]	; 0x200
    4c88:	00000668 	andeq	r0, r0, r8, ror #12
    4c8c:	7f070202 	svcvc	0x00070202
    4c90:	03000008 	movweq	r0, #8
    4c94:	00000e4e 	andeq	r0, r0, lr, asr #28
    4c98:	004c1202 	subeq	r1, ip, r2, lsl #4
    4c9c:	04040000 	streq	r0, [r4], #-0
    4ca0:	746e6905 	strbtvc	r6, [lr], #-2309	; 0x905
    4ca4:	04430300 	strbeq	r0, [r3], #-768	; 0x300
    4ca8:	13020000 	movwne	r0, #8192	; 0x2000
    4cac:	0000005e 	andeq	r0, r0, lr, asr r0
    4cb0:	54070402 	strpl	r0, [r7], #-1026	; 0x402
    4cb4:	02000002 	andeq	r0, r0, #2
    4cb8:	047d0508 	ldrbteq	r0, [sp], #-1288	; 0x508
    4cbc:	08020000 	stmdaeq	r2, {}	; <UNPREDICTABLE>
    4cc0:	00024a07 	andeq	r4, r2, r7, lsl #20
    4cc4:	1eae0500 	cdpne	5, 10, cr0, cr14, cr0, {0}
    4cc8:	03200000 	teqeq	r0, #0
    4ccc:	008f1603 	addeq	r1, pc, r3, lsl #12
    4cd0:	d9060000 	stmdble	r6, {}	; <UNPREDICTABLE>
    4cd4:	0300001e 	movweq	r0, #30
    4cd8:	00008f17 	andeq	r8, r0, r7, lsl pc
    4cdc:	00230200 	eoreq	r0, r3, r0, lsl #4
    4ce0:	00530700 	subseq	r0, r3, r0, lsl #14
    4ce4:	009f0000 	addseq	r0, pc, r0
    4ce8:	5e080000 	cdppl	0, 0, cr0, cr8, cr0, {0}
    4cec:	c7000000 	strgt	r0, [r0, -r0]
    4cf0:	08010200 	stmdaeq	r1, {r9}
    4cf4:	000007b6 			; <UNDEFINED> instruction: 0x000007b6
    4cf8:	4f070402 	svcmi	0x00070402
    4cfc:	09000002 	stmdbeq	r0, {r1}
    4d00:	001ee701 	andseq	lr, lr, r1, lsl #14
    4d04:	010f0100 	mrseq	r0, (UNDEF: 31)
    4d08:	00000041 	andeq	r0, r0, r1, asr #32
    4d0c:	f0002a80 			; <UNDEFINED> instruction: 0xf0002a80
    4d10:	f0002aac 			; <UNDEFINED> instruction: 0xf0002aac
    4d14:	e6007d02 	str	r7, [r0], -r2, lsl #26
    4d18:	0a000000 	beq	4d20 <__standby_start+0x4d20>
    4d1c:	00001ead 	andeq	r1, r0, sp, lsr #29
    4d20:	00e60f01 	rsceq	r0, r6, r1, lsl #30
    4d24:	20f40000 	rscscs	r0, r4, r0
    4d28:	690b0000 	stmdbvs	fp, {}	; <UNPREDICTABLE>
    4d2c:	4c110100 	ldfmis	f0, [r1], {-0}
    4d30:	14000000 	strne	r0, [r0], #-0
    4d34:	00000021 	andeq	r0, r0, r1, lsr #32
    4d38:	0073040c 	rsbseq	r0, r3, ip, lsl #8
    4d3c:	01090000 	mrseq	r0, (UNDEF: 9)
    4d40:	00001e6d 	andeq	r1, r0, sp, ror #28
    4d44:	41012501 	tstmi	r1, r1, lsl #10
    4d48:	ac000000 	stcge	0, cr0, [r0], {-0}
    4d4c:	d8f0002a 	ldmle	r0!, {r1, r3, r5}^
    4d50:	02f0002a 	rscseq	r0, r0, #42	; 0x2a
    4d54:	0125007d 	teqeq	r5, sp, ror r0
    4d58:	ad0a0000 	stcge	0, cr0, [sl, #-0]
    4d5c:	0100001e 	tsteq	r0, lr, lsl r0
    4d60:	0000e625 	andeq	lr, r0, r5, lsr #12
    4d64:	00212800 	eoreq	r2, r1, r0, lsl #16
    4d68:	00690b00 	rsbeq	r0, r9, r0, lsl #22
    4d6c:	004c2701 	subeq	r2, ip, r1, lsl #14
    4d70:	21480000 	mrscs	r0, (UNDEF: 72)
    4d74:	0d000000 	stceq	0, cr0, [r0, #-0]
    4d78:	001eb901 	andseq	fp, lr, r1, lsl #18
    4d7c:	01390100 	teqeq	r9, r0, lsl #2
    4d80:	f0002ad8 			; <UNDEFINED> instruction: 0xf0002ad8
    4d84:	f0002b20 			; <UNDEFINED> instruction: 0xf0002b20
    4d88:	0a007d02 	beq	24198 <__standby_start+0x24198>
    4d8c:	00001bd3 	ldrdeq	r1, [r0], -r3
    4d90:	00533901 	subseq	r3, r3, r1, lsl #18
    4d94:	215c0000 	cmpcs	ip, r0
    4d98:	c90e0000 	stmdbgt	lr, {}	; <UNPREDICTABLE>
    4d9c:	0100001e 	tsteq	r0, lr, lsl r0
    4da0:	0000533b 	andeq	r5, r0, fp, lsr r3
    4da4:	8c030500 	cfstr32hi	mvfx0, [r3], {-0}
    4da8:	0ff0003e 	svceq	0x00f0003e
    4dac:	00001ef5 	strdeq	r1, [r0], -r5
    4db0:	00533c01 	subseq	r3, r3, r1, lsl #24
    4db4:	216f0000 	cmncs	pc, r0
    4db8:	00000000 	andeq	r0, r0, r0
    4dbc:	00000488 	andeq	r0, r0, r8, lsl #9
    4dc0:	155d0002 	ldrbne	r0, [sp, #-2]
    4dc4:	01040000 	mrseq	r0, (UNDEF: 4)
    4dc8:	000003fd 	strdeq	r0, [r0], -sp
    4dcc:	0020f001 	eoreq	pc, r0, r1
    4dd0:	00053500 	andeq	r3, r5, r0, lsl #10
    4dd4:	002b2000 	eoreq	r2, fp, r0
    4dd8:	002d08f0 	strdeq	r0, [sp], -r0	; <UNPREDICTABLE>
    4ddc:	0013d4f0 			; <UNDEFINED> instruction: 0x0013d4f0
    4de0:	06010200 	streq	r0, [r1], -r0, lsl #4
    4de4:	000007af 	andeq	r0, r0, pc, lsr #15
    4de8:	ad080102 	stfges	f0, [r8, #-8]
    4dec:	02000007 	andeq	r0, r0, #7
    4df0:	06680502 	strbteq	r0, [r8], -r2, lsl #10
    4df4:	02020000 	andeq	r0, r2, #0
    4df8:	00087f07 	andeq	r7, r8, r7, lsl #30
    4dfc:	0e4e0300 	cdpeq	3, 4, cr0, cr14, cr0, {0}
    4e00:	12020000 	andne	r0, r2, #0
    4e04:	0000004c 	andeq	r0, r0, ip, asr #32
    4e08:	69050404 	stmdbvs	r5, {r2, sl}
    4e0c:	0300746e 	movweq	r7, #1134	; 0x46e
    4e10:	00000443 	andeq	r0, r0, r3, asr #8
    4e14:	005e1302 	subseq	r1, lr, r2, lsl #6
    4e18:	04020000 	streq	r0, [r2], #-0
    4e1c:	00025407 	andeq	r5, r2, r7, lsl #8
    4e20:	05080200 	streq	r0, [r8, #-512]	; 0x200
    4e24:	0000047d 	andeq	r0, r0, sp, ror r4
    4e28:	4a070802 	bmi	1c6e38 <__standby_start+0x1c6e38>
    4e2c:	05000002 	streq	r0, [r0, #-2]
    4e30:	00000053 	andeq	r0, r0, r3, asr r0
    4e34:	00005306 	andeq	r5, r0, r6, lsl #6
    4e38:	00008800 	andeq	r8, r0, r0, lsl #16
    4e3c:	005e0700 	subseq	r0, lr, r0, lsl #14
    4e40:	00010000 	andeq	r0, r1, r0
    4e44:	00005306 	andeq	r5, r0, r6, lsl #6
    4e48:	00009800 	andeq	r9, r0, r0, lsl #16
    4e4c:	005e0700 	subseq	r0, lr, r0, lsl #14
    4e50:	00030000 	andeq	r0, r3, r0
    4e54:	00205f08 	eoreq	r5, r0, r8, lsl #30
    4e58:	1503bc00 	strne	fp, [r3, #-3072]	; 0xc00
    4e5c:	000002b6 			; <UNDEFINED> instruction: 0x000002b6
    4e60:	001f2009 	andseq	r2, pc, r9
    4e64:	73180300 	tstvc	r8, #0
    4e68:	02000000 	andeq	r0, r0, #0
    4e6c:	bd090023 	stclt	0, cr0, [r9, #-140]	; 0xffffff74
    4e70:	03000020 	movweq	r0, #32
    4e74:	00007319 	andeq	r7, r0, r9, lsl r3
    4e78:	04230200 	strteq	r0, [r3], #-512	; 0x200
    4e7c:	000ed909 	andeq	sp, lr, r9, lsl #18
    4e80:	b61a0300 	ldrlt	r0, [sl], -r0, lsl #6
    4e84:	02000002 	andeq	r0, r0, #2
    4e88:	30090823 	andcc	r0, r9, r3, lsr #16
    4e8c:	03000021 	movweq	r0, #33	; 0x21
    4e90:	0000731c 	andeq	r7, r0, ip, lsl r3
    4e94:	10230200 	eorne	r0, r3, r0, lsl #4
    4e98:	001f2709 	andseq	r2, pc, r9, lsl #14
    4e9c:	731d0300 	tstvc	sp, #0
    4ea0:	02000000 	andeq	r0, r0, #0
    4ea4:	55091423 	strpl	r1, [r9, #-1059]	; 0x423
    4ea8:	0300001f 	movweq	r0, #31
    4eac:	0000731e 	andeq	r7, r0, lr, lsl r3
    4eb0:	18230200 	stmdane	r3!, {r9}
    4eb4:	000ee309 	andeq	lr, lr, r9, lsl #6
    4eb8:	731f0300 	tstvc	pc, #0
    4ebc:	02000000 	andeq	r0, r0, #0
    4ec0:	4d091c23 	stcmi	12, cr1, [r9, #-140]	; 0xffffff74
    4ec4:	0300001f 	movweq	r0, #31
    4ec8:	00007321 	andeq	r7, r0, r1, lsr #6
    4ecc:	20230200 	eorcs	r0, r3, r0, lsl #4
    4ed0:	00209109 	eoreq	r9, r0, r9, lsl #2
    4ed4:	73220300 	teqvc	r2, #0
    4ed8:	02000000 	andeq	r0, r0, #0
    4edc:	c4092423 	strgt	r2, [r9], #-1059	; 0x423
    4ee0:	03000020 	movweq	r0, #32
    4ee4:	00007323 	andeq	r7, r0, r3, lsr #6
    4ee8:	28230200 	stmdacs	r3!, {r9}
    4eec:	000eed09 	andeq	lr, lr, r9, lsl #26
    4ef0:	73240300 	teqvc	r4, #0
    4ef4:	02000000 	andeq	r0, r0, #0
    4ef8:	e9092c23 	stmdb	r9, {r0, r1, r5, sl, fp, sp}
    4efc:	0300001f 	movweq	r0, #31
    4f00:	00007326 	andeq	r7, r0, r6, lsr #6
    4f04:	30230200 	eorcc	r0, r3, r0, lsl #4
    4f08:	001f6809 	andseq	r6, pc, r9, lsl #16
    4f0c:	73270300 	teqvc	r7, #0
    4f10:	02000000 	andeq	r0, r0, #0
    4f14:	83093423 	movwhi	r3, #37923	; 0x9423
    4f18:	0300001f 	movweq	r0, #31
    4f1c:	00007328 	andeq	r7, r0, r8, lsr #6
    4f20:	38230200 	stmdacc	r3!, {r9}
    4f24:	000ef709 	andeq	pc, lr, r9, lsl #14
    4f28:	73290300 	teqvc	r9, #0
    4f2c:	02000000 	andeq	r0, r0, #0
    4f30:	ae093c23 	cdpge	12, 0, cr3, cr9, cr3, {1}
    4f34:	03000020 	movweq	r0, #32
    4f38:	0000732b 	andeq	r7, r0, fp, lsr #6
    4f3c:	40230200 	eormi	r0, r3, r0, lsl #4
    4f40:	0020cf09 	eoreq	ip, r0, r9, lsl #30
    4f44:	732c0300 	teqvc	ip, #0
    4f48:	02000000 	andeq	r0, r0, #0
    4f4c:	01094423 	tsteq	r9, r3, lsr #8
    4f50:	0300000f 	movweq	r0, #15
    4f54:	0002bb2d 	andeq	fp, r2, sp, lsr #22
    4f58:	48230200 	stmdami	r3!, {r9}
    4f5c:	00213809 	eoreq	r3, r1, r9, lsl #16
    4f60:	732f0300 	teqvc	pc, #0
    4f64:	02000000 	andeq	r0, r0, #0
    4f68:	b0095023 	andlt	r5, r9, r3, lsr #32
    4f6c:	0300001f 	movweq	r0, #31
    4f70:	00007330 	andeq	r7, r0, r0, lsr r3
    4f74:	54230200 	strtpl	r0, [r3], #-512	; 0x200
    4f78:	001fbb09 	andseq	fp, pc, r9, lsl #22
    4f7c:	73310300 	teqvc	r1, #0
    4f80:	02000000 	andeq	r0, r0, #0
    4f84:	0b095823 	bleq	25b018 <__standby_start+0x25b018>
    4f88:	0300000f 	movweq	r0, #15
    4f8c:	00007332 	andeq	r7, r0, r2, lsr r3
    4f90:	5c230200 	sfmpl	f0, 4, [r3], #-0
    4f94:	001f6009 	andseq	r6, pc, r9
    4f98:	73340300 	teqvc	r4, #0
    4f9c:	02000000 	andeq	r0, r0, #0
    4fa0:	86096023 	strhi	r6, [r9], -r3, lsr #32
    4fa4:	03000020 	movweq	r0, #32
    4fa8:	00007335 	andeq	r7, r0, r5, lsr r3
    4fac:	64230200 	strtvs	r0, [r3], #-512	; 0x200
    4fb0:	00211e09 	eoreq	r1, r1, r9, lsl #28
    4fb4:	73360300 	teqvc	r6, #0
    4fb8:	02000000 	andeq	r0, r0, #0
    4fbc:	15096823 	strne	r6, [r9, #-2083]	; 0x823
    4fc0:	0300000f 	movweq	r0, #15
    4fc4:	0002d037 	andeq	sp, r2, r7, lsr r0
    4fc8:	6c230200 	sfmvs	f0, 4, [r3], #-0
    4fcc:	0020b609 	eoreq	fp, r0, r9, lsl #12
    4fd0:	73390300 	teqvc	r9, #0
    4fd4:	03000000 	movweq	r0, #0
    4fd8:	09018023 	stmdbeq	r1, {r0, r1, r5, pc}
    4fdc:	000020e8 	andeq	r2, r0, r8, ror #1
    4fe0:	00733a03 	rsbseq	r3, r3, r3, lsl #20
    4fe4:	23030000 	movwcs	r0, #12288	; 0x3000
    4fe8:	18090184 	stmdane	r9, {r2, r7, r8}
    4fec:	0300001f 	movweq	r0, #31
    4ff0:	0000733b 	andeq	r7, r0, fp, lsr r3
    4ff4:	88230300 	stmdahi	r3!, {r8, r9}
    4ff8:	20a70901 	adccs	r0, r7, r1, lsl #18
    4ffc:	3c030000 	stccc	0, cr0, [r3], {-0}
    5000:	00000073 	andeq	r0, r0, r3, ror r0
    5004:	018c2303 	orreq	r2, ip, r3, lsl #6
    5008:	000f1f09 	andeq	r1, pc, r9, lsl #30
    500c:	d53f0300 	ldrle	r0, [pc, #-768]!	; 4d14 <__standby_start+0x4d14>
    5010:	03000002 	movweq	r0, #2
    5014:	09019023 	stmdbeq	r1, {r0, r1, r5, ip, pc}
    5018:	0000203b 	andeq	r2, r0, fp, lsr r0
    501c:	00734203 	rsbseq	r4, r3, r3, lsl #4
    5020:	23030000 	movwcs	r0, #12288	; 0x3000
    5024:	0a0901a0 	beq	2456ac <__standby_start+0x2456ac>
    5028:	0300001f 	movweq	r0, #31
    502c:	00007343 	andeq	r7, r0, r3, asr #6
    5030:	a4230300 	strtge	r0, [r3], #-768	; 0x300
    5034:	1fdf0901 	svcne	0x00df0901
    5038:	44030000 	strmi	r0, [r3], #-0
    503c:	000002da 	ldrdeq	r0, [r0], -sl
    5040:	01a82303 			; <UNDEFINED> instruction: 0x01a82303
    5044:	001f3209 	andseq	r3, pc, r9, lsl #4
    5048:	73470300 	movtvc	r0, #29440	; 0x7300
    504c:	03000000 	movweq	r0, #0
    5050:	0901b023 	stmdbeq	r1, {r0, r1, r5, ip, sp, pc}
    5054:	000020da 	ldrdeq	r2, [r0], -sl
    5058:	00734803 	rsbseq	r4, r3, r3, lsl #16
    505c:	23030000 	movwcs	r0, #12288	; 0x3000
    5060:	f10901b4 			; <UNDEFINED> instruction: 0xf10901b4
    5064:	0300001f 	movweq	r0, #31
    5068:	00007349 	andeq	r7, r0, r9, asr #6
    506c:	b8230300 	stmdalt	r3!, {r8, r9}
    5070:	78050001 	stmdavc	r5, {r0}
    5074:	05000000 	streq	r0, [r0, #-0]
    5078:	00000078 	andeq	r0, r0, r8, ror r0
    507c:	00005306 	andeq	r5, r0, r6, lsl #6
    5080:	0002d000 	andeq	sp, r2, r0
    5084:	005e0700 	subseq	r0, lr, r0, lsl #14
    5088:	00040000 	andeq	r0, r4, r0
    508c:	0002c005 	andeq	ip, r2, r5
    5090:	00880500 	addeq	r0, r8, r0, lsl #10
    5094:	78050000 	stmdavc	r5, {}	; <UNPREDICTABLE>
    5098:	03000000 	movweq	r0, #0
    509c:	00001f73 	andeq	r1, r0, r3, ror pc
    50a0:	00984b03 	addseq	r4, r8, r3, lsl #22
    50a4:	770a0000 	strvc	r0, [sl, -r0]
    50a8:	04000008 	streq	r0, [r0], #-8
    50ac:	03578904 	cmpeq	r7, #65536	; 0x10000
    50b0:	af0b0000 	svcge	0x000b0000
    50b4:	00000006 	andeq	r0, r0, r6
    50b8:	00033d0b 	andeq	r3, r3, fp, lsl #26
    50bc:	680b0100 	stmdavs	fp, {r8}
    50c0:	02000007 	andeq	r0, r0, #7
    50c4:	0003310b 	andeq	r3, r3, fp, lsl #2
    50c8:	370b0300 	strcc	r0, [fp, -r0, lsl #6]
    50cc:	04000004 	streq	r0, [r0], #-4
    50d0:	0006bc0b 	andeq	fp, r6, fp, lsl #24
    50d4:	f00b0500 			; <UNDEFINED> instruction: 0xf00b0500
    50d8:	06000003 	streq	r0, [r0], -r3
    50dc:	0008610b 	andeq	r6, r8, fp, lsl #2
    50e0:	6a0b0700 	bvs	2c6ce8 <__standby_start+0x2c6ce8>
    50e4:	08000004 	stmdaeq	r0, {r2}
    50e8:	0009020b 	andeq	r0, r9, fp, lsl #4
    50ec:	4a0b0900 	bmi	2c74f4 <__standby_start+0x2c74f4>
    50f0:	0a000006 	beq	5110 <__standby_start+0x5110>
    50f4:	0006720b 	andeq	r7, r6, fp, lsl #4
    50f8:	710b0b00 	tstvc	fp, r0, lsl #22
    50fc:	0c000008 	stceq	0, cr0, [r0], {8}
    5100:	0007c20b 	andeq	ip, r7, fp, lsl #4
    5104:	290b0d00 	stmdbcs	fp, {r8, sl, fp}
    5108:	0e000006 	cdpeq	0, 0, cr0, cr0, cr6, {0}
    510c:	0008000b 	andeq	r0, r8, fp
    5110:	02000f00 	andeq	r0, r0, #0
    5114:	07b60801 	ldreq	r0, [r6, r1, lsl #16]!
    5118:	04020000 	streq	r0, [r2], #-0
    511c:	00024f07 	andeq	r4, r2, r7, lsl #30
    5120:	40010c00 	andmi	r0, r1, r0, lsl #24
    5124:	01000021 	tsteq	r0, r1, lsr #32
    5128:	00410111 	subeq	r0, r1, r1, lsl r1
    512c:	2b200000 	blcs	805134 <__standby_start+0x805134>
    5130:	2b80f000 	blcs	fe041138 <__bss_end+0xe03d038>
    5134:	7d02f000 	stcvc	0, cr15, [r2, #-0]
    5138:	00039100 	andeq	r9, r3, r0, lsl #2
    513c:	209c0d00 	addscs	r0, ip, r0, lsl #26
    5140:	11010000 	mrsne	r0, (UNDEF: 1)
    5144:	00000391 	muleq	r0, r1, r3
    5148:	00002183 	andeq	r2, r0, r3, lsl #3
    514c:	df040e00 	svcle	0x00040e00
    5150:	0c000002 	stceq	0, cr0, [r0], {2}
    5154:	00204f01 	eoreq	r4, r0, r1, lsl #30
    5158:	012f0100 	teqeq	pc, r0, lsl #2
    515c:	00000041 	andeq	r0, r0, r1, asr #32
    5160:	f0002b80 			; <UNDEFINED> instruction: 0xf0002b80
    5164:	f0002bd0 			; <UNDEFINED> instruction: 0xf0002bd0
    5168:	c3007d02 	movwgt	r7, #3330	; 0xd02
    516c:	0d000003 	stceq	0, cr0, [r0, #-12]
    5170:	0000209c 	muleq	r0, ip, r0
    5174:	03912f01 	orrseq	r2, r1, #4
    5178:	21a10000 			; <UNDEFINED> instruction: 0x21a10000
    517c:	0f000000 	svceq	0x00000000
    5180:	00202e01 	eoreq	r2, r0, r1, lsl #28
    5184:	01490100 	mrseq	r0, (UNDEF: 89)
    5188:	00000041 	andeq	r0, r0, r1, asr #32
    518c:	f0002bd0 			; <UNDEFINED> instruction: 0xf0002bd0
    5190:	f0002c08 			; <UNDEFINED> instruction: 0xf0002c08
    5194:	0f007d02 	svceq	0x00007d02
    5198:	001fa301 	andseq	sl, pc, r1, lsl #6
    519c:	01610100 	cmneq	r1, r0, lsl #2
    51a0:	00000041 	andeq	r0, r0, r1, asr #32
    51a4:	f0002c08 			; <UNDEFINED> instruction: 0xf0002c08
    51a8:	f0002c30 			; <UNDEFINED> instruction: 0xf0002c30
    51ac:	10007d02 	andne	r7, r0, r2, lsl #26
    51b0:	00201601 	eoreq	r1, r0, r1, lsl #12
    51b4:	01790100 	cmneq	r9, r0, lsl #2
    51b8:	f0002c30 			; <UNDEFINED> instruction: 0xf0002c30
    51bc:	f0002c78 			; <UNDEFINED> instruction: 0xf0002c78
    51c0:	10007d02 	andne	r7, r0, r2, lsl #26
    51c4:	00206d01 	eoreq	r6, r0, r1, lsl #26
    51c8:	019a0100 	orrseq	r0, sl, r0, lsl #2
    51cc:	f0002c78 			; <UNDEFINED> instruction: 0xf0002c78
    51d0:	f0002cb8 			; <UNDEFINED> instruction: 0xf0002cb8
    51d4:	0c007d02 	stceq	13, cr7, [r0], {2}
    51d8:	001f4101 	andseq	r4, pc, r1, lsl #2
    51dc:	01b50100 			; <UNDEFINED> instruction: 0x01b50100
    51e0:	00000041 	andeq	r0, r0, r1, asr #32
    51e4:	f0002cb8 			; <UNDEFINED> instruction: 0xf0002cb8
    51e8:	f0002d08 			; <UNDEFINED> instruction: 0xf0002d08
    51ec:	47007d02 	strmi	r7, [r0, -r2, lsl #26]
    51f0:	0d000004 	stceq	0, cr0, [r0, #-16]
    51f4:	00002048 	andeq	r2, r0, r8, asr #32
    51f8:	0053b501 	subseq	fp, r3, r1, lsl #10
    51fc:	21bf0000 			; <UNDEFINED> instruction: 0x21bf0000
    5200:	11000000 	mrsne	r0, (UNDEF: 0)
    5204:	00002129 	andeq	r2, r0, r9, lsr #2
    5208:	03910301 	orrseq	r0, r1, #67108864	; 0x4000000
    520c:	03050000 	movweq	r0, #20480	; 0x5000
    5210:	f0003e90 			; <UNDEFINED> instruction: 0xf0003e90
    5214:	001fc611 	andseq	ip, pc, r1, lsl r6	; <UNPREDICTABLE>
    5218:	53040100 	movwpl	r0, #16640	; 0x4100
    521c:	05000000 	streq	r0, [r0, #-0]
    5220:	003e9403 	eorseq	r9, lr, r3, lsl #8
    5224:	200011f0 	strdcs	r1, [r0], -r0
    5228:	04010000 	streq	r0, [r1], #-0
    522c:	00000053 	andeq	r0, r0, r3, asr r0
    5230:	3e980305 	cdpcc	3, 9, cr0, cr8, cr5, {0}
    5234:	8e11f000 	cdphi	0, 1, cr15, cr1, cr0, {0}
    5238:	0100001f 	tsteq	r0, pc, lsl r0
    523c:	00005304 	andeq	r5, r0, r4, lsl #6
    5240:	9c030500 	cfstr32ls	mvfx0, [r3], {-0}
    5244:	00f0003e 	rscseq	r0, r0, lr, lsr r0
    5248:	000001b6 			; <UNDEFINED> instruction: 0x000001b6
    524c:	164f0002 	strbne	r0, [pc], -r2
    5250:	01040000 	mrseq	r0, (UNDEF: 4)
    5254:	000003fd 	strdeq	r0, [r0], -sp
    5258:	00218101 	eoreq	r8, r1, r1, lsl #2
    525c:	00053500 	andeq	r3, r5, r0, lsl #10
    5260:	002d0800 	eoreq	r0, sp, r0, lsl #16
    5264:	002d60f0 	strdeq	r6, [sp], -r0	; <UNPREDICTABLE>
    5268:	0014d6f0 			; <UNDEFINED> instruction: 0x0014d6f0
    526c:	06010200 	streq	r0, [r1], -r0, lsl #4
    5270:	000007af 	andeq	r0, r0, pc, lsr #15
    5274:	ad080102 	stfges	f0, [r8, #-8]
    5278:	02000007 	andeq	r0, r0, #7
    527c:	06680502 	strbteq	r0, [r8], -r2, lsl #10
    5280:	02020000 	andeq	r0, r2, #0
    5284:	00087f07 	andeq	r7, r8, r7, lsl #30
    5288:	0e4e0300 	cdpeq	3, 4, cr0, cr14, cr0, {0}
    528c:	12020000 	andne	r0, r2, #0
    5290:	0000004c 	andeq	r0, r0, ip, asr #32
    5294:	69050404 	stmdbvs	r5, {r2, sl}
    5298:	0300746e 	movweq	r7, #1134	; 0x46e
    529c:	00000443 	andeq	r0, r0, r3, asr #8
    52a0:	005e1302 	subseq	r1, lr, r2, lsl #6
    52a4:	04020000 	streq	r0, [r2], #-0
    52a8:	00025407 	andeq	r5, r2, r7, lsl #8
    52ac:	05080200 	streq	r0, [r8, #-512]	; 0x200
    52b0:	0000047d 	andeq	r0, r0, sp, ror r4
    52b4:	4a070802 	bmi	1c72c4 <__standby_start+0x1c72c4>
    52b8:	05000002 	streq	r0, [r0, #-2]
    52bc:	00000053 	andeq	r0, r0, r3, asr r0
    52c0:	00005306 	andeq	r5, r0, r6, lsl #6
    52c4:	00008800 	andeq	r8, r0, r0, lsl #16
    52c8:	005e0700 	subseq	r0, lr, r0, lsl #14
    52cc:	00060000 	andeq	r0, r6, r0
    52d0:	0021dd08 	eoreq	sp, r1, r8, lsl #26
    52d4:	15032400 	strne	r2, [r3, #-1024]	; 0x400
    52d8:	000000bf 	strheq	r0, [r0], -pc	; <UNPREDICTABLE>
    52dc:	6c744309 	ldclvs	3, cr4, [r4], #-36	; 0xffffffdc
    52e0:	73180300 	tstvc	r8, #0
    52e4:	02000000 	andeq	r0, r0, #0
    52e8:	d90a0023 	stmdble	sl, {r0, r1, r5}
    52ec:	0300000e 	movweq	r0, #14
    52f0:	0000bf19 	andeq	fp, r0, r9, lsl pc
    52f4:	04230200 	strteq	r0, [r3], #-512	; 0x200
    52f8:	00214d0a 	eoreq	r4, r1, sl, lsl #26
    52fc:	731b0300 	tstvc	fp, #0
    5300:	02000000 	andeq	r0, r0, #0
    5304:	05002023 	streq	r2, [r0, #-35]	; 0x23
    5308:	00000078 	andeq	r0, r0, r8, ror r0
    530c:	0021bc03 	eoreq	fp, r1, r3, lsl #24
    5310:	881d0300 	ldmdahi	sp, {r8, r9}
    5314:	0b000000 	bleq	531c <__standby_start+0x531c>
    5318:	00000877 	andeq	r0, r0, r7, ror r8
    531c:	3c890404 	cfstrscc	mvf0, [r9], {4}
    5320:	0c000001 	stceq	0, cr0, [r0], {1}
    5324:	000006af 	andeq	r0, r0, pc, lsr #13
    5328:	033d0c00 	teqeq	sp, #0
    532c:	0c010000 	stceq	0, cr0, [r1], {-0}
    5330:	00000768 	andeq	r0, r0, r8, ror #14
    5334:	03310c02 	teqeq	r1, #512	; 0x200
    5338:	0c030000 	stceq	0, cr0, [r3], {-0}
    533c:	00000437 	andeq	r0, r0, r7, lsr r4
    5340:	06bc0c04 	ldrteq	r0, [ip], r4, lsl #24
    5344:	0c050000 	stceq	0, cr0, [r5], {-0}
    5348:	000003f0 	strdeq	r0, [r0], -r0	; <UNPREDICTABLE>
    534c:	08610c06 	stmdaeq	r1!, {r1, r2, sl, fp}^
    5350:	0c070000 	stceq	0, cr0, [r7], {-0}
    5354:	0000046a 	andeq	r0, r0, sl, ror #8
    5358:	09020c08 	stmdbeq	r2, {r3, sl, fp}
    535c:	0c090000 	stceq	0, cr0, [r9], {-0}
    5360:	0000064a 	andeq	r0, r0, sl, asr #12
    5364:	06720c0a 	ldrbteq	r0, [r2], -sl, lsl #24
    5368:	0c0b0000 	stceq	0, cr0, [fp], {-0}
    536c:	00000871 	andeq	r0, r0, r1, ror r8
    5370:	07c20c0c 	strbeq	r0, [r2, ip, lsl #24]
    5374:	0c0d0000 	stceq	0, cr0, [sp], {-0}
    5378:	00000629 	andeq	r0, r0, r9, lsr #12
    537c:	08000c0e 	stmdaeq	r0, {r1, r2, r3, sl, fp}
    5380:	000f0000 	andeq	r0, pc, r0
    5384:	b6080102 	strlt	r0, [r8], -r2, lsl #2
    5388:	02000007 	andeq	r0, r0, #7
    538c:	024f0704 	subeq	r0, pc, #1048576	; 0x100000
    5390:	010d0000 	mrseq	r0, (UNDEF: 13)
    5394:	0000215e 	andeq	r2, r0, lr, asr r1
    5398:	41011101 	tstmi	r1, r1, lsl #2
    539c:	08000000 	stmdaeq	r0, {}	; <UNPREDICTABLE>
    53a0:	38f0002d 	ldmcc	r0!, {r0, r2, r3, r5}^
    53a4:	02f0002d 	rscseq	r0, r0, #45	; 0x2d
    53a8:	0176007d 	cmneq	r6, sp, ror r0
    53ac:	cf0e0000 	svcgt	0x000e0000
    53b0:	01000021 	tsteq	r0, r1, lsr #32
    53b4:	00017611 	andeq	r7, r1, r1, lsl r6
    53b8:	0021d200 	eoreq	sp, r1, r0, lsl #4
    53bc:	040f0000 	streq	r0, [pc], #-0	; 53c4 <__standby_start+0x53c4>
    53c0:	000000c4 	andeq	r0, r0, r4, asr #1
    53c4:	216e010d 	cmncs	lr, sp, lsl #2
    53c8:	2a010000 	bcs	453d0 <__standby_start+0x453d0>
    53cc:	00004101 	andeq	r4, r0, r1, lsl #2
    53d0:	002d3800 	eoreq	r3, sp, r0, lsl #16
    53d4:	002d60f0 	strdeq	r6, [sp], -r0	; <UNPREDICTABLE>
    53d8:	007d02f0 	ldrshteq	r0, [sp], #-32	; 0xffffffe0
    53dc:	000001a8 	andeq	r0, r0, r8, lsr #3
    53e0:	0021cf0e 	eoreq	ip, r1, lr, lsl #30
    53e4:	762a0100 	strtvc	r0, [sl], -r0, lsl #2
    53e8:	f0000001 			; <UNDEFINED> instruction: 0xf0000001
    53ec:	00000021 	andeq	r0, r0, r1, lsr #32
    53f0:	0021b210 	eoreq	fp, r1, r0, lsl r2
    53f4:	76040100 	strvc	r0, [r4], -r0, lsl #2
    53f8:	05000001 	streq	r0, [r0, #-1]
    53fc:	003ea003 	eorseq	sl, lr, r3
    5400:	107f00f0 	ldrshtne	r0, [pc], #-0
    5404:	00020000 	andeq	r0, r2, r0
    5408:	00001724 	andeq	r1, r0, r4, lsr #14
    540c:	03fd0104 	mvnseq	r0, #1
    5410:	ee010000 	cdp	0, 0, cr0, cr1, cr0, {0}
    5414:	35000021 	strcc	r0, [r0, #-33]	; 0x21
    5418:	60000005 	andvs	r0, r0, r5
    541c:	04f0002d 	ldrbteq	r0, [r0], #45	; 0x2d
    5420:	8bf00031 	blhi	ffc054ec <__bss_end+0xfc013ec>
    5424:	02000015 	andeq	r0, r0, #21
    5428:	07af0601 	streq	r0, [pc, r1, lsl #12]!
    542c:	f8030000 			; <UNDEFINED> instruction: 0xf8030000
    5430:	02000013 	andeq	r0, r0, #19
    5434:	0000370f 	andeq	r3, r0, pc, lsl #14
    5438:	08010200 	stmdaeq	r1, {r9}
    543c:	000007ad 	andeq	r0, r0, sp, lsr #15
    5440:	68050202 	stmdavs	r5, {r1, r9}
    5444:	02000006 	andeq	r0, r0, #6
    5448:	087f0702 	ldmdaeq	pc!, {r1, r8, r9, sl}^	; <UNPREDICTABLE>
    544c:	4e030000 	cdpmi	0, 0, cr0, cr3, cr0, {0}
    5450:	0200000e 	andeq	r0, r0, #14
    5454:	00005712 	andeq	r5, r0, r2, lsl r7
    5458:	05040400 	streq	r0, [r4, #-1024]	; 0x400
    545c:	00746e69 	rsbseq	r6, r4, r9, ror #28
    5460:	00044303 	andeq	r4, r4, r3, lsl #6
    5464:	69130200 	ldmdbvs	r3, {r9}
    5468:	02000000 	andeq	r0, r0, #0
    546c:	02540704 	subseq	r0, r4, #1048576	; 0x100000
    5470:	08020000 	stmdaeq	r2, {}	; <UNPREDICTABLE>
    5474:	00047d05 	andeq	r7, r4, r5, lsl #26
    5478:	07080200 	streq	r0, [r8, -r0, lsl #4]
    547c:	0000024a 	andeq	r0, r0, sl, asr #4
    5480:	1a030405 	bne	c649c <__standby_start+0xc649c>
    5484:	0000010f 	andeq	r0, r0, pc, lsl #2
    5488:	000af606 	andeq	pc, sl, r6, lsl #12
    548c:	5e1c0300 	cdppl	3, 1, cr0, cr12, cr0, {0}
    5490:	04000000 	streq	r0, [r0], #-0
    5494:	23021e02 	movwcs	r1, #11778	; 0x2e02
    5498:	0ed90600 	cdpeq	6, 13, cr0, cr9, cr0, {0}
    549c:	1d030000 	stcne	0, cr0, [r3, #-0]
    54a0:	0000005e 	andeq	r0, r0, lr, asr r0
    54a4:	02180604 	andseq	r0, r8, #4194304	; 0x400000
    54a8:	fe060023 	cdp2	0, 0, cr0, cr6, cr3, {1}
    54ac:	0300000a 	movweq	r0, #10
    54b0:	00005e1e 	andeq	r5, r0, lr, lsl lr
    54b4:	10080400 	andne	r0, r8, r0, lsl #8
    54b8:	06002302 	streq	r2, [r0], -r2, lsl #6
    54bc:	00000b0e 	andeq	r0, r0, lr, lsl #22
    54c0:	005e1f03 	subseq	r1, lr, r3, lsl #30
    54c4:	01040000 	mrseq	r0, (UNDEF: 4)
    54c8:	0023020f 	eoreq	r0, r3, pc, lsl #4
    54cc:	000ef706 	andeq	pc, lr, r6, lsl #14
    54d0:	5e200300 	cdppl	3, 2, cr0, cr0, cr0, {0}
    54d4:	04000000 	streq	r0, [r0], #-0
    54d8:	23020807 	movwcs	r0, #10247	; 0x2807
    54dc:	0c120600 	ldceq	6, cr0, [r2], {-0}
    54e0:	21030000 	mrscs	r0, (UNDEF: 3)
    54e4:	0000005e 	andeq	r0, r0, lr, asr r0
    54e8:	02050304 	andeq	r0, r5, #268435456	; 0x10000000
    54ec:	01060023 	tsteq	r6, r3, lsr #32
    54f0:	0300000f 	movweq	r0, #15
    54f4:	00005e22 	andeq	r5, r0, r2, lsr #28
    54f8:	01040400 	tsteq	r4, r0, lsl #8
    54fc:	06002302 	streq	r2, [r0], -r2, lsl #6
    5500:	00000ea3 	andeq	r0, r0, r3, lsr #29
    5504:	005e2303 	subseq	r2, lr, r3, lsl #6
    5508:	01040000 	mrseq	r0, (UNDEF: 4)
    550c:	00230200 	eoreq	r0, r3, r0, lsl #4
    5510:	03040700 	movweq	r0, #18176	; 0x4700
    5514:	00012e18 	andeq	r2, r1, r8, lsl lr
    5518:	09d90800 	ldmibeq	r9, {fp}^
    551c:	19030000 	stmdbne	r3, {}	; <UNPREDICTABLE>
    5520:	0000005e 	andeq	r0, r0, lr, asr r0
    5524:	00139408 	andseq	r9, r3, r8, lsl #8
    5528:	7e250300 	cdpvc	3, 2, cr0, cr5, cr0, {0}
    552c:	00000000 	andeq	r0, r0, r0
    5530:	000ea903 	andeq	sl, lr, r3, lsl #18
    5534:	0f260300 	svceq	0x00260300
    5538:	05000001 	streq	r0, [r0, #-1]
    553c:	ca3e0304 	bgt	f86154 <__standby_start+0xf86154>
    5540:	06000001 	streq	r0, [r0], -r1
    5544:	00001074 	andeq	r1, r0, r4, ror r0
    5548:	005e4003 	subseq	r4, lr, r3
    554c:	02040000 	andeq	r0, r4, #0
    5550:	0023021e 	eoreq	r0, r3, lr, lsl r2
    5554:	000ed906 	andeq	sp, lr, r6, lsl #18
    5558:	5e410300 	cdppl	3, 4, cr0, cr1, cr0, {0}
    555c:	04000000 	streq	r0, [r0], #-0
    5560:	2302140a 	movwcs	r1, #9226	; 0x240a
    5564:	0bc60600 	bleq	ff186d6c <__bss_end+0xf182c6c>
    5568:	42030000 	andmi	r0, r3, #0
    556c:	0000005e 	andeq	r0, r0, lr, asr r0
    5570:	02130104 	andseq	r0, r3, #1
    5574:	e3060023 	movw	r0, #24611	; 0x6023
    5578:	0300000e 	movweq	r0, #14
    557c:	00005e43 	andeq	r5, r0, r3, asr #28
    5580:	10030400 	andne	r0, r3, r0, lsl #8
    5584:	06002302 	streq	r2, [r0], -r2, lsl #6
    5588:	00000cf0 	strdeq	r0, [r0], -r0	; <UNPREDICTABLE>
    558c:	005e4403 	subseq	r4, lr, r3, lsl #8
    5590:	02040000 	andeq	r0, r4, #0
    5594:	0023020e 	eoreq	r0, r3, lr, lsl #4
    5598:	000eed06 	andeq	lr, lr, r6, lsl #26
    559c:	5e450300 	cdppl	3, 4, cr0, cr5, cr0, {0}
    55a0:	04000000 	streq	r0, [r0], #-0
    55a4:	2302040a 	movwcs	r0, #9226	; 0x240a
    55a8:	0b5d0600 	bleq	1746db0 <__standby_start+0x1746db0>
    55ac:	46030000 	strmi	r0, [r3], -r0
    55b0:	0000005e 	andeq	r0, r0, lr, asr r0
    55b4:	02030104 	andeq	r0, r3, #1
    55b8:	f7060023 			; <UNDEFINED> instruction: 0xf7060023
    55bc:	0300000e 	movweq	r0, #14
    55c0:	00005e47 	andeq	r5, r0, r7, asr #28
    55c4:	00030400 	andeq	r0, r3, r0, lsl #8
    55c8:	00002302 	andeq	r2, r0, r2, lsl #6
    55cc:	3c030407 	cfstrscc	mvf0, [r3], {7}
    55d0:	000001e9 	andeq	r0, r0, r9, ror #3
    55d4:	0009d908 	andeq	sp, r9, r8, lsl #18
    55d8:	5e3d0300 	cdppl	3, 3, cr0, cr13, cr0, {0}
    55dc:	08000000 	stmdaeq	r0, {}	; <UNPREDICTABLE>
    55e0:	00001394 	muleq	r0, r4, r3
    55e4:	01394803 	teqeq	r9, r3, lsl #16
    55e8:	03000000 	movweq	r0, #0
    55ec:	00000a65 	andeq	r0, r0, r5, ror #20
    55f0:	01ca4903 	biceq	r4, sl, r3, lsl #18
    55f4:	66090000 	strvs	r0, [r9], -r0
    55f8:	04000009 	streq	r0, [r0], #-9
    55fc:	02784f03 	rsbseq	r4, r8, #12
    5600:	d9060000 	stmdble	r6, {}	; <UNPREDICTABLE>
    5604:	0300000e 	movweq	r0, #14
    5608:	00005e51 	andeq	r5, r0, r1, asr lr
    560c:	1c040400 	cfstrsne	mvf0, [r4], {-0}
    5610:	06002302 	streq	r2, [r0], -r2, lsl #6
    5614:	00000d4d 	andeq	r0, r0, sp, asr #26
    5618:	005e5203 	subseq	r5, lr, r3, lsl #4
    561c:	02040000 	andeq	r0, r4, #0
    5620:	0023021a 	eoreq	r0, r3, sl, lsl r2
    5624:	000cb606 	andeq	fp, ip, r6, lsl #12
    5628:	5e530300 	cdppl	3, 5, cr0, cr3, cr0, {0}
    562c:	04000000 	streq	r0, [r0], #-0
    5630:	23021802 	movwcs	r1, #10242	; 0x2802
    5634:	0e460600 	cdpeq	6, 4, cr0, cr6, cr0, {0}
    5638:	54030000 	strpl	r0, [r3], #-0
    563c:	0000005e 	andeq	r0, r0, lr, asr r0
    5640:	02160204 	andseq	r0, r6, #1073741824	; 0x40000000
    5644:	e3060023 	movw	r0, #24611	; 0x6023
    5648:	0300000e 	movweq	r0, #14
    564c:	00005e55 	andeq	r5, r0, r5, asr lr
    5650:	14020400 	strne	r0, [r2], #-1024	; 0x400
    5654:	06002302 	streq	r2, [r0], -r2, lsl #6
    5658:	00000e28 	andeq	r0, r0, r8, lsr #28
    565c:	005e5603 	subseq	r5, lr, r3, lsl #12
    5660:	02040000 	andeq	r0, r4, #0
    5664:	00230212 	eoreq	r0, r3, r2, lsl r2
    5668:	000eed06 	andeq	lr, lr, r6, lsl #26
    566c:	5e570300 	cdppl	3, 5, cr0, cr7, cr0, {0}
    5670:	04000000 	streq	r0, [r0], #-0
    5674:	23020012 	movwcs	r0, #8210	; 0x2012
    5678:	ff030000 			; <UNDEFINED> instruction: 0xff030000
    567c:	0300000f 	movweq	r0, #15
    5680:	0001f458 	andeq	pc, r1, r8, asr r4	; <UNPREDICTABLE>
    5684:	03040500 	movweq	r0, #17664	; 0x4500
    5688:	0002f25f 	andeq	pc, r2, pc, asr r2	; <UNPREDICTABLE>
    568c:	0b7e0600 	bleq	1f86e94 <__standby_start+0x1f86e94>
    5690:	61030000 	mrsvs	r0, (UNDEF: 3)
    5694:	0000005e 	andeq	r0, r0, lr, asr r0
    5698:	021b0504 	andseq	r0, fp, #16777216	; 0x1000000
    569c:	6b060023 	blvs	185730 <__standby_start+0x185730>
    56a0:	03000010 	movweq	r0, #16
    56a4:	00005e62 	andeq	r5, r0, r2, ror #28
    56a8:	100b0400 	andne	r0, fp, r0, lsl #8
    56ac:	06002302 	streq	r2, [r0], -r2, lsl #6
    56b0:	00000b83 	andeq	r0, r0, r3, lsl #23
    56b4:	005e6303 	subseq	r6, lr, r3, lsl #6
    56b8:	02040000 	andeq	r0, r4, #0
    56bc:	0023020e 	eoreq	r0, r3, lr, lsl #4
    56c0:	000ee306 	andeq	lr, lr, r6, lsl #6
    56c4:	5e640300 	cdppl	3, 6, cr0, cr4, cr0, {0}
    56c8:	04000000 	streq	r0, [r0], #-0
    56cc:	23020806 	movwcs	r0, #10246	; 0x2806
    56d0:	0b5f0600 	bleq	17c6ed8 <__standby_start+0x17c6ed8>
    56d4:	65030000 	strvs	r0, [r3, #-0]
    56d8:	0000005e 	andeq	r0, r0, lr, asr r0
    56dc:	02060204 	andeq	r0, r6, #1073741824	; 0x40000000
    56e0:	ed060023 	stc	0, cr0, [r6, #-140]	; 0xffffff74
    56e4:	0300000e 	movweq	r0, #14
    56e8:	00005e66 	andeq	r5, r0, r6, ror #28
    56ec:	00060400 	andeq	r0, r6, r0, lsl #8
    56f0:	00002302 	andeq	r2, r0, r2, lsl #6
    56f4:	5d030407 	cfstrspl	mvf0, [r3, #-28]	; 0xffffffe4
    56f8:	00000311 	andeq	r0, r0, r1, lsl r3
    56fc:	0009d908 	andeq	sp, r9, r8, lsl #18
    5700:	5e5e0300 	cdppl	3, 5, cr0, cr14, cr0, {0}
    5704:	08000000 	stmdaeq	r0, {}	; <UNPREDICTABLE>
    5708:	00001394 	muleq	r0, r4, r3
    570c:	02836703 	addeq	r6, r3, #786432	; 0xc0000
    5710:	03000000 	movweq	r0, #0
    5714:	00000d87 	andeq	r0, r0, r7, lsl #27
    5718:	02f26803 	rscseq	r6, r2, #196608	; 0x30000
    571c:	5d090000 	stcpl	0, cr0, [r9, #-0]
    5720:	0400000c 	streq	r0, [r0], #-12
    5724:	034b6a03 	movteq	r6, #47619	; 0xba03
    5728:	4c060000 	stcmi	0, cr0, [r6], {-0}
    572c:	03000010 	movweq	r0, #16
    5730:	00005e6c 	andeq	r5, r0, ip, ror #28
    5734:	10100400 	andsne	r0, r0, r0, lsl #8
    5738:	06002302 	streq	r2, [r0], -r2, lsl #6
    573c:	0000106b 	andeq	r1, r0, fp, rrx
    5740:	005e6d03 	subseq	r6, lr, r3, lsl #26
    5744:	10040000 	andne	r0, r4, r0
    5748:	00230200 	eoreq	r0, r3, r0, lsl #4
    574c:	0f730300 	svceq	0x00730300
    5750:	6e030000 	cdpvs	0, 0, cr0, cr3, cr0, {0}
    5754:	0000031c 	andeq	r0, r0, ip, lsl r3
    5758:	0010c90a 	andseq	ip, r0, sl, lsl #18
    575c:	0302dc00 	movweq	sp, #11264	; 0x2c00
    5760:	000b2c70 	andeq	r2, fp, r0, ror ip
    5764:	0c1b0b00 	ldceq	11, cr0, [fp], {-0}
    5768:	72030000 	andvc	r0, r3, #0
    576c:	00000b2c 	andeq	r0, r0, ip, lsr #22
    5770:	0b002302 	bleq	e380 <__standby_start+0xe380>
    5774:	00000c40 	andeq	r0, r0, r0, asr #24
    5778:	0b317303 	bleq	c6238c <__standby_start+0xc6238c>
    577c:	23020000 	movwcs	r0, #8192	; 0x2000
    5780:	10c10b04 	sbcne	r0, r1, r4, lsl #22
    5784:	74030000 	strvc	r0, [r3], #-0
    5788:	00000b31 	andeq	r0, r0, r1, lsr fp
    578c:	0b082302 	bleq	20e39c <__standby_start+0x20e39c>
    5790:	00000ee3 	andeq	r0, r0, r3, ror #29
    5794:	0b317503 	bleq	c62ba8 <__standby_start+0xc62ba8>
    5798:	23020000 	movwcs	r0, #8192	; 0x2000
    579c:	0d750b0c 	vldmdbeq	r5!, {d16-d21}
    57a0:	76030000 	strvc	r0, [r3], -r0
    57a4:	00000b31 	andeq	r0, r0, r1, lsr fp
    57a8:	0b102302 	bleq	40e3b8 <__standby_start+0x40e3b8>
    57ac:	00000eed 	andeq	r0, r0, sp, ror #29
    57b0:	0b317703 	bleq	c633c4 <__standby_start+0xc633c4>
    57b4:	23020000 	movwcs	r0, #8192	; 0x2000
    57b8:	0a470b14 	beq	11c8410 <__standby_start+0x11c8410>
    57bc:	78030000 	stmdavc	r3, {}	; <UNPREDICTABLE>
    57c0:	00000b31 	andeq	r0, r0, r1, lsr fp
    57c4:	0b182302 	bleq	60e3d4 <__standby_start+0x60e3d4>
    57c8:	00000ef7 	strdeq	r0, [r0], -r7
    57cc:	0b317903 	bleq	c63be0 <__standby_start+0xc63be0>
    57d0:	23020000 	movwcs	r0, #8192	; 0x2000
    57d4:	0e9b0b1c 	vmoveq.32	r0, d11[0]
    57d8:	7a030000 	bvc	c57e0 <__standby_start+0xc57e0>
    57dc:	00000b31 	andeq	r0, r0, r1, lsr fp
    57e0:	0b202302 	bleq	80e3f0 <__standby_start+0x80e3f0>
    57e4:	00000f01 	andeq	r0, r0, r1, lsl #30
    57e8:	0b317b03 	bleq	c643fc <__standby_start+0xc643fc>
    57ec:	23020000 	movwcs	r0, #8192	; 0x2000
    57f0:	0a0f0b24 	beq	3c8488 <__standby_start+0x3c8488>
    57f4:	7c030000 	stcvc	0, cr0, [r3], {-0}
    57f8:	00000b31 	andeq	r0, r0, r1, lsr fp
    57fc:	0b282302 	bleq	a0e40c <__standby_start+0xa0e40c>
    5800:	00000f0b 	andeq	r0, r0, fp, lsl #30
    5804:	0b317d03 	bleq	c64c18 <__standby_start+0xc64c18>
    5808:	23020000 	movwcs	r0, #8192	; 0x2000
    580c:	0e830b2c 	vdiveq.f64	d0, d3, d28
    5810:	7e030000 	cdpvc	0, 0, cr0, cr3, cr0, {0}
    5814:	00000b31 	andeq	r0, r0, r1, lsr fp
    5818:	0b302302 	bleq	c0e428 <__standby_start+0xc0e428>
    581c:	00000f15 	andeq	r0, r0, r5, lsl pc
    5820:	0b317f03 	bleq	c65434 <__standby_start+0xc65434>
    5824:	23020000 	movwcs	r0, #8192	; 0x2000
    5828:	0c550b34 	vmoveq	r0, r5, d20
    582c:	80030000 	andhi	r0, r3, r0
    5830:	00000b31 	andeq	r0, r0, r1, lsr fp
    5834:	0b382302 	bleq	e0e444 <__standby_start+0xe0e444>
    5838:	00000f1f 	andeq	r0, r0, pc, lsl pc
    583c:	0b318103 	bleq	c65c50 <__standby_start+0xc65c50>
    5840:	23020000 	movwcs	r0, #8192	; 0x2000
    5844:	0f610b3c 	svceq	0x00610b3c
    5848:	82030000 	andhi	r0, r3, #0
    584c:	00000b31 	andeq	r0, r0, r1, lsr fp
    5850:	0b402302 	bleq	100e460 <__standby_start+0x100e460>
    5854:	000010f7 	strdeq	r1, [r0], -r7
    5858:	0b318303 	bleq	c6646c <__standby_start+0xc6646c>
    585c:	23020000 	movwcs	r0, #8192	; 0x2000
    5860:	0a3e0b44 	beq	f88578 <__standby_start+0xf88578>
    5864:	84030000 	strhi	r0, [r3], #-0
    5868:	00000b31 	andeq	r0, r0, r1, lsr fp
    586c:	0b482302 	bleq	120e47c <__standby_start+0x120e47c>
    5870:	00000fdb 	ldrdeq	r0, [r0], -fp
    5874:	0b318503 	bleq	c66c88 <__standby_start+0xc66c88>
    5878:	23020000 	movwcs	r0, #8192	; 0x2000
    587c:	0d7d0b4c 	vldmdbeq	sp!, {d16-<overflow reg d53>}
    5880:	86030000 	strhi	r0, [r3], -r0
    5884:	00000b36 	andeq	r0, r0, r6, lsr fp
    5888:	0b502302 	bleq	140e498 <__standby_start+0x140e498>
    588c:	00000d4d 	andeq	r0, r0, sp, asr #26
    5890:	0b3b8703 	bleq	ee74a4 <__standby_start+0xee74a4>
    5894:	23020000 	movwcs	r0, #8192	; 0x2000
    5898:	0b060b54 	bleq	1885f0 <__standby_start+0x1885f0>
    589c:	88030000 	stmdahi	r3, {}	; <UNPREDICTABLE>
    58a0:	00000b40 	andeq	r0, r0, r0, asr #22
    58a4:	0b582302 	bleq	160e4b4 <__standby_start+0x160e4b4>
    58a8:	00000ebf 			; <UNDEFINED> instruction: 0x00000ebf
    58ac:	0b318903 	bleq	c67cc0 <__standby_start+0xc67cc0>
    58b0:	23020000 	movwcs	r0, #8192	; 0x2000
    58b4:	0c000b5c 	stceq	11, cr0, [r0], {92}	; 0x5c
    58b8:	8a030000 	bhi	c58c0 <__standby_start+0xc58c0>
    58bc:	00000b31 	andeq	r0, r0, r1, lsr fp
    58c0:	0b602302 	bleq	180e4d0 <__standby_start+0x180e4d0>
    58c4:	00000c09 	andeq	r0, r0, r9, lsl #24
    58c8:	0b318b03 	bleq	c684dc <__standby_start+0xc684dc>
    58cc:	23020000 	movwcs	r0, #8192	; 0x2000
    58d0:	107e0b64 	rsbsne	r0, lr, r4, ror #22
    58d4:	8c030000 	stchi	0, cr0, [r3], {-0}
    58d8:	00000b31 	andeq	r0, r0, r1, lsr fp
    58dc:	0b682302 	bleq	1a0e4ec <__standby_start+0x1a0e4ec>
    58e0:	00000ddf 	ldrdeq	r0, [r0], -pc	; <UNPREDICTABLE>
    58e4:	0b318d03 	bleq	c68cf8 <__standby_start+0xc68cf8>
    58e8:	23020000 	movwcs	r0, #8192	; 0x2000
    58ec:	0f290b6c 	svceq	0x00290b6c
    58f0:	8e030000 	cdphi	0, 0, cr0, cr3, cr0, {0}
    58f4:	00000b55 	andeq	r0, r0, r5, asr fp
    58f8:	0b702302 	bleq	1c0e508 <__standby_start+0x1c0e508>
    58fc:	000010ed 	andeq	r1, r0, sp, ror #1
    5900:	0b318f03 	bleq	c69514 <__standby_start+0xc69514>
    5904:	23020000 	movwcs	r0, #8192	; 0x2000
    5908:	0a030b78 	beq	c86f0 <__standby_start+0xc86f0>
    590c:	90030000 	andls	r0, r3, r0
    5910:	00000b31 	andeq	r0, r0, r1, lsr fp
    5914:	0b7c2302 	bleq	1f0e524 <__standby_start+0x1f0e524>
    5918:	000010e7 	andeq	r1, r0, r7, ror #1
    591c:	0b319103 	bleq	c69d30 <__standby_start+0xc69d30>
    5920:	23030000 	movwcs	r0, #12288	; 0x3000
    5924:	870b0180 	strhi	r0, [fp, -r0, lsl #3]
    5928:	03000010 	movweq	r0, #16
    592c:	000b3192 	muleq	fp, r2, r1
    5930:	84230300 	strthi	r0, [r3], #-768	; 0x300
    5934:	64530c01 	ldrbvs	r0, [r3], #-3073	; 0xc01
    5938:	93030030 	movwls	r0, #12336	; 0x3030
    593c:	00000b31 	andeq	r0, r0, r1, lsr fp
    5940:	01882303 	orreq	r2, r8, r3, lsl #6
    5944:	3164530c 	cmncc	r4, ip, lsl #6
    5948:	31940300 	orrscc	r0, r4, r0, lsl #6
    594c:	0300000b 	movweq	r0, #11
    5950:	0c018c23 	stceq	12, cr8, [r1], {35}	; 0x23
    5954:	00326453 	eorseq	r6, r2, r3, asr r4
    5958:	0b319503 	bleq	c6ad6c <__standby_start+0xc6ad6c>
    595c:	23030000 	movwcs	r0, #12288	; 0x3000
    5960:	920b0190 	andls	r0, fp, #36	; 0x24
    5964:	03000010 	movweq	r0, #16
    5968:	000b5a96 	muleq	fp, r6, sl
    596c:	94230300 	strtls	r0, [r3], #-768	; 0x300
    5970:	73530c01 	cmpvc	r3, #256	; 0x100
    5974:	31970300 	orrscc	r0, r7, r0, lsl #6
    5978:	0300000b 	movweq	r0, #11
    597c:	0b019c23 	bleq	6ca10 <__standby_start+0x6ca10>
    5980:	00000f57 	andeq	r0, r0, r7, asr pc
    5984:	0b319803 	bleq	c6b998 <__standby_start+0xc6b998>
    5988:	23030000 	movwcs	r0, #12288	; 0x3000
    598c:	5c0b01a0 	stfpls	f0, [fp], {160}	; 0xa0
    5990:	0300000f 	movweq	r0, #15
    5994:	000b3199 	muleq	fp, r9, r1
    5998:	a4230300 	strtge	r0, [r3], #-768	; 0x300
    599c:	109d0b01 	addsne	r0, sp, r1, lsl #22
    59a0:	9a030000 	bls	c59a8 <__standby_start+0xc59a8>
    59a4:	00000b5f 	andeq	r0, r0, pc, asr fp
    59a8:	01a82303 			; <UNDEFINED> instruction: 0x01a82303
    59ac:	000a2f0b 	andeq	r2, sl, fp, lsl #30
    59b0:	319b0300 	orrscc	r0, fp, r0, lsl #6
    59b4:	0300000b 	movweq	r0, #11
    59b8:	0b01b023 	bleq	71a4c <__standby_start+0x71a4c>
    59bc:	00000a34 	andeq	r0, r0, r4, lsr sl
    59c0:	0b319c03 	bleq	c6c9d4 <__standby_start+0xc6c9d4>
    59c4:	23030000 	movwcs	r0, #12288	; 0x3000
    59c8:	390b01b4 	stmdbcc	fp, {r2, r4, r5, r7, r8}
    59cc:	0300000a 	movweq	r0, #10
    59d0:	000b319d 	muleq	fp, sp, r1
    59d4:	b8230300 	stmdalt	r3!, {r8, r9}
    59d8:	0ad40b01 	beq	ff5085e4 <__bss_end+0xf5044e4>
    59dc:	9e030000 	cdpls	0, 0, cr0, cr3, cr0, {0}
    59e0:	00000b31 	andeq	r0, r0, r1, lsr fp
    59e4:	01bc2303 			; <UNDEFINED> instruction: 0x01bc2303
    59e8:	000dd60b 	andeq	sp, sp, fp, lsl #12
    59ec:	319f0300 	orrscc	r0, pc, r0, lsl #6
    59f0:	0300000b 	movweq	r0, #11
    59f4:	0b01c023 	bleq	75a88 <__standby_start+0x75a88>
    59f8:	00000d24 	andeq	r0, r0, r4, lsr #26
    59fc:	0b64a003 	bleq	192da10 <__standby_start+0x192da10>
    5a00:	23030000 	movwcs	r0, #12288	; 0x3000
    5a04:	550c01c4 	strpl	r0, [ip, #-452]	; 0x1c4
    5a08:	03006273 	movweq	r6, #627	; 0x273
    5a0c:	000b31a1 	andeq	r3, fp, r1, lsr #3
    5a10:	cc230300 	stcgt	3, cr0, [r3], #-0
    5a14:	101b0b01 	andsne	r0, fp, r1, lsl #22
    5a18:	a2030000 	andge	r0, r3, #0
    5a1c:	00000b31 	andeq	r0, r0, r1, lsr fp
    5a20:	01d02303 	bicseq	r2, r0, r3, lsl #6
    5a24:	000c740b 	andeq	r7, ip, fp, lsl #8
    5a28:	79a30300 	stmibvc	r3!, {r8, r9}
    5a2c:	0300000b 	movweq	r0, #11
    5a30:	0b01d423 	bleq	7aac4 <__standby_start+0x7aac4>
    5a34:	000010b5 	strheq	r1, [r0], -r5
    5a38:	0b31a403 	bleq	c6ea4c <__standby_start+0xc6ea4c>
    5a3c:	23030000 	movwcs	r0, #12288	; 0x3000
    5a40:	f70b01f0 			; <UNDEFINED> instruction: 0xf70b01f0
    5a44:	0300000f 	movweq	r0, #15
    5a48:	000b31a5 	andeq	r3, fp, r5, lsr #3
    5a4c:	f4230300 	vld2.8	{d0-d3}, [r3], r0
    5a50:	10550b01 	subsne	r0, r5, r1, lsl #22
    5a54:	a6030000 	strge	r0, [r3], -r0
    5a58:	00000b31 	andeq	r0, r0, r1, lsr fp
    5a5c:	01f82303 	mvnseq	r2, r3, lsl #6
    5a60:	000e540b 	andeq	r5, lr, fp, lsl #8
    5a64:	31a70300 			; <UNDEFINED> instruction: 0x31a70300
    5a68:	0300000b 	movweq	r0, #11
    5a6c:	0b01fc23 	bleq	84b00 <__standby_start+0x84b00>
    5a70:	00000e1f 	andeq	r0, r0, pc, lsl lr
    5a74:	0b31a803 	bleq	c6fa88 <__standby_start+0xc6fa88>
    5a78:	23030000 	movwcs	r0, #12288	; 0x3000
    5a7c:	230b0280 	movwcs	r0, #45696	; 0xb280
    5a80:	0300000c 	movweq	r0, #12
    5a84:	000b31a9 	andeq	r3, fp, r9, lsr #3
    5a88:	84230300 	strthi	r0, [r3], #-768	; 0x300
    5a8c:	099a0b02 	ldmibeq	sl, {r1, r8, r9, fp}
    5a90:	aa030000 	bge	c5a98 <__standby_start+0xc5a98>
    5a94:	00000b31 	andeq	r0, r0, r1, lsr fp
    5a98:	02882303 	addeq	r2, r8, #201326592	; 0xc000000
    5a9c:	000abb0b 	andeq	fp, sl, fp, lsl #22
    5aa0:	31ab0300 			; <UNDEFINED> instruction: 0x31ab0300
    5aa4:	0300000b 	movweq	r0, #11
    5aa8:	0b028c23 	bleq	a8b3c <__standby_start+0xa8b3c>
    5aac:	000009a6 	andeq	r0, r0, r6, lsr #19
    5ab0:	0b31ac03 	bleq	c70ac4 <__standby_start+0xc70ac4>
    5ab4:	23030000 	movwcs	r0, #12288	; 0x3000
    5ab8:	b20b0290 	andlt	r0, fp, #9
    5abc:	03000009 	movweq	r0, #9
    5ac0:	000b31ad 	andeq	r3, fp, sp, lsr #3
    5ac4:	94230300 	strtls	r0, [r3], #-768	; 0x300
    5ac8:	09f30b02 	ldmibeq	r3!, {r1, r8, r9, fp}^
    5acc:	ae030000 	cdpge	0, 0, cr0, cr3, cr0, {0}
    5ad0:	00000b31 	andeq	r0, r0, r1, lsr fp
    5ad4:	02982303 	addseq	r2, r8, #201326592	; 0xc000000
    5ad8:	0009fb0b 	andeq	pc, r9, fp, lsl #22
    5adc:	31af0300 			; <UNDEFINED> instruction: 0x31af0300
    5ae0:	0300000b 	movweq	r0, #11
    5ae4:	0b029c23 	bleq	acb78 <__standby_start+0xacb78>
    5ae8:	00000c7f 	andeq	r0, r0, pc, ror ip
    5aec:	0b8eb003 	bleq	fe3b1b00 <__bss_end+0xe3ada00>
    5af0:	23030000 	movwcs	r0, #12288	; 0x3000
    5af4:	c70b02a0 	strgt	r0, [fp, -r0, lsr #5]
    5af8:	0300000e 	movweq	r0, #14
    5afc:	000b31b1 			; <UNDEFINED> instruction: 0x000b31b1
    5b00:	b0230300 	eorlt	r0, r3, r0, lsl #6
    5b04:	0f4b0b02 	svceq	0x004b0b02
    5b08:	b2030000 	andlt	r0, r3, #0
    5b0c:	00000b31 	andeq	r0, r0, r1, lsr fp
    5b10:	02b42303 	adcseq	r2, r4, #201326592	; 0xc000000
    5b14:	000a170b 	andeq	r1, sl, fp, lsl #14
    5b18:	31b30300 			; <UNDEFINED> instruction: 0x31b30300
    5b1c:	0300000b 	movweq	r0, #11
    5b20:	0c02b823 	stceq	8, cr11, [r2], {35}	; 0x23
    5b24:	03006556 	movweq	r6, #1366	; 0x556
    5b28:	000b31b4 			; <UNDEFINED> instruction: 0x000b31b4
    5b2c:	bc230300 	stclt	3, cr0, [r3], #-0
    5b30:	0e120b02 	vnmlseq.f64	d0, d2, d2
    5b34:	b5030000 	strlt	r0, [r3, #-0]
    5b38:	00000b31 	andeq	r0, r0, r1, lsr fp
    5b3c:	02c02303 	sbceq	r2, r0, #201326592	; 0xc000000
    5b40:	7376410c 	cmnvc	r6, #3
    5b44:	31b60300 			; <UNDEFINED> instruction: 0x31b60300
    5b48:	0300000b 	movweq	r0, #11
    5b4c:	0b02c423 	bleq	b6be0 <__standby_start+0xb6be0>
    5b50:	00000a23 	andeq	r0, r0, r3, lsr #20
    5b54:	0b31b703 	bleq	c73768 <__standby_start+0xc73768>
    5b58:	23030000 	movwcs	r0, #12288	; 0x3000
    5b5c:	8a0b02c8 	bhi	2c6684 <__standby_start+0x2c6684>
    5b60:	0300000c 	movweq	r0, #12
    5b64:	000b31b8 			; <UNDEFINED> instruction: 0x000b31b8
    5b68:	cc230300 	stcgt	3, cr0, [r3], #-0
    5b6c:	0d2f0b02 	vstmdbeq	pc!, {d0}
    5b70:	b9030000 	stmdblt	r3, {}	; <UNPREDICTABLE>
    5b74:	00000b31 	andeq	r0, r0, r1, lsr fp
    5b78:	02d02303 	sbcseq	r2, r0, #201326592	; 0xc000000
    5b7c:	000f9a0b 	andeq	r9, pc, fp, lsl #20
    5b80:	31ba0300 			; <UNDEFINED> instruction: 0x31ba0300
    5b84:	0300000b 	movweq	r0, #11
    5b88:	0b02d423 	bleq	bac1c <__standby_start+0xbac1c>
    5b8c:	00000aa3 	andeq	r0, r0, r3, lsr #21
    5b90:	0b31bb03 	bleq	c747a4 <__standby_start+0xc747a4>
    5b94:	23030000 	movwcs	r0, #12288	; 0x3000
    5b98:	e30b02d8 	movw	r0, #45784	; 0xb2d8
    5b9c:	0300000a 	movweq	r0, #10
    5ba0:	000b31bc 			; <UNDEFINED> instruction: 0x000b31bc
    5ba4:	dc230300 	stcle	3, cr0, [r3], #-0
    5ba8:	0aaf0b02 	beq	febc87b8 <__bss_end+0xebc46b8>
    5bac:	bd030000 	stclt	0, cr0, [r3, #-0]
    5bb0:	00000b31 	andeq	r0, r0, r1, lsr fp
    5bb4:	02e02303 	rsceq	r2, r0, #201326592	; 0xc000000
    5bb8:	000c950b 	andeq	r9, ip, fp, lsl #10
    5bbc:	31be0300 			; <UNDEFINED> instruction: 0x31be0300
    5bc0:	0300000b 	movweq	r0, #11
    5bc4:	0b02e423 	bleq	bec58 <__standby_start+0xbec58>
    5bc8:	00000f33 	andeq	r0, r0, r3, lsr pc
    5bcc:	0b31bf03 	bleq	c757e0 <__standby_start+0xc757e0>
    5bd0:	23030000 	movwcs	r0, #12288	; 0x3000
    5bd4:	3f0b02e8 	svccc	0x000b02e8
    5bd8:	0300000f 	movweq	r0, #15
    5bdc:	000b31c0 	andeq	r3, fp, r0, asr #3
    5be0:	ec230300 	stc	3, cr0, [r3], #-0
    5be4:	0ca00b02 	vstmiaeq	r0!, {d0}
    5be8:	c1030000 	mrsgt	r0, (UNDEF: 3)
    5bec:	00000b93 	muleq	r0, r3, fp
    5bf0:	02f02303 	rscseq	r2, r0, #201326592	; 0xc000000
    5bf4:	0010a80b 	andseq	sl, r0, fp, lsl #16
    5bf8:	31c20300 	biccc	r0, r2, r0, lsl #6
    5bfc:	0300000b 	movweq	r0, #11
    5c00:	0b038023 	bleq	e5c94 <__standby_start+0xe5c94>
    5c04:	00000b92 	muleq	r0, r2, fp
    5c08:	0b31c303 	bleq	c7681c <__standby_start+0xc7681c>
    5c0c:	23030000 	movwcs	r0, #12288	; 0x3000
    5c10:	9e0b0384 	cdpls	3, 0, cr0, cr11, cr4, {4}
    5c14:	0300000b 	movweq	r0, #11
    5c18:	000b31c4 	andeq	r3, fp, r4, asr #3
    5c1c:	88230300 	stmdahi	r3!, {r8, r9}
    5c20:	0baa0b03 	bleq	fea88834 <__bss_end+0xea84734>
    5c24:	c5030000 	strgt	r0, [r3, #-0]
    5c28:	00000b31 	andeq	r0, r0, r1, lsr fp
    5c2c:	038c2303 	orreq	r2, ip, #201326592	; 0xc000000
    5c30:	000cab0b 	andeq	sl, ip, fp, lsl #22
    5c34:	98c60300 	stmials	r6, {r8, r9}^
    5c38:	0300000b 	movweq	r0, #11
    5c3c:	0b039023 	bleq	e9cd0 <__standby_start+0xe9cd0>
    5c40:	00000bbe 			; <UNDEFINED> instruction: 0x00000bbe
    5c44:	0b31c703 	bleq	c77858 <__standby_start+0xc77858>
    5c48:	23030000 	movwcs	r0, #12288	; 0x3000
    5c4c:	660b03a0 	strvs	r0, [fp], -r0, lsr #7
    5c50:	0300000b 	movweq	r0, #11
    5c54:	000b31c8 	andeq	r3, fp, r8, asr #3
    5c58:	a4230300 	strtge	r0, [r3], #-768	; 0x300
    5c5c:	0da30b03 	stceq	11, cr0, [r3, #12]!
    5c60:	c9030000 	stmdbgt	r3, {}	; <UNPREDICTABLE>
    5c64:	00000b31 	andeq	r0, r0, r1, lsr fp
    5c68:	03a82303 			; <UNDEFINED> instruction: 0x03a82303
    5c6c:	000be80b 	andeq	lr, fp, fp, lsl #16
    5c70:	31ca0300 	biccc	r0, sl, r0, lsl #6
    5c74:	0300000b 	movweq	r0, #11
    5c78:	0b03ac23 	bleq	f0d0c <__standby_start+0xf0d0c>
    5c7c:	00000bf4 	strdeq	r0, [r0], -r4
    5c80:	0b31cb03 	bleq	c78894 <__standby_start+0xc78894>
    5c84:	23030000 	movwcs	r0, #12288	; 0x3000
    5c88:	550b03b0 	strpl	r0, [fp, #-944]	; 0x3b0
    5c8c:	0300000d 	movweq	r0, #13
    5c90:	000badcc 	andeq	sl, fp, ip, asr #27
    5c94:	b4230300 	strtlt	r0, [r3], #-768	; 0x300
    5c98:	09ed0b03 	stmibeq	sp!, {r0, r1, r8, r9, fp}^
    5c9c:	cd030000 	stcgt	0, cr0, [r3, #-0]
    5ca0:	00000b31 	andeq	r0, r0, r1, lsr fp
    5ca4:	03c02303 	biceq	r2, r0, #201326592	; 0xc000000
    5ca8:	000c490b 	andeq	r4, ip, fp, lsl #18
    5cac:	c2ce0300 	sbcgt	r0, lr, #0
    5cb0:	0300000b 	movweq	r0, #11
    5cb4:	0b03c423 	bleq	f6d48 <__standby_start+0xf6d48>
    5cb8:	00000bb6 			; <UNDEFINED> instruction: 0x00000bb6
    5cbc:	0bc7cf03 	bleq	ff1f98d0 <__bss_end+0xf1f57d0>
    5cc0:	23030000 	movwcs	r0, #12288	; 0x3000
    5cc4:	fc0b0480 	stc2	4, cr0, [fp], {128}	; 0x80
    5cc8:	0300000d 	movweq	r0, #13
    5ccc:	000b31d0 	ldrdeq	r3, [fp], -r0
    5cd0:	84230300 	strthi	r0, [r3], #-768	; 0x300
    5cd4:	105f0b04 	subsne	r0, pc, r4, lsl #22
    5cd8:	d1030000 	mrsle	r0, (UNDEF: 3)
    5cdc:	00000b31 	andeq	r0, r0, r1, lsr fp
    5ce0:	04882303 	streq	r2, [r8], #771	; 0x303
    5ce4:	0010270b 	andseq	r2, r0, fp, lsl #14
    5ce8:	31d20300 	bicscc	r0, r2, r0, lsl #6
    5cec:	0300000b 	movweq	r0, #11
    5cf0:	0b048c23 	bleq	128d84 <__standby_start+0x128d84>
    5cf4:	00000b16 	andeq	r0, r0, r6, lsl fp
    5cf8:	0bccd303 	bleq	ff33a90c <__bss_end+0xf33680c>
    5cfc:	23030000 	movwcs	r0, #12288	; 0x3000
    5d00:	fb0b0490 	blx	2c6f4a <__standby_start+0x2c6f4a>
    5d04:	0300000c 	movweq	r0, #12
    5d08:	000be1d5 	ldrdeq	lr, [fp], -r5
    5d0c:	a0230300 	eorge	r0, r3, r0, lsl #6
    5d10:	0a830b04 	beq	fe0c8928 <__bss_end+0xe0c4828>
    5d14:	d6030000 	strle	r0, [r3], -r0
    5d18:	00000b31 	andeq	r0, r0, r1, lsr fp
    5d1c:	04a42303 	strteq	r2, [r4], #771	; 0x303
    5d20:	0009df0b 	andeq	sp, r9, fp, lsl #30
    5d24:	31d70300 	bicscc	r0, r7, r0, lsl #6
    5d28:	0300000b 	movweq	r0, #11
    5d2c:	0b04a823 	bleq	12fdc0 <__standby_start+0x12fdc0>
    5d30:	00000d1a 	andeq	r0, r0, sl, lsl sp
    5d34:	0b31d803 	bleq	c7bd48 <__standby_start+0xc7bd48>
    5d38:	23030000 	movwcs	r0, #12288	; 0x3000
    5d3c:	d00b04ac 	andle	r0, fp, ip, lsr #9
    5d40:	0300000b 	movweq	r0, #11
    5d44:	000b31d9 	ldrdeq	r3, [fp], -r9
    5d48:	b0230300 	eorlt	r0, r3, r0, lsl #6
    5d4c:	0f8c0b04 	svceq	0x008c0b04
    5d50:	da030000 	ble	c5d58 <__standby_start+0xc5d58>
    5d54:	00000b31 	andeq	r0, r0, r1, lsr fp
    5d58:	04b42303 	ldrteq	r2, [r4], #771	; 0x303
    5d5c:	0010d90b 	andseq	sp, r0, fp, lsl #18
    5d60:	31db0300 	bicscc	r0, fp, r0, lsl #6
    5d64:	0300000b 	movweq	r0, #11
    5d68:	0b04b823 	bleq	133dfc <__standby_start+0x133dfc>
    5d6c:	00000b52 	andeq	r0, r0, r2, asr fp
    5d70:	0b31dc03 	bleq	c7cd84 <__standby_start+0xc7cd84>
    5d74:	23030000 	movwcs	r0, #12288	; 0x3000
    5d78:	db0b04bc 	blle	2c7070 <__standby_start+0x2c7070>
    5d7c:	0300000b 	movweq	r0, #11
    5d80:	000b31dd 	ldrdeq	r3, [fp], -sp
    5d84:	c0230300 	eorgt	r0, r3, r0, lsl #6
    5d88:	0ac80b04 	beq	ff2089a0 <__bss_end+0xf2048a0>
    5d8c:	de030000 	cdple	0, 0, cr0, cr3, cr0, {0}
    5d90:	00000b31 	andeq	r0, r0, r1, lsr fp
    5d94:	04c42303 	strbeq	r2, [r4], #771	; 0x303
    5d98:	000e3c0b 	andeq	r3, lr, fp, lsl #24
    5d9c:	31df0300 	bicscc	r0, pc, r0, lsl #6
    5da0:	0300000b 	movweq	r0, #11
    5da4:	0b04c823 	bleq	137e38 <__standby_start+0x137e38>
    5da8:	00000e75 	andeq	r0, r0, r5, ror lr
    5dac:	0b31e003 	bleq	c7ddc0 <__standby_start+0xc7ddc0>
    5db0:	23030000 	movwcs	r0, #12288	; 0x3000
    5db4:	db0b04cc 	blle	2c70ec <__standby_start+0x2c70ec>
    5db8:	0300000a 	movweq	r0, #10
    5dbc:	000b31e2 	andeq	r3, fp, r2, ror #3
    5dc0:	d0230300 	eorle	r0, r3, r0, lsl #6
    5dc4:	0e330b04 	vaddeq.f64	d0, d3, d4
    5dc8:	e3030000 	movw	r0, #12288	; 0x3000
    5dcc:	00000b31 	andeq	r0, r0, r1, lsr fp
    5dd0:	04d42303 	ldrbeq	r2, [r4], #771	; 0x303
    5dd4:	000b220b 	andeq	r2, fp, fp, lsl #4
    5dd8:	e6e50300 	strbt	r0, [r5], r0, lsl #6
    5ddc:	0300000b 	movweq	r0, #11
    5de0:	0b04d823 	bleq	13be74 <__standby_start+0x13be74>
    5de4:	00000e8e 	andeq	r0, r0, lr, lsl #29
    5de8:	0b31e603 	bleq	c7f5fc <__standby_start+0xc7f5fc>
    5dec:	23030000 	movwcs	r0, #12288	; 0x3000
    5df0:	2e0b04e0 	cfcvt64dcs	mvd0, mvdx11
    5df4:	0300000b 	movweq	r0, #11
    5df8:	000bebe7 	andeq	lr, fp, r7, ror #23
    5dfc:	e4230300 	strt	r0, [r3], #-768	; 0x300
    5e00:	0ae90b04 	beq	ffa48a18 <__bss_end+0xfa44918>
    5e04:	e8030000 	stmda	r3, {}	; <UNPREDICTABLE>
    5e08:	00000b31 	andeq	r0, r0, r1, lsr fp
    5e0c:	04f02303 	ldrbteq	r2, [r0], #771	; 0x303
    5e10:	000b3a0b 	andeq	r3, fp, fp, lsl #20
    5e14:	f0e90300 			; <UNDEFINED> instruction: 0xf0e90300
    5e18:	0300000b 	movweq	r0, #11
    5e1c:	0b04f423 	bleq	142eb0 <__standby_start+0x142eb0>
    5e20:	00000dc8 	andeq	r0, r0, r8, asr #27
    5e24:	0b31ea03 	bleq	c80638 <__standby_start+0xc80638>
    5e28:	23030000 	movwcs	r0, #12288	; 0x3000
    5e2c:	610b0580 	smlabbvs	fp, r0, r5, r0
    5e30:	0300000e 	movweq	r0, #14
    5e34:	000b31ec 	andeq	r3, fp, ip, ror #3
    5e38:	84230300 	strthi	r0, [r3], #-768	; 0x300
    5e3c:	0d600b05 	fstmdbxeq	r0!, {d16-d17}	;@ Deprecated
    5e40:	ed030000 	stc	0, cr0, [r3, #-0]
    5e44:	00000b31 	andeq	r0, r0, r1, lsr fp
    5e48:	05882303 	streq	r2, [r8, #771]	; 0x303
    5e4c:	000e050b 	andeq	r0, lr, fp, lsl #10
    5e50:	31ee0300 	mvncc	r0, r0, lsl #6
    5e54:	0300000b 	movweq	r0, #11
    5e58:	0b058c23 	bleq	168eec <__standby_start+0x168eec>
    5e5c:	00000fa6 	andeq	r0, r0, r6, lsr #31
    5e60:	0b31ef03 	bleq	c81a74 <__standby_start+0xc81a74>
    5e64:	23030000 	movwcs	r0, #12288	; 0x3000
    5e68:	460b0590 			; <UNDEFINED> instruction: 0x460b0590
    5e6c:	0300000b 	movweq	r0, #11
    5e70:	000bf5f0 	strdeq	pc, [fp], -r0
    5e74:	94230300 	strtls	r0, [r3], #-768	; 0x300
    5e78:	0de80b05 	stcleq	11, cr0, [r8, #20]!
    5e7c:	f1030000 			; <UNDEFINED> instruction: 0xf1030000
    5e80:	00000b31 	andeq	r0, r0, r1, lsr fp
    5e84:	05a42303 	streq	r2, [r4, #771]!	; 0x303
    5e88:	0010370b 	andseq	r3, r0, fp, lsl #14
    5e8c:	31f20300 	mvnscc	r0, r0, lsl #6
    5e90:	0300000b 	movweq	r0, #11
    5e94:	0b05a823 	bleq	16ff28 <__standby_start+0x16ff28>
    5e98:	00000980 	andeq	r0, r0, r0, lsl #19
    5e9c:	0b31f303 	bleq	c82ab0 <__standby_start+0xc82ab0>
    5ea0:	23030000 	movwcs	r0, #12288	; 0x3000
    5ea4:	e50b05ac 	str	r0, [fp, #-1452]	; 0x5ac
    5ea8:	0300000f 	movweq	r0, #15
    5eac:	000b31f4 	strdeq	r3, [fp], -r4
    5eb0:	b0230300 	eorlt	r0, r3, r0, lsl #6
    5eb4:	098d0b05 	stmibeq	sp, {r0, r2, r8, r9, fp}
    5eb8:	f5030000 			; <UNDEFINED> instruction: 0xf5030000
    5ebc:	00000bfa 	strdeq	r0, [r0], -sl
    5ec0:	05b42303 	ldreq	r2, [r4, #771]!	; 0x303
    5ec4:	000daa0b 	andeq	sl, sp, fp, lsl #20
    5ec8:	31f70300 	mvnscc	r0, r0, lsl #6
    5ecc:	0300000b 	movweq	r0, #11
    5ed0:	0b05c023 	bleq	175f64 <__standby_start+0x175f64>
    5ed4:	00000db4 			; <UNDEFINED> instruction: 0x00000db4
    5ed8:	0b31f803 	bleq	c83eec <__standby_start+0xc83eec>
    5edc:	23030000 	movwcs	r0, #12288	; 0x3000
    5ee0:	be0b05c4 	cfsh32lt	mvfx0, mvfx11, #-28
    5ee4:	0300000d 	movweq	r0, #13
    5ee8:	000b31f9 	strdeq	r3, [fp], -r9
    5eec:	c8230300 	stmdagt	r3!, {r8, r9}
    5ef0:	0d040b05 	vstreq	d0, [r4, #-20]	; 0xffffffec
    5ef4:	fa030000 	blx	c5efc <__standby_start+0xc5efc>
    5ef8:	00000b31 	andeq	r0, r0, r1, lsr fp
    5efc:	05cc2303 	strbeq	r2, [ip, #771]	; 0x303
    5f00:	000ecf0b 	andeq	ip, lr, fp, lsl #30
    5f04:	31fb0300 	mvnscc	r0, r0, lsl #6
    5f08:	0300000b 	movweq	r0, #11
    5f0c:	0b05d023 	bleq	179fa0 <__standby_start+0x179fa0>
    5f10:	00000d0f 	andeq	r0, r0, pc, lsl #26
    5f14:	0b31fc03 	bleq	c84f28 <__standby_start+0xc84f28>
    5f18:	23030000 	movwcs	r0, #12288	; 0x3000
    5f1c:	880b05d4 	stmdahi	fp, {r2, r4, r6, r7, r8, sl}
    5f20:	0300000b 	movweq	r0, #11
    5f24:	000b31fd 	strdeq	r3, [fp], -sp
    5f28:	d8230300 	stmdale	r3!, {r8, r9}
    5f2c:	2e0d0005 	cdpcs	0, 0, cr0, cr13, cr5, {0}
    5f30:	0d000001 	stceq	0, cr0, [r0, #-4]
    5f34:	0000005e 	andeq	r0, r0, lr, asr r0
    5f38:	0001e90d 	andeq	lr, r1, sp, lsl #18
    5f3c:	02780d00 	rsbseq	r0, r8, #0
    5f40:	110d0000 	mrsne	r0, (UNDEF: 13)
    5f44:	0e000003 	cdpeq	0, 0, cr0, cr0, cr3, {0}
    5f48:	0000005e 	andeq	r0, r0, lr, asr r0
    5f4c:	00000b55 	andeq	r0, r0, r5, asr fp
    5f50:	0000690f 	andeq	r6, r0, pc, lsl #18
    5f54:	0d000100 	stfeqs	f0, [r0, #-0]
    5f58:	00000b45 	andeq	r0, r0, r5, asr #22
    5f5c:	000b450d 	andeq	r4, fp, sp, lsl #10
    5f60:	0b450d00 	bleq	1149368 <__standby_start+0x1149368>
    5f64:	450d0000 	strmi	r0, [sp, #-0]
    5f68:	0e00000b 	cdpeq	0, 0, cr0, cr0, cr11, {0}
    5f6c:	0000005e 	andeq	r0, r0, lr, asr r0
    5f70:	00000b79 	andeq	r0, r0, r9, ror fp
    5f74:	0000690f 	andeq	r6, r0, pc, lsl #18
    5f78:	0d000600 	stceq	6, cr0, [r0, #-0]
    5f7c:	00000b69 	andeq	r0, r0, r9, ror #22
    5f80:	00005e0e 	andeq	r5, r0, lr, lsl #28
    5f84:	000b8e00 	andeq	r8, fp, r0, lsl #28
    5f88:	00690f00 	rsbeq	r0, r9, r0, lsl #30
    5f8c:	00030000 	andeq	r0, r3, r0
    5f90:	000b7e0d 	andeq	r7, fp, sp, lsl #28
    5f94:	0b7e0d00 	bleq	1f8939c <__standby_start+0x1f8939c>
    5f98:	7e0d0000 	cdpvc	0, 0, cr0, cr13, cr0, {0}
    5f9c:	0e00000b 	cdpeq	0, 0, cr0, cr0, cr11, {0}
    5fa0:	0000005e 	andeq	r0, r0, lr, asr r0
    5fa4:	00000bad 	andeq	r0, r0, sp, lsr #23
    5fa8:	0000690f 	andeq	r6, r0, pc, lsl #18
    5fac:	0d000200 	sfmeq	f0, 4, [r0, #-0]
    5fb0:	00000b9d 	muleq	r0, sp, fp
    5fb4:	00005e0e 	andeq	r5, r0, lr, lsl #28
    5fb8:	000bc200 	andeq	ip, fp, r0, lsl #4
    5fbc:	00690f00 	rsbeq	r0, r9, r0, lsl #30
    5fc0:	000e0000 	andeq	r0, lr, r0
    5fc4:	000bb20d 	andeq	fp, fp, sp, lsl #4
    5fc8:	034b0d00 	movteq	r0, #48384	; 0xbd00
    5fcc:	7e0d0000 	cdpvc	0, 0, cr0, cr13, cr0, {0}
    5fd0:	0e00000b 	cdpeq	0, 0, cr0, cr0, cr11, {0}
    5fd4:	0000005e 	andeq	r0, r0, lr, asr r0
    5fd8:	00000be1 	andeq	r0, r0, r1, ror #23
    5fdc:	0000690f 	andeq	r6, r0, pc, lsl #18
    5fe0:	0d000000 	stceq	0, cr0, [r0, #-0]
    5fe4:	00000bd1 	ldrdeq	r0, [r0], -r1
    5fe8:	000b450d 	andeq	r4, fp, sp, lsl #10
    5fec:	0b9d0d00 	bleq	fe7493f4 <__bss_end+0xe7452f4>
    5ff0:	9d0d0000 	stcls	0, cr0, [sp, #-0]
    5ff4:	0d00000b 	stceq	0, cr0, [r0, #-44]	; 0xffffffd4
    5ff8:	00000b7e 	andeq	r0, r0, lr, ror fp
    5ffc:	000b9d0d 	andeq	r9, fp, sp, lsl #26
    6000:	0fc90300 	svceq	0x00c90300
    6004:	fe030000 	cdp2	0, 0, cr0, cr3, cr0, {0}
    6008:	00000356 	andeq	r0, r0, r6, asr r3
    600c:	0bff0410 	bleq	fffc7054 <__bss_end+0xffc2f54>
    6010:	2b090000 	blcs	246018 <__standby_start+0x246018>
    6014:	08000023 	stmdaeq	r0, {r0, r1, r5}
    6018:	0c391804 	ldceq	8, cr1, [r9], #-16
    601c:	2d0b0000 	stccs	0, cr0, [fp, #-0]
    6020:	04000022 	streq	r0, [r0], #-34	; 0x22
    6024:	00005e19 	andeq	r5, r0, r9, lsl lr
    6028:	00230200 	eoreq	r0, r3, r0, lsl #4
    602c:	0022aa0b 	eoreq	sl, r2, fp, lsl #20
    6030:	5e1a0400 	cfmulspl	mvf0, mvf10, mvf0
    6034:	02000000 	andeq	r0, r0, #0
    6038:	09000423 	stmdbeq	r0, {r0, r1, r5, sl}
    603c:	00002345 	andeq	r2, r0, r5, asr #6
    6040:	181d043c 	ldmdane	sp, {r2, r3, r4, r5, sl}
    6044:	0b00000d 	bleq	6080 <__standby_start+0x6080>
    6048:	0000235a 	andeq	r2, r0, sl, asr r3
    604c:	005e1e04 	subseq	r1, lr, r4, lsl #28
    6050:	23020000 	movwcs	r0, #8192	; 0x2000
    6054:	23500b00 	cmpcs	r0, #0
    6058:	1f040000 	svcne	0x00040000
    605c:	0000005e 	andeq	r0, r0, lr, asr r0
    6060:	0b042302 	bleq	10ec70 <__standby_start+0x10ec70>
    6064:	000022b6 			; <UNDEFINED> instruction: 0x000022b6
    6068:	005e2004 	subseq	r2, lr, r4
    606c:	23020000 	movwcs	r0, #8192	; 0x2000
    6070:	22530b08 	subscs	r0, r3, #8192	; 0x2000
    6074:	2b040000 	blcs	10607c <__standby_start+0x10607c>
    6078:	0000005e 	andeq	r0, r0, lr, asr r0
    607c:	0b0c2302 	bleq	30ec8c <__standby_start+0x30ec8c>
    6080:	00000e33 	andeq	r0, r0, r3, lsr lr
    6084:	005e2c04 	subseq	r2, lr, r4, lsl #24
    6088:	23020000 	movwcs	r0, #8192	; 0x2000
    608c:	0c400b10 	vmoveq	d0, r0, r0
    6090:	2d040000 	stccs	0, cr0, [r4, #-0]
    6094:	0000005e 	andeq	r0, r0, lr, asr r0
    6098:	0b142302 	bleq	50eca8 <__standby_start+0x50eca8>
    609c:	00000d75 	andeq	r0, r0, r5, ror sp
    60a0:	005e2e04 	subseq	r2, lr, r4, lsl #28
    60a4:	23020000 	movwcs	r0, #8192	; 0x2000
    60a8:	0a470b18 	beq	11c8d10 <__standby_start+0x11c8d10>
    60ac:	2f040000 	svccs	0x00040000
    60b0:	0000005e 	andeq	r0, r0, lr, asr r0
    60b4:	0b1c2302 	bleq	70ecc4 <__standby_start+0x70ecc4>
    60b8:	00000a0f 	andeq	r0, r0, pc, lsl #20
    60bc:	005e3004 	subseq	r3, lr, r4
    60c0:	23020000 	movwcs	r0, #8192	; 0x2000
    60c4:	09df0b20 	ldmibeq	pc, {r5, r8, r9, fp}^	; <UNPREDICTABLE>
    60c8:	31040000 	mrscc	r0, (UNDEF: 4)
    60cc:	0000005e 	andeq	r0, r0, lr, asr r0
    60d0:	0b242302 	bleq	90ece0 <__standby_start+0x90ece0>
    60d4:	00000d1a 	andeq	r0, r0, sl, lsl sp
    60d8:	005e3204 	subseq	r3, lr, r4, lsl #4
    60dc:	23020000 	movwcs	r0, #8192	; 0x2000
    60e0:	0f8c0b28 	svceq	0x008c0b28
    60e4:	33040000 	movwcc	r0, #16384	; 0x4000
    60e8:	0000005e 	andeq	r0, r0, lr, asr r0
    60ec:	0b2c2302 	bleq	b0ecfc <__standby_start+0xb0ecfc>
    60f0:	00000d60 	andeq	r0, r0, r0, ror #26
    60f4:	005e3404 	subseq	r3, lr, r4, lsl #8
    60f8:	23020000 	movwcs	r0, #8192	; 0x2000
    60fc:	10370b30 	eorsne	r0, r7, r0, lsr fp
    6100:	35040000 	strcc	r0, [r4, #-0]
    6104:	0000005e 	andeq	r0, r0, lr, asr r0
    6108:	0b342302 	bleq	d0ed18 <__standby_start+0xd0ed18>
    610c:	00000b06 	andeq	r0, r0, r6, lsl #22
    6110:	005e3604 	subseq	r3, lr, r4, lsl #12
    6114:	23020000 	movwcs	r0, #8192	; 0x2000
    6118:	08090038 	stmdaeq	r9, {r3, r4, r5}
    611c:	08000023 	stmdaeq	r0, {r0, r1, r5}
    6120:	0d6b3b04 	vstmdbeq	fp!, {d19-d20}
    6124:	fe0b0000 	cdp2	0, 0, cr0, cr11, cr0, {0}
    6128:	0400000a 	streq	r0, [r0], #-10
    612c:	00002c3c 	andeq	r2, r0, ip, lsr ip
    6130:	00230200 	eoreq	r0, r3, r0, lsl #4
    6134:	00228b0b 	eoreq	r8, r2, fp, lsl #22
    6138:	2c3d0400 	cfldrscs	mvf0, [sp], #-0
    613c:	02000000 	andeq	r0, r0, #0
    6140:	f60b0123 			; <UNDEFINED> instruction: 0xf60b0123
    6144:	0400000a 	streq	r0, [r0], #-10
    6148:	00002c3e 	andeq	r2, r0, lr, lsr ip
    614c:	02230200 	eoreq	r0, r3, #0
    6150:	000b0e0b 	andeq	r0, fp, fp, lsl #28
    6154:	2c3f0400 	cfldrscs	mvf0, [pc], #-0	; 615c <__standby_start+0x615c>
    6158:	02000000 	andeq	r0, r0, #0
    615c:	500c0323 	andpl	r0, ip, r3, lsr #6
    6160:	04006c6c 	streq	r6, [r0], #-3180	; 0xc6c
    6164:	00005e40 	andeq	r5, r0, r0, asr #28
    6168:	04230200 	strteq	r0, [r3], #-512	; 0x200
    616c:	05890900 	streq	r0, [r9, #2304]	; 0x900
    6170:	04400000 	strbeq	r0, [r0], #-0
    6174:	000d9443 	andeq	r9, sp, r3, asr #8
    6178:	0f6c0b00 	svceq	0x006c0b00
    617c:	44040000 	strmi	r0, [r4], #-0
    6180:	00000c0a 	andeq	r0, r0, sl, lsl #24
    6184:	0b002302 	bleq	ed94 <__standby_start+0xed94>
    6188:	000022bf 			; <UNDEFINED> instruction: 0x000022bf
    618c:	0bb24504 	bleq	fec975a4 <__bss_end+0xec934a4>
    6190:	23020000 	movwcs	r0, #8192	; 0x2000
    6194:	77110004 	ldrvc	r0, [r1, -r4]
    6198:	04000008 	streq	r0, [r0], #-8
    619c:	0e018905 	cdpeq	9, 0, cr8, cr1, cr5, {0}
    61a0:	af120000 	svcge	0x00120000
    61a4:	00000006 	andeq	r0, r0, r6
    61a8:	00033d12 	andeq	r3, r3, r2, lsl sp
    61ac:	68120100 	ldmdavs	r2, {r8}
    61b0:	02000007 	andeq	r0, r0, #7
    61b4:	00033112 	andeq	r3, r3, r2, lsl r1
    61b8:	37120300 	ldrcc	r0, [r2, -r0, lsl #6]
    61bc:	04000004 	streq	r0, [r0], #-4
    61c0:	0006bc12 	andeq	fp, r6, r2, lsl ip
    61c4:	f0120500 			; <UNDEFINED> instruction: 0xf0120500
    61c8:	06000003 	streq	r0, [r0], -r3
    61cc:	00086112 	andeq	r6, r8, r2, lsl r1
    61d0:	6a120700 	bvs	487dd8 <__standby_start+0x487dd8>
    61d4:	08000004 	stmdaeq	r0, {r2}
    61d8:	00090212 	andeq	r0, r9, r2, lsl r2
    61dc:	4a120900 	bmi	4885e4 <__standby_start+0x4885e4>
    61e0:	0a000006 	beq	6200 <__standby_start+0x6200>
    61e4:	00067212 	andeq	r7, r6, r2, lsl r2
    61e8:	71120b00 	tstvc	r2, r0, lsl #22
    61ec:	0c000008 	stceq	0, cr0, [r0], {8}
    61f0:	0007c212 	andeq	ip, r7, r2, lsl r2
    61f4:	29120d00 	ldmdbcs	r2, {r8, sl, fp}
    61f8:	0e000006 	cdpeq	0, 0, cr0, cr0, cr6, {0}
    61fc:	00080012 	andeq	r0, r8, r2, lsl r0
    6200:	02000f00 	andeq	r0, r0, #0
    6204:	07b60801 	ldreq	r0, [r6, r1, lsl #16]!
    6208:	04020000 	streq	r0, [r2], #-0
    620c:	00024f07 	andeq	r4, r2, r7, lsl #30
    6210:	35011300 	strcc	r1, [r1, #-768]	; 0x300
    6214:	01000022 	tsteq	r0, r2, lsr #32
    6218:	0c0a0115 	stfeqs	f0, [sl], {21}
    621c:	2d600000 	stclcs	0, cr0, [r0, #-0]
    6220:	2d90f000 	ldccs	0, cr15, [r0]
    6224:	7d02f000 	stcvc	0, cr15, [r2, #-0]
    6228:	000e3b00 	andeq	r3, lr, r0, lsl #22
    622c:	1bd31400 	blne	ff4cb234 <__bss_end+0xf4c7134>
    6230:	15010000 	strne	r0, [r1, #-0]
    6234:	0000005e 	andeq	r0, r0, lr, asr r0
    6238:	0000220e 	andeq	r2, r0, lr, lsl #4
    623c:	15011500 	strne	r1, [r1, #-1280]	; 0x500
    6240:	01000023 	tsteq	r0, r3, lsr #32
    6244:	0c0a012e 	stfeqs	f0, [sl], {46}	; 0x2e
    6248:	2d900000 	ldccs	0, cr0, [r0]
    624c:	2da0f000 	stccs	0, cr15, [r0]
    6250:	7d02f000 	stcvc	0, cr15, [r2, #-0]
    6254:	e3011300 	movw	r1, #4864	; 0x1300
    6258:	01000022 	tsteq	r0, r2, lsr #32
    625c:	004c0155 	subeq	r0, ip, r5, asr r1
    6260:	2da00000 	stccs	0, cr0, [r0]
    6264:	2ddcf000 	ldclcs	0, cr15, [ip]
    6268:	7d02f000 	stcvc	0, cr15, [r2, #-0]
    626c:	000e7f00 	andeq	r7, lr, r0, lsl #30
    6270:	23201400 	teqcs	r0, #0
    6274:	55010000 	strpl	r0, [r1, #-0]
    6278:	00000e7f 	andeq	r0, r0, pc, ror lr
    627c:	00002221 	andeq	r2, r0, r1, lsr #4
    6280:	6b041000 	blvs	10a288 <__standby_start+0x10a288>
    6284:	1300000d 	movwne	r0, #13
    6288:	00233501 	eoreq	r3, r3, r1, lsl #10
    628c:	01700100 	cmneq	r0, r0, lsl #2
    6290:	0000004c 	andeq	r0, r0, ip, asr #32
    6294:	f0002ddc 			; <UNDEFINED> instruction: 0xf0002ddc
    6298:	f0002e10 			; <UNDEFINED> instruction: 0xf0002e10
    629c:	b1007d02 	tstlt	r0, r2, lsl #26
    62a0:	1400000e 	strne	r0, [r0], #-14
    62a4:	00002320 	andeq	r2, r0, r0, lsr #6
    62a8:	0e7f7001 	cdpeq	0, 7, cr7, cr15, cr1, {0}
    62ac:	223f0000 	eorscs	r0, pc, #0
    62b0:	16000000 	strne	r0, [r0], -r0
    62b4:	0022f901 	eoreq	pc, r2, r1, lsl #18
    62b8:	018e0100 	orreq	r0, lr, r0, lsl #2
    62bc:	0000004c 	andeq	r0, r0, ip, asr #32
    62c0:	f0002e10 			; <UNDEFINED> instruction: 0xf0002e10
    62c4:	f0002e80 			; <UNDEFINED> instruction: 0xf0002e80
    62c8:	0000225d 	andeq	r2, r0, sp, asr r2
    62cc:	00000ede 	ldrdeq	r0, [r0], -lr
    62d0:	0022a214 	eoreq	sl, r2, r4, lsl r2
    62d4:	de8e0100 	rmflee	f0, f6, f0
    62d8:	7d00000e 	stcvc	0, cr0, [r0, #-56]	; 0xffffffc8
    62dc:	00000022 	andeq	r0, r0, r2, lsr #32
    62e0:	0c100410 	cfldrseq	mvf0, [r0], {16}
    62e4:	01160000 	tsteq	r6, r0
    62e8:	00002293 	muleq	r0, r3, r2
    62ec:	4c01b301 	stcmi	3, cr11, [r1], {1}
    62f0:	80000000 	andhi	r0, r0, r0
    62f4:	c8f0002e 	ldmgt	r0!, {r1, r2, r3, r5}^
    62f8:	9bf0002e 	blls	ffc063b8 <__bss_end+0xfc022b8>
    62fc:	11000022 	tstne	r0, r2, lsr #32
    6300:	1400000f 	strne	r0, [r0], #-15
    6304:	000022a2 	andeq	r2, r0, r2, lsr #5
    6308:	0edeb301 	cdpeq	3, 13, cr11, cr14, cr1, {0}
    630c:	22bb0000 	adcscs	r0, fp, #0
    6310:	16000000 	strne	r0, [r0], -r0
    6314:	00225f01 	eoreq	r5, r2, r1, lsl #30
    6318:	01cd0100 	biceq	r0, sp, r0, lsl #2
    631c:	0000004c 	andeq	r0, r0, ip, asr #32
    6320:	f0002ec8 			; <UNDEFINED> instruction: 0xf0002ec8
    6324:	f0002f1c 			; <UNDEFINED> instruction: 0xf0002f1c
    6328:	000022d9 	ldrdeq	r2, [r0], -r9
    632c:	00000f3e 	andeq	r0, r0, lr, lsr pc
    6330:	0022d814 	eoreq	sp, r2, r4, lsl r8
    6334:	3ecd0100 	polcce	f0, f5, f0
    6338:	f900000f 			; <UNDEFINED> instruction: 0xf900000f
    633c:	00000022 	andeq	r0, r0, r2, lsr #32
    6340:	0d180410 	cfldrseq	mvf0, [r8, #-64]	; 0xffffffc0
    6344:	01160000 	tsteq	r6, r0
    6348:	000022cc 	andeq	r2, r0, ip, asr #5
    634c:	4c01ed01 	stcmi	13, cr14, [r1], {1}
    6350:	1c000000 	stcne	0, cr0, [r0], {-0}
    6354:	64f0002f 	ldrbtvs	r0, [r0], #47	; 0x2f
    6358:	17f0002f 	ldrbne	r0, [r0, pc, lsr #32]!
    635c:	71000023 	tstvc	r0, r3, lsr #32
    6360:	1400000f 	strne	r0, [r0], #-15
    6364:	000022d8 	ldrdeq	r2, [r0], -r8
    6368:	0f3eed01 	svceq	0x003eed01
    636c:	23370000 	teqcs	r7, #0
    6370:	17000000 	strne	r0, [r0, -r0]
    6374:	00224201 	eoreq	r4, r2, r1, lsl #4
    6378:	010a0100 	mrseq	r0, (UNDEF: 26)
    637c:	00004c01 	andeq	r4, r0, r1, lsl #24
    6380:	002f6400 	eoreq	r6, pc, r0, lsl #8
    6384:	003018f0 	ldrshteq	r1, [r0], -r0
    6388:	007d02f0 	ldrshteq	r0, [sp], #-32	; 0xffffffe0
    638c:	00000f9f 	muleq	r0, pc, pc	; <UNPREDICTABLE>
    6390:	0022f018 	eoreq	pc, r2, r8, lsl r0	; <UNPREDICTABLE>
    6394:	010a0100 	mrseq	r0, (UNDEF: 26)
    6398:	00000f9f 	muleq	r0, pc, pc	; <UNPREDICTABLE>
    639c:	00002355 	andeq	r2, r0, r5, asr r3
    63a0:	39041000 	stmdbcc	r4, {ip}
    63a4:	1700000c 	strne	r0, [r0, -ip]
    63a8:	00221c01 	eoreq	r1, r2, r1, lsl #24
    63ac:	01420100 	mrseq	r0, (UNDEF: 82)
    63b0:	00004c01 	andeq	r4, r0, r1, lsl #24
    63b4:	00301800 	eorseq	r1, r0, r0, lsl #16
    63b8:	0030a8f0 	ldrshteq	sl, [r0], -r0
    63bc:	007d02f0 	ldrshteq	r0, [sp], #-32	; 0xffffffe0
    63c0:	00000fd3 	ldrdeq	r0, [r0], -r3
    63c4:	0022f018 	eoreq	pc, r2, r8, lsl r0	; <UNPREDICTABLE>
    63c8:	01420100 	mrseq	r0, (UNDEF: 82)
    63cc:	00000f9f 	muleq	r0, pc, pc	; <UNPREDICTABLE>
    63d0:	00002373 	andeq	r2, r0, r3, ror r3
    63d4:	76011900 	strvc	r1, [r1], -r0, lsl #18
    63d8:	01000022 	tsteq	r0, r2, lsr #32
    63dc:	5e010170 	fltplsz	f1, r0
    63e0:	a8000000 	stmdage	r0, {}	; <UNPREDICTABLE>
    63e4:	04f00030 	ldrbteq	r0, [r0], #48	; 0x30
    63e8:	91f00031 	mvnsls	r0, r1, lsr r0
    63ec:	4f000023 	svcmi	0x00000023
    63f0:	1a000010 	bne	6438 <__standby_start+0x6438>
    63f4:	00000afe 	strdeq	r0, [r0], -lr
    63f8:	5e017201 	cdppl	2, 0, cr7, cr1, cr1, {0}
    63fc:	b1000000 	mrslt	r0, (UNDEF: 0)
    6400:	1b000023 	blne	6494 <__standby_start+0x6494>
    6404:	0000228b 	andeq	r2, r0, fp, lsl #5
    6408:	5e017301 	cdppl	3, 0, cr7, cr1, cr1, {0}
    640c:	01000000 	mrseq	r0, (UNDEF: 0)
    6410:	000af61a 	andeq	pc, sl, sl, lsl r6	; <UNPREDICTABLE>
    6414:	01740100 	cmneq	r4, r0, lsl #2
    6418:	0000005e 	andeq	r0, r0, lr, asr r0
    641c:	000023d0 	ldrdeq	r2, [r0], -r0
    6420:	000b0e1a 	andeq	r0, fp, sl, lsl lr
    6424:	01750100 	cmneq	r5, r0, lsl #2
    6428:	0000005e 	andeq	r0, r0, lr, asr r0
    642c:	000023f1 	strdeq	r2, [r0], -r1
    6430:	00136c1a 	andseq	r6, r3, sl, lsl ip
    6434:	01760100 	cmneq	r6, r0, lsl #2
    6438:	0000005e 	andeq	r0, r0, lr, asr r0
    643c:	00002410 	andeq	r2, r0, r0, lsl r4
    6440:	0022821a 	eoreq	r8, r2, sl, lsl r2
    6444:	01770100 	cmneq	r7, r0, lsl #2
    6448:	0000005e 	andeq	r0, r0, lr, asr r0
    644c:	00002424 	andeq	r2, r0, r4, lsr #8
    6450:	0f6c1c00 	svceq	0x006c1c00
    6454:	04010000 	streq	r0, [r1], #-0
    6458:	00000c0a 	andeq	r0, r0, sl, lsl #24
    645c:	3ea40305 	cdpcc	3, 10, cr0, cr4, cr5, {0}
    6460:	901cf000 	andsls	pc, ip, r0
    6464:	0100000a 	tsteq	r0, sl
    6468:	00012e35 	andeq	r2, r1, r5, lsr lr
    646c:	ac030500 	cfstr32ge	mvfx0, [r3], {-0}
    6470:	1cf0003e 	ldclne	0, cr0, [r0], #248	; 0xf8
    6474:	00000fb4 			; <UNDEFINED> instruction: 0x00000fb4
    6478:	01e93601 	mvneq	r3, r1, lsl #12
    647c:	03050000 	movweq	r0, #20480	; 0x5000
    6480:	f0003ea8 			; <UNDEFINED> instruction: 0xf0003ea8
    6484:	0006a400 	andeq	sl, r6, r0, lsl #8
    6488:	d3000200 	movwle	r0, #512	; 0x200
    648c:	04000018 	streq	r0, [r0], #-24
    6490:	0003fd01 	andeq	pc, r3, r1, lsl #26
    6494:	24470100 	strbcs	r0, [r7], #-256	; 0x100
    6498:	05350000 	ldreq	r0, [r5, #-0]!
    649c:	31040000 	mrscc	r0, (UNDEF: 4)
    64a0:	336cf000 	msrcc	SPSR_fs, #0
    64a4:	171ff000 	ldrne	pc, [pc, -r0]
    64a8:	01020000 	mrseq	r0, (UNDEF: 2)
    64ac:	0007af06 	andeq	sl, r7, r6, lsl #30
    64b0:	08010200 	stmdaeq	r1, {r9}
    64b4:	000007ad 	andeq	r0, r0, sp, lsr #15
    64b8:	68050202 	stmdavs	r5, {r1, r9}
    64bc:	02000006 	andeq	r0, r0, #6
    64c0:	087f0702 	ldmdaeq	pc!, {r1, r8, r9, sl}^	; <UNPREDICTABLE>
    64c4:	04030000 	streq	r0, [r3], #-0
    64c8:	746e6905 	strbtvc	r6, [lr], #-2309	; 0x905
    64cc:	07040200 	streq	r0, [r4, -r0, lsl #4]
    64d0:	00000254 	andeq	r0, r0, r4, asr r2
    64d4:	7d050802 	stcvc	8, cr0, [r5, #-8]
    64d8:	02000004 	andeq	r0, r0, #4
    64dc:	024a0708 	subeq	r0, sl, #2097152	; 0x200000
    64e0:	77040000 	strvc	r0, [r4, -r0]
    64e4:	04000008 	streq	r0, [r0], #-8
    64e8:	00ca8904 	sbceq	r8, sl, r4, lsl #18
    64ec:	af050000 	svcge	0x00050000
    64f0:	00000006 	andeq	r0, r0, r6
    64f4:	00033d05 	andeq	r3, r3, r5, lsl #26
    64f8:	68050100 	stmdavs	r5, {r8}
    64fc:	02000007 	andeq	r0, r0, #7
    6500:	00033105 	andeq	r3, r3, r5, lsl #2
    6504:	37050300 	strcc	r0, [r5, -r0, lsl #6]
    6508:	04000004 	streq	r0, [r0], #-4
    650c:	0006bc05 	andeq	fp, r6, r5, lsl #24
    6510:	f0050500 			; <UNDEFINED> instruction: 0xf0050500
    6514:	06000003 	streq	r0, [r0], -r3
    6518:	00086105 	andeq	r6, r8, r5, lsl #2
    651c:	6a050700 	bvs	148124 <__standby_start+0x148124>
    6520:	08000004 	stmdaeq	r0, {r2}
    6524:	00090205 	andeq	r0, r9, r5, lsl #4
    6528:	4a050900 	bmi	148930 <__standby_start+0x148930>
    652c:	0a000006 	beq	654c <__standby_start+0x654c>
    6530:	00067205 	andeq	r7, r6, r5, lsl #4
    6534:	71050b00 	tstvc	r5, r0, lsl #22
    6538:	0c000008 	stceq	0, cr0, [r0], {8}
    653c:	0007c205 	andeq	ip, r7, r5, lsl #4
    6540:	29050d00 	stmdbcs	r5, {r8, sl, fp}
    6544:	0e000006 	cdpeq	0, 0, cr0, cr0, cr6, {0}
    6548:	00080005 	andeq	r0, r8, r5
    654c:	02000f00 	andeq	r0, r0, #0
    6550:	07b60801 	ldreq	r0, [r6, r1, lsl #16]!
    6554:	0c060000 	stceq	0, cr0, [r6], {-0}
    6558:	10000003 	andne	r0, r0, r3
    655c:	01166802 	tsteq	r6, r2, lsl #16
    6560:	49070000 	stmdbmi	r7, {}	; <UNPREDICTABLE>
    6564:	02000004 	andeq	r0, r0, #4
    6568:	00004869 	andeq	r4, r0, r9, ror #16
    656c:	00230200 	eoreq	r0, r3, r0, lsl #4
    6570:	00007907 	andeq	r7, r0, r7, lsl #18
    6574:	486a0200 	stmdami	sl!, {r9}^
    6578:	02000000 	andeq	r0, r0, #0
    657c:	81070423 	tsthi	r7, r3, lsr #8
    6580:	02000000 	andeq	r0, r0, #0
    6584:	0000486b 	andeq	r4, r0, fp, ror #16
    6588:	08230200 	stmdaeq	r3!, {r9}
    658c:	00008907 	andeq	r8, r0, r7, lsl #18
    6590:	486c0200 	stmdami	ip!, {r9}^
    6594:	02000000 	andeq	r0, r0, #0
    6598:	08000c23 	stmdaeq	r0, {r0, r1, r5, sl, fp}
    659c:	00000635 	andeq	r0, r0, r5, lsr r6
    65a0:	00d16d02 	sbcseq	r6, r1, r2, lsl #26
    65a4:	11060000 	mrsne	r0, (UNDEF: 6)
    65a8:	14000005 	strne	r0, [r0], #-5
    65ac:	01707702 	cmneq	r0, r2, lsl #14
    65b0:	73090000 	movwvc	r0, #36864	; 0x9000
    65b4:	02006372 	andeq	r6, r0, #-939524095	; 0xc8000001
    65b8:	00004878 	andeq	r4, r0, r8, ror r8
    65bc:	00230200 	eoreq	r0, r3, r0, lsl #4
    65c0:	00039507 	andeq	r9, r3, r7, lsl #10
    65c4:	48790200 	ldmdami	r9!, {r9}^
    65c8:	02000000 	andeq	r0, r0, #0
    65cc:	da070423 	ble	1c7660 <__standby_start+0x1c7660>
    65d0:	02000003 	andeq	r0, r0, #3
    65d4:	0000487a 	andeq	r4, r0, sl, ror r8
    65d8:	08230200 	stmdaeq	r3!, {r9}
    65dc:	02006e09 	andeq	r6, r0, #144	; 0x90
    65e0:	0000487b 	andeq	r4, r0, fp, ror r8
    65e4:	0c230200 	sfmeq	f0, 4, [r3], #-0
    65e8:	02006d09 	andeq	r6, r0, #576	; 0x240
    65ec:	0000487c 	andeq	r4, r0, ip, ror r8
    65f0:	10230200 	eorne	r0, r3, r0, lsl #4
    65f4:	03010800 	movweq	r0, #6144	; 0x1800
    65f8:	7d020000 	stcvc	0, cr0, [r2, #-0]
    65fc:	00000121 	andeq	r0, r0, r1, lsr #2
    6600:	0005e706 	andeq	lr, r5, r6, lsl #14
    6604:	c0022800 	andgt	r2, r2, r0, lsl #16
    6608:	000001b2 			; <UNDEFINED> instruction: 0x000001b2
    660c:	00058d07 	andeq	r8, r5, r7, lsl #26
    6610:	48c60200 	stmiami	r6, {r9}^
    6614:	02000000 	andeq	r0, r0, #0
    6618:	0a070023 	beq	1c66ac <__standby_start+0x1c66ac>
    661c:	02000001 	andeq	r0, r0, #1
    6620:	000048c7 	andeq	r4, r0, r7, asr #17
    6624:	04230200 	strteq	r0, [r3], #-512	; 0x200
    6628:	0013b407 	andseq	fp, r3, r7, lsl #8
    662c:	b2d20200 	sbcslt	r0, r2, #0
    6630:	02000001 	andeq	r0, r0, #1
    6634:	0a000823 	beq	86c8 <__standby_start+0x86c8>
    6638:	0000003a 	andeq	r0, r0, sl, lsr r0
    663c:	000001c2 	andeq	r0, r0, r2, asr #3
    6640:	0000480b 	andeq	r4, r0, fp, lsl #16
    6644:	08000e00 	stmdaeq	r0, {r9, sl, fp}
    6648:	00000091 	muleq	r0, r1, r0
    664c:	017bd302 	cmneq	fp, r2, lsl #6
    6650:	42060000 	andmi	r0, r6, #0
    6654:	10000007 	andne	r0, r0, r7
    6658:	0212d502 	andseq	sp, r2, #8388608	; 0x800000
    665c:	f4070000 	vst4.8	{d0-d3}, [r7], r0
    6660:	02000005 	andeq	r0, r0, #5
    6664:	000048d6 	ldrdeq	r4, [r0], -r6
    6668:	00230200 	eoreq	r0, r3, r0, lsl #4
    666c:	00024307 	andeq	r4, r2, r7, lsl #6
    6670:	48d70200 	ldmmi	r7, {r9}^
    6674:	02000000 	andeq	r0, r0, #0
    6678:	0e070423 	cdpeq	4, 0, cr0, cr7, cr3, {1}
    667c:	02000008 	andeq	r0, r0, #8
    6680:	000048d8 	ldrdeq	r4, [r0], -r8
    6684:	08230200 	stmdaeq	r3!, {r9}
    6688:	0005db07 	andeq	sp, r5, r7, lsl #22
    668c:	48d90200 	ldmmi	r9, {r9}^
    6690:	02000000 	andeq	r0, r0, #0
    6694:	08000c23 	stmdaeq	r0, {r0, r1, r5, sl, fp}
    6698:	00000593 	muleq	r0, r3, r5
    669c:	01cdda02 	biceq	sp, sp, r2, lsl #20
    66a0:	df060000 	svcle	0x00060000
    66a4:	0c000000 	stceq	0, cr0, [r0], {-0}
    66a8:	0254e002 	subseq	lr, r4, #2
    66ac:	19070000 	stmdbne	r7, {}	; <UNPREDICTABLE>
    66b0:	02000002 	andeq	r0, r0, #2
    66b4:	000254e1 	andeq	r5, r2, r1, ror #9
    66b8:	00230200 	eoreq	r0, r3, r0, lsl #4
    66bc:	00057907 	andeq	r7, r5, r7, lsl #18
    66c0:	48e20200 	stmiami	r2!, {r9}^
    66c4:	02000000 	andeq	r0, r0, #0
    66c8:	16070423 	strne	r0, [r7], -r3, lsr #8
    66cc:	02000013 	andeq	r0, r0, #19
    66d0:	000048e3 	andeq	r4, r0, r3, ror #17
    66d4:	08230200 	stmdaeq	r3!, {r9}
    66d8:	48040c00 	stmdami	r4, {sl, fp}
    66dc:	08000000 	stmdaeq	r0, {}	; <UNPREDICTABLE>
    66e0:	0000090d 	andeq	r0, r0, sp, lsl #18
    66e4:	021de402 	andseq	lr, sp, #33554432	; 0x2000000
    66e8:	e4060000 	str	r0, [r6], #-0
    66ec:	1c000003 	stcne	0, cr0, [r0], {3}
    66f0:	028ee602 	addeq	lr, lr, #2097152	; 0x200000
    66f4:	c0070000 	andgt	r0, r7, r0
    66f8:	02000008 	andeq	r0, r0, #8
    66fc:	000048f0 	strdeq	r4, [r0], -r0
    6700:	00230200 	eoreq	r0, r3, r0, lsl #4
    6704:	0007e707 	andeq	lr, r7, r7, lsl #14
    6708:	8ef70200 	cdphi	2, 15, cr0, cr7, cr0, {0}
    670c:	02000002 	andeq	r0, r0, #2
    6710:	0a000423 	beq	77a4 <__standby_start+0x77a4>
    6714:	0000025a 	andeq	r0, r0, sl, asr r2
    6718:	0000029e 	muleq	r0, lr, r2
    671c:	0000480b 	andeq	r4, r0, fp, lsl #16
    6720:	08000100 	stmdaeq	r0, {r8}
    6724:	00000498 	muleq	r0, r8, r4
    6728:	0265f802 	rsbeq	pc, r5, #131072	; 0x20000
    672c:	9f0d0000 	svcls	0x000d0000
    6730:	64000005 	strvs	r0, [r0], #-5
    6734:	22fa0201 	rscscs	r0, sl, #268435456	; 0x10000000
    6738:	0e000003 	cdpeq	0, 0, cr0, cr0, cr3, {0}
    673c:	000000b7 	strheq	r0, [r0], -r7
    6740:	41010102 	tstmi	r1, r2, lsl #2
    6744:	02000000 	andeq	r0, r0, #0
    6748:	e90e0023 	stmdb	lr, {r0, r1, r5}
    674c:	02000002 	andeq	r0, r0, #2
    6750:	0041010e 	subeq	r0, r1, lr, lsl #2
    6754:	23020000 	movwcs	r0, #8192	; 0x2000
    6758:	08180e04 	ldmdaeq	r8, {r2, r9, sl, fp}
    675c:	14020000 	strne	r0, [r2], #-0
    6760:	00004101 	andeq	r4, r0, r1, lsl #2
    6764:	08230200 	stmdaeq	r3!, {r9}
    6768:	00021f0e 	andeq	r1, r2, lr, lsl #30
    676c:	01190200 	tsteq	r9, r0, lsl #4
    6770:	00000041 	andeq	r0, r0, r1, asr #32
    6774:	0e0c2302 	cdpeq	3, 0, cr2, cr12, cr2, {0}
    6778:	000022d8 	ldrdeq	r2, [r0], -r8
    677c:	22011f02 	andcs	r1, r1, #8
    6780:	02000003 	andeq	r0, r0, #3
    6784:	ca0e1023 	bgt	38a818 <__standby_start+0x38a818>
    6788:	02000008 	andeq	r0, r0, #8
    678c:	0041014d 	subeq	r0, r1, sp, asr #2
    6790:	23030000 	movwcs	r0, #12288	; 0x3000
    6794:	930e01c0 	movwls	r0, #57792	; 0xe1c0
    6798:	02000002 	andeq	r0, r0, #2
    679c:	03320153 	teqeq	r2, #-1073741804	; 0xc0000014
    67a0:	23030000 	movwcs	r0, #12288	; 0x3000
    67a4:	0a0001c4 	beq	6ebc <__standby_start+0x6ebc>
    67a8:	00000116 	andeq	r0, r0, r6, lsl r1
    67ac:	00000332 	andeq	r0, r0, r2, lsr r3
    67b0:	0000480b 	andeq	r4, r0, fp, lsl #16
    67b4:	0a000a00 	beq	8fbc <__standby_start+0x8fbc>
    67b8:	00000170 	andeq	r0, r0, r0, ror r1
    67bc:	00000342 	andeq	r0, r0, r2, asr #6
    67c0:	0000480b 	andeq	r4, r0, fp, lsl #16
    67c4:	0f000700 	svceq	0x00000700
    67c8:	0000051a 	andeq	r0, r0, sl, lsl r5
    67cc:	a9015502 	stmdbge	r1, {r1, r8, sl, ip, lr}
    67d0:	02000002 	andeq	r0, r0, #2
    67d4:	024f0704 	subeq	r0, pc, #1048576	; 0x100000
    67d8:	9f100000 	svcls	0x00100000
    67dc:	c4000002 	strgt	r0, [r0], #-2
    67e0:	01640201 	cmneq	r4, r1, lsl #4
    67e4:	000003cc 	andeq	r0, r0, ip, asr #7
    67e8:	00646911 	rsbeq	r6, r4, r1, lsl r9
    67ec:	4e016802 	cdpmi	8, 0, cr6, cr1, cr2, {0}
    67f0:	02000003 	andeq	r0, r0, #3
    67f4:	760e0023 	strvc	r0, [lr], -r3, lsr #32
    67f8:	02000004 	andeq	r0, r0, #4
    67fc:	00480169 	subeq	r0, r8, r9, ror #2
    6800:	23020000 	movwcs	r0, #8192	; 0x2000
    6804:	022a0e04 	eoreq	r0, sl, #64	; 0x40
    6808:	70020000 	andvc	r0, r2, r0
    680c:	00004801 	andeq	r4, r0, r1, lsl #16
    6810:	08230200 	stmdaeq	r3!, {r9}
    6814:	0005e30e 	andeq	lr, r5, lr, lsl #6
    6818:	01730200 	cmneq	r3, r0, lsl #4
    681c:	000001c2 	andeq	r0, r0, r2, asr #3
    6820:	0e0c2302 	cdpeq	3, 0, cr2, cr12, cr2, {0}
    6824:	000003c0 	andeq	r0, r0, r0, asr #7
    6828:	12017402 	andne	r7, r1, #33554432	; 0x2000000
    682c:	02000002 	andeq	r0, r0, #2
    6830:	e30e3423 	movw	r3, #58403	; 0xe423
    6834:	02000007 	andeq	r0, r0, #7
    6838:	029e0175 	addseq	r0, lr, #1073741853	; 0x4000001d
    683c:	23020000 	movwcs	r0, #8192	; 0x2000
    6840:	05840e44 	streq	r0, [r4, #3652]	; 0xe44
    6844:	76020000 	strvc	r0, [r2], -r0
    6848:	00034201 	andeq	r4, r3, r1, lsl #4
    684c:	60230200 	eorvs	r0, r3, r0, lsl #4
    6850:	07d00f00 	ldrbeq	r0, [r0, r0, lsl #30]
    6854:	77020000 	strvc	r0, [r2, -r0]
    6858:	00035501 	andeq	r5, r3, r1, lsl #10
    685c:	cc040c00 	stcgt	12, cr0, [r4], {-0}
    6860:	12000003 	andne	r0, r0, #3
    6864:	00000029 	andeq	r0, r0, r9, lsr #32
    6868:	01f00214 	mvnseq	r0, r4, lsl r2
    686c:	00000437 	andeq	r0, r0, r7, lsr r4
    6870:	0016e80e 	andseq	lr, r6, lr, lsl #16
    6874:	01f20200 	mvnseq	r0, r0, lsl #4
    6878:	0000034e 	andeq	r0, r0, lr, asr #6
    687c:	0e002302 	cdpeq	3, 0, cr2, cr0, cr2, {0}
    6880:	000026da 	ldrdeq	r2, [r0], -sl
    6884:	4e01f302 	cdpmi	3, 0, cr15, cr1, cr2, {0}
    6888:	02000003 	andeq	r0, r0, #3
    688c:	a60e0423 	strge	r0, [lr], -r3, lsr #8
    6890:	02000004 	andeq	r0, r0, #4
    6894:	034e01f4 	movteq	r0, #57844	; 0xe1f4
    6898:	23020000 	movwcs	r0, #8192	; 0x2000
    689c:	039d0e08 	orrseq	r0, sp, #128	; 0x80
    68a0:	f5020000 			; <UNDEFINED> instruction: 0xf5020000
    68a4:	00034e01 	andeq	r4, r3, r1, lsl #28
    68a8:	0c230200 	sfmeq	f0, 4, [r3], #-0
    68ac:	00029e0e 	andeq	r9, r2, lr, lsl #28
    68b0:	01f60200 	mvnseq	r0, r0, lsl #4
    68b4:	000003d8 	ldrdeq	r0, [r0], -r8
    68b8:	00102302 	andseq	r2, r0, r2, lsl #6
    68bc:	6c080413 	cfstrsvs	mvf0, [r8], {19}
    68c0:	03000023 	movweq	r0, #35	; 0x23
    68c4:	00044427 	andeq	r4, r4, r7, lsr #8
    68c8:	4a040c00 	bmi	1098d0 <__standby_start+0x1098d0>
    68cc:	14000004 	strne	r0, [r0], #-4
    68d0:	00004101 	andeq	r4, r0, r1, lsl #2
    68d4:	00045a00 	andeq	r5, r4, r0, lsl #20
    68d8:	04371500 	ldrteq	r1, [r7], #-1280	; 0x500
    68dc:	06000000 	streq	r0, [r0], -r0
    68e0:	00002384 	andeq	r2, r0, r4, lsl #7
    68e4:	832a0308 	teqhi	sl, #536870912	; 0x20000000
    68e8:	07000004 	streq	r0, [r0, -r4]
    68ec:	000023bb 			; <UNDEFINED> instruction: 0x000023bb
    68f0:	04392c03 	ldrteq	r2, [r9], #-3075	; 0xc03
    68f4:	23020000 	movwcs	r0, #8192	; 0x2000
    68f8:	72610900 	rsbvc	r0, r1, #0
    68fc:	2d030067 	stccs	0, cr0, [r3, #-412]	; 0xfffffe64
    6900:	00000437 	andeq	r0, r0, r7, lsr r4
    6904:	00042302 	andeq	r2, r4, r2, lsl #6
    6908:	0023fc06 	eoreq	pc, r3, r6, lsl #24
    690c:	33034000 	movwcc	r4, #12288	; 0x3000
    6910:	000004ff 	strdeq	r0, [r0], -pc	; <UNPREDICTABLE>
    6914:	00058d07 	andeq	r8, r5, r7, lsl #26
    6918:	ff350300 			; <UNDEFINED> instruction: 0xff350300
    691c:	02000004 	andeq	r0, r0, #4
    6920:	9f070023 	svcls	0x00070023
    6924:	03000027 	movweq	r0, #39	; 0x27
    6928:	0004ff36 	andeq	pc, r4, r6, lsr pc	; <UNPREDICTABLE>
    692c:	01230200 	teqeq	r3, r0, lsl #4
    6930:	00136707 	andseq	r6, r3, r7, lsl #14
    6934:	ff370300 			; <UNDEFINED> instruction: 0xff370300
    6938:	02000004 	andeq	r0, r0, #4
    693c:	04070223 	streq	r0, [r7], #-547	; 0x223
    6940:	0300001e 	movweq	r0, #30
    6944:	0004ff38 	andeq	pc, r4, r8, lsr pc	; <UNPREDICTABLE>
    6948:	03230200 	teqeq	r3, #0
    694c:	0024ba07 	eoreq	fp, r4, r7, lsl #20
    6950:	04390300 	ldrteq	r0, [r9], #-768	; 0x300
    6954:	02000005 	andeq	r0, r0, #5
    6958:	63090423 	movwvs	r0, #37923	; 0x9423
    695c:	3a030062 	bcc	c6aec <__standby_start+0xc6aec>
    6960:	0000050f 	andeq	r0, r0, pc, lsl #10
    6964:	07082302 	streq	r2, [r8, -r2, lsl #6]
    6968:	00002364 	andeq	r2, r0, r4, ror #6
    696c:	05143b03 	ldreq	r3, [r4, #-2819]	; 0xb03
    6970:	23020000 	movwcs	r0, #8192	; 0x2000
    6974:	24410710 	strbcs	r0, [r1], #-1808	; 0x710
    6978:	3c030000 	stccc	0, cr0, [r3], {-0}
    697c:	0000052b 	andeq	r0, r0, fp, lsr #10
    6980:	00142302 	andseq	r2, r4, r2, lsl #6
    6984:	00002c16 	andeq	r2, r0, r6, lsl ip
    6988:	0a040c00 	beq	109990 <__standby_start+0x109990>
    698c:	16000005 	strne	r0, [r0], -r5
    6990:	00000483 	andeq	r0, r0, r3, lsl #9
    6994:	00045a16 	andeq	r5, r4, r6, lsl sl
    6998:	1a040c00 	bne	1099a0 <__standby_start+0x1099a0>
    699c:	17000005 	strne	r0, [r0, -r5]
    69a0:	0000480a 	andeq	r4, r0, sl, lsl #16
    69a4:	00052b00 	andeq	r2, r5, r0, lsl #22
    69a8:	00480b00 	subeq	r0, r8, r0, lsl #22
    69ac:	000a0000 	andeq	r0, sl, r0
    69b0:	00051b16 	andeq	r1, r5, r6, lsl fp
    69b4:	91011800 	tstls	r1, r0, lsl #16
    69b8:	01000023 	tsteq	r0, r3, lsr #32
    69bc:	00410119 	subeq	r0, r1, r9, lsl r1
    69c0:	31040000 	mrscc	r0, (UNDEF: 4)
    69c4:	3130f000 	teqcc	r0, r0
    69c8:	2452f000 	ldrbcs	pc, [r2], #-0	; <UNPREDICTABLE>
    69cc:	01180000 	tsteq	r8, r0
    69d0:	000023e0 	andeq	r2, r0, r0, ror #7
    69d4:	41012d01 	tstmi	r1, r1, lsl #26
    69d8:	30000000 	andcc	r0, r0, r0
    69dc:	5cf00031 	ldclpl	0, cr0, [r0], #196	; 0xc4
    69e0:	72f00031 	rscsvc	r0, r0, #49	; 0x31
    69e4:	19000024 	stmdbne	r0, {r2, r5}
    69e8:	0023c301 	eoreq	ip, r3, r1, lsl #6
    69ec:	01470100 	mrseq	r0, (UNDEF: 87)
    69f0:	00000041 	andeq	r0, r0, r1, asr #32
    69f4:	f000315c 			; <UNDEFINED> instruction: 0xf000315c
    69f8:	f00031d4 			; <UNDEFINED> instruction: 0xf00031d4
    69fc:	00002492 	muleq	r0, r2, r4
    6a00:	000005ad 	andeq	r0, r0, sp, lsr #11
    6a04:	0023b61a 	eoreq	fp, r3, sl, lsl r6
    6a08:	4e470100 	dvfmis	f0, f7, f0
    6a0c:	b2000003 	andlt	r0, r0, #3
    6a10:	1b000024 	blne	6aa8 <__standby_start+0x6aa8>
    6a14:	000023f3 	strdeq	r2, [r0], -r3
    6a18:	05ad4901 	streq	r4, [sp, #2305]!	; 0x901
    6a1c:	24db0000 	ldrbcs	r0, [fp], #0
    6a20:	9f1b0000 	svcls	0x001b0000
    6a24:	01000027 	tsteq	r0, r7, lsr #32
    6a28:	00002c4a 	andeq	r2, r0, sl, asr #24
    6a2c:	0024f900 	eoreq	pc, r4, r0, lsl #18
    6a30:	040c0000 	streq	r0, [ip], #-0
    6a34:	00000483 	andeq	r0, r0, r3, lsl #9
    6a38:	241e0119 	ldrcs	r0, [lr], #-281	; 0x119
    6a3c:	6c010000 	stcvs	0, cr0, [r1], {-0}
    6a40:	00004101 	andeq	r4, r0, r1, lsl #2
    6a44:	0031d400 	eorseq	sp, r1, r0, lsl #8
    6a48:	003258f0 	ldrshteq	r5, [r2], -r0
    6a4c:	002525f0 	strdeq	r2, [r5], -r0	; <UNPREDICTABLE>
    6a50:	0005e000 	andeq	lr, r5, r0
    6a54:	23f31b00 	mvnscs	r1, #0
    6a58:	6e010000 	cdpvs	0, 0, cr0, cr1, cr0, {0}
    6a5c:	000005ad 	andeq	r0, r0, sp, lsr #11
    6a60:	00002545 	andeq	r2, r0, r5, asr #10
    6a64:	7e011900 	cdpvc	9, 0, cr1, cr1, cr0, {0}
    6a68:	01000024 	tsteq	r0, r4, lsr #32
    6a6c:	00410199 	umaaleq	r0, r1, r9, r1
    6a70:	32580000 	subscc	r0, r8, #0
    6a74:	32f4f000 	rscscc	pc, r4, #0
    6a78:	2579f000 	ldrbcs	pc, [r9, #-0]!	; <UNPREDICTABLE>
    6a7c:	061c0000 	ldreq	r0, [ip], -r0
    6a80:	e81a0000 	ldmda	sl, {}	; <UNPREDICTABLE>
    6a84:	01000016 	tsteq	r0, r6, lsl r0
    6a88:	00061c99 	muleq	r6, r9, ip
    6a8c:	00259900 	eoreq	r9, r5, r0, lsl #18
    6a90:	23f31b00 	mvnscs	r1, #0
    6a94:	9b010000 	blls	46a9c <__standby_start+0x46a9c>
    6a98:	000005ad 	andeq	r0, r0, sp, lsr #11
    6a9c:	000025b7 			; <UNDEFINED> instruction: 0x000025b7
    6aa0:	4e040c00 	cdpmi	12, 0, cr0, cr4, cr0, {0}
    6aa4:	19000003 	stmdbne	r0, {r0, r1}
    6aa8:	00249d01 	eoreq	r9, r4, r1, lsl #26
    6aac:	01ce0100 	biceq	r0, lr, r0, lsl #2
    6ab0:	00000041 	andeq	r0, r0, r1, asr #32
    6ab4:	f00032f4 			; <UNDEFINED> instruction: 0xf00032f4
    6ab8:	f000336c 			; <UNDEFINED> instruction: 0xf000336c
    6abc:	000025f6 	strdeq	r2, [r0], -r6
    6ac0:	0000066d 	andeq	r0, r0, sp, ror #12
    6ac4:	0005a81a 	andeq	sl, r5, sl, lsl r8
    6ac8:	6dce0100 	stfvse	f0, [lr]
    6acc:	16000006 	strne	r0, [r0], -r6
    6ad0:	1b000026 	blne	6b70 <__standby_start+0x6b70>
    6ad4:	000023f3 	strdeq	r2, [r0], -r3
    6ad8:	05add001 	streq	sp, [sp, #1]!
    6adc:	26340000 	ldrtcs	r0, [r4], -r0
    6ae0:	041b0000 	ldreq	r0, [fp], #-0
    6ae4:	0100001e 	tsteq	r0, lr, lsl r0
    6ae8:	000041d1 	ldrdeq	r4, [r0], -r1
    6aec:	00264700 	eoreq	r4, r6, r0, lsl #14
    6af0:	040c0000 	streq	r0, [ip], #-0
    6af4:	000003de 	ldrdeq	r0, [r0], -lr
    6af8:	0023771c 	eoreq	r7, r3, ip, lsl r7
    6afc:	4e140100 	mufmis	f0, f4, f0
    6b00:	05000003 	streq	r0, [r0, #-3]
    6b04:	003eb003 	eorseq	fp, lr, r3
    6b08:	23a41cf0 			; <UNDEFINED> instruction: 0x23a41cf0
    6b0c:	17010000 	strne	r0, [r1, -r0]
    6b10:	0000034e 	andeq	r0, r0, lr, asr #6
    6b14:	3eb40305 	cdpcc	3, 11, cr0, cr4, cr5, {0}
    6b18:	0a1df000 	beq	782b20 <__standby_start+0x782b20>
    6b1c:	01000024 	tsteq	r0, r4, lsr #32
    6b20:	00034e11 	andeq	r4, r3, r1, lsl lr
    6b24:	03050100 	movweq	r0, #20736	; 0x5100
    6b28:	f0003ce4 			; <UNDEFINED> instruction: 0xf0003ce4
    6b2c:	00046900 	andeq	r6, r4, r0, lsl #18
    6b30:	55000200 	strpl	r0, [r0, #-512]	; 0x200
    6b34:	0400001a 	streq	r0, [r0], #-26
    6b38:	0003fd01 	andeq	pc, r3, r1, lsl #26
    6b3c:	25910100 	ldrcs	r0, [r1, #256]	; 0x100
    6b40:	05350000 	ldreq	r0, [r5, #-0]!
    6b44:	336c0000 	cmncc	ip, #0
    6b48:	36a4f000 	strtcc	pc, [r4], r0
    6b4c:	185cf000 	ldmdane	ip, {ip, sp, lr, pc}^
    6b50:	01020000 	mrseq	r0, (UNDEF: 2)
    6b54:	0007af06 	andeq	sl, r7, r6, lsl #30
    6b58:	08010200 	stmdaeq	r1, {r9}
    6b5c:	000007ad 	andeq	r0, r0, sp, lsr #15
    6b60:	68050202 	stmdavs	r5, {r1, r9}
    6b64:	02000006 	andeq	r0, r0, #6
    6b68:	087f0702 	ldmdaeq	pc!, {r1, r8, r9, sl}^	; <UNPREDICTABLE>
    6b6c:	04030000 	streq	r0, [r3], #-0
    6b70:	746e6905 	strbtvc	r6, [lr], #-2309	; 0x905
    6b74:	04430400 	strbeq	r0, [r3], #-1024	; 0x400
    6b78:	13020000 	movwne	r0, #8192	; 0x2000
    6b7c:	00000053 	andeq	r0, r0, r3, asr r0
    6b80:	54070402 	strpl	r0, [r7], #-1026	; 0x402
    6b84:	02000002 	andeq	r0, r0, #2
    6b88:	047d0508 	ldrbteq	r0, [sp], #-1288	; 0x508
    6b8c:	08020000 	stmdaeq	r2, {}	; <UNPREDICTABLE>
    6b90:	00024a07 	andeq	r4, r2, r7, lsl #20
    6b94:	08010200 	stmdaeq	r1, {r9}
    6b98:	000007b6 			; <UNDEFINED> instruction: 0x000007b6
    6b9c:	4f070402 	svcmi	0x00070402
    6ba0:	05000002 	streq	r0, [r0, #-2]
    6ba4:	252f0604 	strcs	r0, [pc, #-1540]!	; 65a8 <__standby_start+0x65a8>
    6ba8:	04040000 	streq	r0, [r4], #-0
    6bac:	0000911d 	andeq	r9, r0, sp, lsl r1
    6bb0:	25150700 	ldrcs	r0, [r5, #-1792]	; 0x700
    6bb4:	07000000 	streq	r0, [r0, -r0]
    6bb8:	0000262f 	andeq	r2, r0, pc, lsr #12
    6bbc:	53080001 	movwpl	r0, #32769	; 0x8001
    6bc0:	04000000 	streq	r0, [r0], #-0
    6bc4:	0000236c 	andeq	r2, r0, ip, ror #6
    6bc8:	00a12703 	adceq	r2, r1, r3, lsl #14
    6bcc:	04090000 	streq	r0, [r9], #-0
    6bd0:	000000a7 	andeq	r0, r0, r7, lsr #1
    6bd4:	0041010a 	subeq	r0, r1, sl, lsl #2
    6bd8:	00b70000 	adcseq	r0, r7, r0
    6bdc:	760b0000 	strvc	r0, [fp], -r0
    6be0:	00000000 	andeq	r0, r0, r0
    6be4:	0023840c 	eoreq	r8, r3, ip, lsl #8
    6be8:	2a030800 	bcs	c8bf0 <__standby_start+0xc8bf0>
    6bec:	000000e0 	andeq	r0, r0, r0, ror #1
    6bf0:	0023bb0d 	eoreq	fp, r3, sp, lsl #22
    6bf4:	962c0300 	strtls	r0, [ip], -r0, lsl #6
    6bf8:	02000000 	andeq	r0, r0, #0
    6bfc:	610e0023 	tstvs	lr, r3, lsr #32
    6c00:	03006772 	movweq	r6, #1906	; 0x772
    6c04:	0000762d 	andeq	r7, r0, sp, lsr #12
    6c08:	04230200 	strteq	r0, [r3], #-512	; 0x200
    6c0c:	23fc0c00 	mvnscs	r0, #0
    6c10:	03400000 	movteq	r0, #0
    6c14:	00015c33 	andeq	r5, r1, r3, lsr ip
    6c18:	058d0d00 	streq	r0, [sp, #3328]	; 0xd00
    6c1c:	35030000 	strcc	r0, [r3, #-0]
    6c20:	0000015c 	andeq	r0, r0, ip, asr r1
    6c24:	0d002302 	stceq	3, cr2, [r0, #-8]
    6c28:	0000279f 	muleq	r0, pc, r7	; <UNPREDICTABLE>
    6c2c:	015c3603 	cmpeq	ip, r3, lsl #12
    6c30:	23020000 	movwcs	r0, #8192	; 0x2000
    6c34:	13670d01 	cmnne	r7, #64	; 0x40
    6c38:	37030000 	strcc	r0, [r3, -r0]
    6c3c:	0000015c 	andeq	r0, r0, ip, asr r1
    6c40:	0d022302 	stceq	3, cr2, [r2, #-8]
    6c44:	00001e04 	andeq	r1, r0, r4, lsl #28
    6c48:	015c3803 	cmpeq	ip, r3, lsl #16
    6c4c:	23020000 	movwcs	r0, #8192	; 0x2000
    6c50:	24ba0d03 	ldrtcs	r0, [sl], #3331	; 0xd03
    6c54:	39030000 	stmdbcc	r3, {}	; <UNPREDICTABLE>
    6c58:	00000161 	andeq	r0, r0, r1, ror #2
    6c5c:	0e042302 	cdpeq	3, 0, cr2, cr4, cr2, {0}
    6c60:	03006263 	movweq	r6, #611	; 0x263
    6c64:	00016c3a 	andeq	r6, r1, sl, lsr ip
    6c68:	08230200 	stmdaeq	r3!, {r9}
    6c6c:	0023640d 	eoreq	r6, r3, sp, lsl #8
    6c70:	713b0300 	teqvc	fp, r0, lsl #6
    6c74:	02000001 	andeq	r0, r0, #1
    6c78:	410d1023 	tstmi	sp, r3, lsr #32
    6c7c:	03000024 	movweq	r0, #36	; 0x24
    6c80:	0001883c 	andeq	r8, r1, ip, lsr r8
    6c84:	14230200 	strtne	r0, [r3], #-512	; 0x200
    6c88:	002c0800 	eoreq	r0, ip, r0, lsl #16
    6c8c:	04090000 	streq	r0, [r9], #-0
    6c90:	00000167 	andeq	r0, r0, r7, ror #2
    6c94:	0000e008 	andeq	lr, r0, r8
    6c98:	00b70800 	adcseq	r0, r7, r0, lsl #16
    6c9c:	04090000 	streq	r0, [r9], #-0
    6ca0:	00000177 	andeq	r0, r0, r7, ror r1
    6ca4:	0053100f 	subseq	r1, r3, pc
    6ca8:	01880000 	orreq	r0, r8, r0
    6cac:	53110000 	tstpl	r1, #0
    6cb0:	0a000000 	beq	6cb8 <__standby_start+0x6cb8>
    6cb4:	01780800 	cmneq	r8, r0, lsl #16
    6cb8:	01120000 	tsteq	r2, r0
    6cbc:	00002563 	andeq	r2, r0, r3, ror #10
    6cc0:	01012101 	tsteq	r1, r1, lsl #2
    6cc4:	00000041 	andeq	r0, r0, r1, asr #32
    6cc8:	0001ad01 	andeq	sl, r1, r1, lsl #26
    6ccc:	23f31300 	mvnscs	r1, #0
    6cd0:	21010000 	mrscs	r0, (UNDEF: 1)
    6cd4:	0001ad01 	andeq	sl, r1, r1, lsl #26
    6cd8:	04090000 	streq	r0, [r9], #-0
    6cdc:	000000e0 	andeq	r0, r0, r0, ror #1
    6ce0:	25e60114 	strbcs	r0, [r6, #276]!	; 0x114
    6ce4:	da010000 	ble	46cec <__standby_start+0x46cec>
    6ce8:	00004101 	andeq	r4, r0, r1, lsl #2
    6cec:	01dc0100 	bicseq	r0, ip, r0, lsl #2
    6cf0:	77150000 	ldrvc	r0, [r5, -r0]
    6cf4:	01000025 	tsteq	r0, r5, lsr #32
    6cf8:	000041da 	ldrdeq	r4, [r0], -sl
    6cfc:	253e1500 	ldrcs	r1, [lr, #-1280]!	; 0x500
    6d00:	da010000 	ble	46d08 <__standby_start+0x46d08>
    6d04:	00000041 	andeq	r0, r0, r1, asr #32
    6d08:	7d011600 	stcvc	6, cr1, [r1, #-0]
    6d0c:	01000025 	tsteq	r0, r5, lsr #32
    6d10:	0041012d 	subeq	r0, r1, sp, lsr #2
    6d14:	336c0000 	cmncc	ip, #0
    6d18:	3374f000 	cmncc	r4, #0
    6d1c:	7d02f000 	stcvc	0, cr15, [r2, #-0]
    6d20:	01011600 	tsteq	r1, r0, lsl #12
    6d24:	01000025 	tsteq	r0, r5, lsr #32
    6d28:	0041013d 	subeq	r0, r1, sp, lsr r1
    6d2c:	33740000 	cmncc	r4, #0
    6d30:	337cf000 	cmncc	ip, #0
    6d34:	7d02f000 	stcvc	0, cr15, [r2, #-0]
    6d38:	bf011700 	svclt	0x00011700
    6d3c:	01000024 	tsteq	r0, r4, lsr #32
    6d40:	0041014f 	subeq	r0, r1, pc, asr #2
    6d44:	337c0000 	cmncc	ip, #0
    6d48:	3440f000 	strbcc	pc, [r0], #-0	; <UNPREDICTABLE>
    6d4c:	2671f000 	ldrbtcs	pc, [r1], -r0	; <UNPREDICTABLE>
    6d50:	02570000 	subseq	r0, r7, #0
    6d54:	f3180000 	vhadd.u16	d0, d8, d0
    6d58:	01000023 	tsteq	r0, r3, lsr #32
    6d5c:	0001ad4f 	andeq	sl, r1, pc, asr #26
    6d60:	00269100 	eoreq	r9, r6, r0, lsl #2
    6d64:	26da1800 	ldrbcs	r1, [sl], r0, lsl #16
    6d68:	4f010000 	svcmi	0x00010000
    6d6c:	00000053 	andeq	r0, r0, r3, asr r0
    6d70:	000026a4 	andeq	r2, r0, r4, lsr #13
    6d74:	00131619 	andseq	r1, r3, r9, lsl r6
    6d78:	57510100 	ldrbpl	r0, [r1, -r0, lsl #2]
    6d7c:	b7000002 	strlt	r0, [r0, -r2]
    6d80:	00000026 	andeq	r0, r0, r6, lsr #32
    6d84:	00006f08 	andeq	r6, r0, r8, lsl #30
    6d88:	43011700 	movwmi	r1, #5888	; 0x1700
    6d8c:	01000025 	tsteq	r0, r5, lsr #32
    6d90:	00410181 	subeq	r0, r1, r1, lsl #3
    6d94:	34400000 	strbcc	r0, [r0], #-0
    6d98:	34e4f000 	strbtcc	pc, [r4], #0	; <UNPREDICTABLE>
    6d9c:	26d7f000 	ldrbcs	pc, [r7], r0	; <UNPREDICTABLE>
    6da0:	02a70000 	adceq	r0, r7, #0
    6da4:	f3180000 	vhadd.u16	d0, d8, d0
    6da8:	01000023 	tsteq	r0, r3, lsr #32
    6dac:	0001ad81 	andeq	sl, r1, r1, lsl #27
    6db0:	0026f700 	eoreq	pc, r6, r0, lsl #14
    6db4:	26da1800 	ldrbcs	r1, [sl], r0, lsl #16
    6db8:	81010000 	mrshi	r0, (UNDEF: 1)
    6dbc:	00000053 	andeq	r0, r0, r3, asr r0
    6dc0:	00002715 	andeq	r2, r0, r5, lsl r7
    6dc4:	00131619 	andseq	r1, r3, r9, lsl r6
    6dc8:	57830100 	strpl	r0, [r3, r0, lsl #2]
    6dcc:	33000002 	movwcc	r0, #2
    6dd0:	00000027 	andeq	r0, r0, r7, lsr #32
    6dd4:	260c0117 			; <UNDEFINED> instruction: 0x260c0117
    6dd8:	ad010000 	stcge	0, cr0, [r1, #-0]
    6ddc:	00004101 	andeq	r4, r0, r1, lsl #2
    6de0:	0034e400 	eorseq	lr, r4, r0, lsl #8
    6de4:	003538f0 	ldrshteq	r3, [r5], -r0
    6de8:	002753f0 	strdeq	r5, [r7], -r0	; <UNPREDICTABLE>
    6dec:	0002f200 	andeq	pc, r2, r0, lsl #4
    6df0:	25771800 	ldrbcs	r1, [r7, #-2048]!	; 0x800
    6df4:	ad010000 	stcge	0, cr0, [r1, #-0]
    6df8:	00000041 	andeq	r0, r0, r1, asr #32
    6dfc:	00002773 	andeq	r2, r0, r3, ror r7
    6e00:	00253e18 	eoreq	r3, r5, r8, lsl lr
    6e04:	41ad0100 			; <UNDEFINED> instruction: 0x41ad0100
    6e08:	86000000 	strhi	r0, [r0], -r0
    6e0c:	19000027 	stmdbne	r0, {r0, r1, r2, r5}
    6e10:	00001316 	andeq	r1, r0, r6, lsl r3
    6e14:	0091af01 	addseq	sl, r1, r1, lsl #30
    6e18:	27990000 	ldrcs	r0, [r9, r0]
    6e1c:	17000000 	strne	r0, [r0, -r0]
    6e20:	0024db01 	eoreq	sp, r4, r1, lsl #22
    6e24:	01c50100 	biceq	r0, r5, r0, lsl #2
    6e28:	00000041 	andeq	r0, r0, r1, asr #32
    6e2c:	f0003538 			; <UNDEFINED> instruction: 0xf0003538
    6e30:	f0003564 			; <UNDEFINED> instruction: 0xf0003564
    6e34:	000027e6 	andeq	r2, r0, r6, ror #15
    6e38:	0000033b 	andeq	r0, r0, fp, lsr r3
    6e3c:	00257718 	eoreq	r7, r5, r8, lsl r7
    6e40:	41c50100 	bicmi	r0, r5, r0, lsl #2
    6e44:	06000000 	streq	r0, [r0], -r0
    6e48:	1a000028 	bne	6ef0 <__standby_start+0x6ef0>
    6e4c:	0000253e 	andeq	r2, r0, lr, lsr r5
    6e50:	0041c501 	subeq	ip, r1, r1, lsl #10
    6e54:	51010000 	mrspl	r0, (UNDEF: 1)
    6e58:	00131619 	andseq	r1, r3, r9, lsl r6
    6e5c:	57c70100 	strbpl	r0, [r7, r0, lsl #2]
    6e60:	19000002 	stmdbne	r0, {r1}
    6e64:	00000028 	andeq	r0, r0, r8, lsr #32
    6e68:	0001b31b 	andeq	fp, r1, fp, lsl r3
    6e6c:	00356400 	eorseq	r6, r5, r0, lsl #8
    6e70:	003584f0 	ldrshteq	r8, [r5], -r0
    6e74:	007d02f0 	ldrshteq	r0, [sp], #-32	; 0xffffffe0
    6e78:	00000360 	andeq	r0, r0, r0, ror #6
    6e7c:	0001c51c 	andeq	ip, r1, ip, lsl r5
    6e80:	00283800 	eoreq	r3, r8, r0, lsl #16
    6e84:	01d01d00 	bicseq	r1, r0, r0, lsl #26
    6e88:	51010000 	mrspl	r0, (UNDEF: 1)
    6e8c:	c9011700 	stmdbgt	r1, {r8, r9, sl, ip}
    6e90:	01000025 	tsteq	r0, r5, lsr #32
    6e94:	01ad01ec 			; <UNDEFINED> instruction: 0x01ad01ec
    6e98:	35840000 	strcc	r0, [r4]
    6e9c:	3670f000 	ldrbtcc	pc, [r0], -r0	; <UNPREDICTABLE>
    6ea0:	284bf000 	stmdacs	fp, {ip, sp, lr, pc}^
    6ea4:	04410000 	strbeq	r0, [r1], #-0
    6ea8:	f3190000 	vhadd.u16	d0, d9, d0
    6eac:	01000023 	tsteq	r0, r3, lsr #32
    6eb0:	0001adee 	andeq	sl, r1, lr, ror #27
    6eb4:	00286b00 	eoreq	r6, r8, r0, lsl #22
    6eb8:	02a01e00 	adceq	r1, r0, #0
    6ebc:	03e50000 	mvneq	r0, #0
    6ec0:	16190000 	ldrne	r0, [r9], -r0
    6ec4:	01000013 	tsteq	r0, r3, lsl r0
    6ec8:	000257f2 	strdeq	r5, [r2], -r2
    6ecc:	0028ac00 	eoreq	sl, r8, r0, lsl #24
    6ed0:	018d1f00 	orreq	r1, sp, r0, lsl #30
    6ed4:	35b00000 	ldrcc	r0, [r0, #0]!
    6ed8:	02b8f000 	adcseq	pc, r8, #0
    6edc:	f5010000 			; <UNDEFINED> instruction: 0xf5010000
    6ee0:	000003c1 	andeq	r0, r0, r1, asr #7
    6ee4:	0001a01c 	andeq	sl, r1, ip, lsl r0
    6ee8:	0028d700 	eoreq	sp, r8, r0, lsl #14
    6eec:	b3200000 	teqlt	r0, #0
    6ef0:	e0000001 	and	r0, r0, r1
    6ef4:	f0f00035 			; <UNDEFINED> instruction: 0xf0f00035
    6ef8:	01f00035 	mvnseq	r0, r5, lsr r0
    6efc:	d01c0104 	andsle	r0, ip, r4, lsl #2
    6f00:	f5000001 			; <UNDEFINED> instruction: 0xf5000001
    6f04:	1c000028 	stcne	0, cr0, [r0], {40}	; 0x28
    6f08:	000001c5 	andeq	r0, r0, r5, asr #3
    6f0c:	00002909 	andeq	r2, r0, r9, lsl #18
    6f10:	08210000 	stmdaeq	r1!, {}	; <UNPREDICTABLE>
    6f14:	64f00036 	ldrbtvs	r0, [r0], #54	; 0x36
    6f18:	22f00036 	rscscs	r0, r0, #54	; 0x36
    6f1c:	00001316 	andeq	r1, r0, r6, lsl r3
    6f20:	57010901 	strpl	r0, [r1, -r1, lsl #18]
    6f24:	1d000002 	stcne	0, cr0, [r0, #-8]
    6f28:	23000029 	movwcs	r0, #41	; 0x29
    6f2c:	0000018d 	andeq	r0, r0, sp, lsl #3
    6f30:	f000361c 			; <UNDEFINED> instruction: 0xf000361c
    6f34:	000002d8 	ldrdeq	r0, [r0], -r8
    6f38:	1c010c01 	stcne	12, cr0, [r1], {1}
    6f3c:	1c000004 	stcne	0, cr0, [r0], {4}
    6f40:	000001a0 	andeq	r0, r0, r0, lsr #3
    6f44:	00002948 	andeq	r2, r0, r8, asr #18
    6f48:	01b32000 			; <UNDEFINED> instruction: 0x01b32000
    6f4c:	36500000 	ldrbcc	r0, [r0], -r0
    6f50:	3660f000 	strbtcc	pc, [r0], -r0	; <UNPREDICTABLE>
    6f54:	1a01f000 	bne	82f5c <__standby_start+0x82f5c>
    6f58:	01d01c01 	bicseq	r1, r0, r1, lsl #24
    6f5c:	29660000 	stmdbcs	r6!, {}^	; <UNPREDICTABLE>
    6f60:	c51c0000 	ldrgt	r0, [ip, #-0]
    6f64:	7a000001 	bvc	6f70 <__standby_start+0x6f70>
    6f68:	00000029 	andeq	r0, r0, r9, lsr #32
    6f6c:	8d1b0000 	ldchi	0, cr0, [fp, #-0]
    6f70:	70000001 	andvc	r0, r0, r1
    6f74:	a4f00036 	ldrbtge	r0, [r0], #54	; 0x36
    6f78:	02f00036 	rscseq	r0, r0, #54	; 0x36
    6f7c:	045f007d 	ldrbeq	r0, [pc], #-125	; 6f84 <__standby_start+0x6f84>
    6f80:	a01c0000 	andsge	r0, ip, r0
    6f84:	8e000001 	cdphi	0, 0, cr0, cr0, cr1, {0}
    6f88:	00000029 	andeq	r0, r0, r9, lsr #32
    6f8c:	00240a24 	eoreq	r0, r4, r4, lsr #20
    6f90:	6f220500 	svcvs	0x00220500
    6f94:	01000000 	mrseq	r0, (UNDEF: 0)
    6f98:	00f90001 	rscseq	r0, r9, r1
    6f9c:	00020000 	andeq	r0, r2, r0
    6fa0:	00001c36 	andeq	r1, r0, r6, lsr ip
    6fa4:	03fd0104 	mvnseq	r0, #1
    6fa8:	49010000 	stmdbmi	r1, {}	; <UNPREDICTABLE>
    6fac:	35000026 	strcc	r0, [r0, #-38]	; 0x26
    6fb0:	a4000005 	strge	r0, [r0], #-5
    6fb4:	f8f00036 			; <UNDEFINED> instruction: 0xf8f00036
    6fb8:	12f00036 	rscsne	r0, r0, #54	; 0x36
    6fbc:	0200001a 	andeq	r0, r0, #26
    6fc0:	07af0601 	streq	r0, [pc, r1, lsl #12]!
    6fc4:	01020000 	mrseq	r0, (UNDEF: 2)
    6fc8:	0007ad08 	andeq	sl, r7, r8, lsl #26
    6fcc:	05020200 	streq	r0, [r2, #-512]	; 0x200
    6fd0:	00000668 	andeq	r0, r0, r8, ror #12
    6fd4:	7f070202 	svcvc	0x00070202
    6fd8:	03000008 	movweq	r0, #8
    6fdc:	6e690504 	cdpvs	5, 6, cr0, cr9, cr4, {0}
    6fe0:	04020074 	streq	r0, [r2], #-116	; 0x74
    6fe4:	00025407 	andeq	r5, r2, r7, lsl #8
    6fe8:	05080200 	streq	r0, [r8, #-512]	; 0x200
    6fec:	0000047d 	andeq	r0, r0, sp, ror r4
    6ff0:	4a070802 	bmi	1c9000 <__standby_start+0x1c9000>
    6ff4:	02000002 	andeq	r0, r0, #2
    6ff8:	07b60801 	ldreq	r0, [r6, r1, lsl #16]!
    6ffc:	04020000 	streq	r0, [r2], #-0
    7000:	00024f07 	andeq	r4, r2, r7, lsl #30
    7004:	b2010400 	andlt	r0, r1, #0
    7008:	01000026 	tsteq	r0, r6, lsr #32
    700c:	00410123 	subeq	r0, r1, r3, lsr #2
    7010:	36a40000 	strtcc	r0, [r4], r0
    7014:	36acf000 	strtcc	pc, [ip], r0
    7018:	7d02f000 	stcvc	0, cr15, [r2, #-0]
    701c:	88010400 	stmdahi	r1, {sl}
    7020:	01000026 	tsteq	r0, r6, lsr #32
    7024:	00410133 	subeq	r0, r1, r3, lsr r1
    7028:	36ac0000 	strtcc	r0, [ip], r0
    702c:	36b4f000 	ldrtcc	pc, [r4], r0	; <UNPREDICTABLE>
    7030:	7d02f000 	stcvc	0, cr15, [r2, #-0]
    7034:	c8010500 	stmdagt	r1, {r8, sl}
    7038:	01000026 	tsteq	r0, r6, lsr #32
    703c:	00410143 	subeq	r0, r1, r3, asr #2
    7040:	36b40000 	ldrtcc	r0, [r4], r0
    7044:	36d8f000 	ldrbcc	pc, [r8], r0	; <UNPREDICTABLE>
    7048:	7d02f000 	stcvc	0, cr15, [r2, #-0]
    704c:	0000d400 	andeq	sp, r0, r0, lsl #8
    7050:	26830600 	strcs	r0, [r3], r0, lsl #12
    7054:	43010000 	movwmi	r0, #4096	; 0x1000
    7058:	00000041 	andeq	r0, r0, r1, asr #32
    705c:	000029ac 	andeq	r2, r0, ip, lsr #19
    7060:	0026da07 	eoreq	sp, r6, r7, lsl #20
    7064:	48430100 	stmdami	r3, {r8}^
    7068:	01000000 	mrseq	r0, (UNDEF: 0)
    706c:	01080051 	qaddeq	r0, r1, r8
    7070:	0000269e 	muleq	r0, lr, r6
    7074:	41015c01 	tstmi	r1, r1, lsl #24
    7078:	d8000000 	stmdale	r0, {}	; <UNPREDICTABLE>
    707c:	f8f00036 			; <UNDEFINED> instruction: 0xf8f00036
    7080:	02f00036 	rscseq	r0, r0, #54	; 0x36
    7084:	8306007d 	movwhi	r0, #24701	; 0x607d
    7088:	01000026 	tsteq	r0, r6, lsr #32
    708c:	0000415c 	andeq	r4, r0, ip, asr r1
    7090:	0029bf00 	eoreq	fp, r9, r0, lsl #30
    7094:	a7000000 	strge	r0, [r0, -r0]
    7098:	02000002 	andeq	r0, r0, #2
    709c:	001cc500 	andseq	ip, ip, r0, lsl #10
    70a0:	fd010400 	stc2	4, cr0, [r1, #-0]
    70a4:	01000003 	tsteq	r0, r3
    70a8:	0000275c 	andeq	r2, r0, ip, asr r7
    70ac:	00000535 	andeq	r0, r0, r5, lsr r5
    70b0:	f00036f8 			; <UNDEFINED> instruction: 0xf00036f8
    70b4:	f00037e8 			; <UNDEFINED> instruction: 0xf00037e8
    70b8:	00001a93 	muleq	r0, r3, sl
    70bc:	af060102 	svcge	0x00060102
    70c0:	02000007 	andeq	r0, r0, #7
    70c4:	07ad0801 	streq	r0, [sp, r1, lsl #16]!
    70c8:	02020000 	andeq	r0, r2, #0
    70cc:	00066805 	andeq	r6, r6, r5, lsl #16
    70d0:	07020200 	streq	r0, [r2, -r0, lsl #4]
    70d4:	0000087f 	andeq	r0, r0, pc, ror r8
    70d8:	69050403 	stmdbvs	r5, {r0, r1, sl}
    70dc:	0200746e 	andeq	r7, r0, #1845493760	; 0x6e000000
    70e0:	02540704 	subseq	r0, r4, #1048576	; 0x100000
    70e4:	08020000 	stmdaeq	r2, {}	; <UNPREDICTABLE>
    70e8:	00047d05 	andeq	r7, r4, r5, lsl #26
    70ec:	07080200 	streq	r0, [r8, -r0, lsl #4]
    70f0:	0000024a 	andeq	r0, r0, sl, asr #4
    70f4:	00087704 	andeq	r7, r8, r4, lsl #14
    70f8:	89030400 	stmdbhi	r3, {sl}
    70fc:	000000ca 	andeq	r0, r0, sl, asr #1
    7100:	0006af05 	andeq	sl, r6, r5, lsl #30
    7104:	3d050000 	stccc	0, cr0, [r5, #-0]
    7108:	01000003 	tsteq	r0, r3
    710c:	00076805 	andeq	r6, r7, r5, lsl #16
    7110:	31050200 	mrscc	r0, SP_usr
    7114:	03000003 	movweq	r0, #3
    7118:	00043705 	andeq	r3, r4, r5, lsl #14
    711c:	bc050400 	cfstrslt	mvf0, [r5], {-0}
    7120:	05000006 	streq	r0, [r0, #-6]
    7124:	0003f005 	andeq	pc, r3, r5
    7128:	61050600 	tstvs	r5, r0, lsl #12
    712c:	07000008 	streq	r0, [r0, -r8]
    7130:	00046a05 	andeq	r6, r4, r5, lsl #20
    7134:	02050800 	andeq	r0, r5, #0
    7138:	09000009 	stmdbeq	r0, {r0, r3}
    713c:	00064a05 	andeq	r4, r6, r5, lsl #20
    7140:	72050a00 	andvc	r0, r5, #0
    7144:	0b000006 	bleq	7164 <__standby_start+0x7164>
    7148:	00087105 	andeq	r7, r8, r5, lsl #2
    714c:	c2050c00 	andgt	r0, r5, #0
    7150:	0d000007 	stceq	0, cr0, [r0, #-28]	; 0xffffffe4
    7154:	00062905 	andeq	r2, r6, r5, lsl #18
    7158:	00050e00 	andeq	r0, r5, r0, lsl #28
    715c:	0f000008 	svceq	0x00000008
    7160:	08010200 	stmdaeq	r1, {r9}
    7164:	000007b6 			; <UNDEFINED> instruction: 0x000007b6
    7168:	4f070402 	svcmi	0x00070402
    716c:	06000002 	streq	r0, [r0], -r2
    7170:	236c0704 	cmncs	ip, #1048576	; 0x100000
    7174:	27020000 	strcs	r0, [r2, -r0]
    7178:	000000e5 	andeq	r0, r0, r5, ror #1
    717c:	00eb0408 	rsceq	r0, fp, r8, lsl #8
    7180:	01090000 	mrseq	r0, (UNDEF: 9)
    7184:	00000041 	andeq	r0, r0, r1, asr #32
    7188:	000000fb 	strdeq	r0, [r0], -fp
    718c:	0000d80a 	andeq	sp, r0, sl, lsl #16
    7190:	840b0000 	strhi	r0, [fp], #-0
    7194:	08000023 	stmdaeq	r0, {r0, r1, r5}
    7198:	01242a02 	teqeq	r4, r2, lsl #20
    719c:	bb0c0000 	bllt	3071a4 <__standby_start+0x3071a4>
    71a0:	02000023 	andeq	r0, r0, #35	; 0x23
    71a4:	0000da2c 	andeq	sp, r0, ip, lsr #20
    71a8:	00230200 	eoreq	r0, r3, r0, lsl #4
    71ac:	6772610d 	ldrbvs	r6, [r2, -sp, lsl #2]!
    71b0:	d82d0200 	stmdale	sp!, {r9}
    71b4:	02000000 	andeq	r0, r0, #0
    71b8:	0b000423 	bleq	824c <__standby_start+0x824c>
    71bc:	000023fc 	strdeq	r2, [r0], -ip
    71c0:	a0330240 	eorsge	r0, r3, r0, asr #4
    71c4:	0c000001 	stceq	0, cr0, [r0], {1}
    71c8:	0000058d 	andeq	r0, r0, sp, lsl #11
    71cc:	01a03502 	lsleq	r3, r2, #10
    71d0:	23020000 	movwcs	r0, #8192	; 0x2000
    71d4:	279f0c00 	ldrcs	r0, [pc, r0, lsl #24]
    71d8:	36020000 	strcc	r0, [r2], -r0
    71dc:	000001a0 	andeq	r0, r0, r0, lsr #3
    71e0:	0c012302 	stceq	3, cr2, [r1], {2}
    71e4:	00001367 	andeq	r1, r0, r7, ror #6
    71e8:	01a03702 	lsleq	r3, r2, #14
    71ec:	23020000 	movwcs	r0, #8192	; 0x2000
    71f0:	1e040c02 	cdpne	12, 0, cr0, cr4, cr2, {0}
    71f4:	38020000 	stmdacc	r2, {}	; <UNPREDICTABLE>
    71f8:	000001a0 	andeq	r0, r0, r0, lsr #3
    71fc:	0c032302 	stceq	3, cr2, [r3], {2}
    7200:	000024ba 			; <UNDEFINED> instruction: 0x000024ba
    7204:	01a53902 			; <UNDEFINED> instruction: 0x01a53902
    7208:	23020000 	movwcs	r0, #8192	; 0x2000
    720c:	62630d04 	rsbvs	r0, r3, #256	; 0x100
    7210:	b03a0200 	eorslt	r0, sl, r0, lsl #4
    7214:	02000001 	andeq	r0, r0, #1
    7218:	640c0823 	strvs	r0, [ip], #-2083	; 0x823
    721c:	02000023 	andeq	r0, r0, #35	; 0x23
    7220:	0001b53b 	andeq	fp, r1, fp, lsr r5
    7224:	10230200 	eorne	r0, r3, r0, lsl #4
    7228:	0024410c 	eoreq	r4, r4, ip, lsl #2
    722c:	cc3c0200 	lfmgt	f0, 4, [ip], #-0
    7230:	02000001 	andeq	r0, r0, #1
    7234:	0e001423 	cdpeq	4, 0, cr1, cr0, cr3, {1}
    7238:	0000002c 	andeq	r0, r0, ip, lsr #32
    723c:	01ab0408 			; <UNDEFINED> instruction: 0x01ab0408
    7240:	240e0000 	strcs	r0, [lr], #-0
    7244:	0e000001 	cdpeq	0, 0, cr0, cr0, cr1, {0}
    7248:	000000fb 	strdeq	r0, [r0], -fp
    724c:	01bb0408 			; <UNDEFINED> instruction: 0x01bb0408
    7250:	100f0000 	andne	r0, pc, r0
    7254:	00000048 	andeq	r0, r0, r8, asr #32
    7258:	000001cc 	andeq	r0, r0, ip, asr #3
    725c:	00004811 	andeq	r4, r0, r1, lsl r8
    7260:	0e000a00 	vmlaeq.f32	s0, s0, s0
    7264:	000001bc 			; <UNDEFINED> instruction: 0x000001bc
    7268:	27410112 	smlaldcs	r0, r1, r2, r1
    726c:	28010000 	stmdacs	r1, {}	; <UNPREDICTABLE>
    7270:	00004101 	andeq	r4, r0, r1, lsl #2
    7274:	0036f800 	eorseq	pc, r6, r0, lsl #16
    7278:	003720f0 	ldrshteq	r2, [r7], -r0
    727c:	007d02f0 	ldrshteq	r0, [sp], #-32	; 0xffffffe0
    7280:	26e20112 	usatcs	r0, #2, r2, lsl #2
    7284:	3c010000 	stccc	0, cr0, [r1], {-0}
    7288:	00004101 	andeq	r4, r0, r1, lsl #2
    728c:	00372000 	eorseq	r2, r7, r0
    7290:	003728f0 	ldrshteq	r2, [r7], -r0
    7294:	007d02f0 	ldrshteq	r0, [sp], #-32	; 0xffffffe0
    7298:	26fd0113 	usatcs	r0, #29, r3, lsl #2
    729c:	4d010000 	stcmi	0, cr0, [r1, #-0]
    72a0:	00024c01 	andeq	r4, r2, r1, lsl #24
    72a4:	00372800 	eorseq	r2, r7, r0, lsl #16
    72a8:	0037bcf0 	ldrshteq	fp, [r7], -r0
    72ac:	0029d2f0 	strdeq	sp, [r9], -r0	; <UNPREDICTABLE>
    72b0:	00024c00 	andeq	r4, r2, r0, lsl #24
    72b4:	279b1400 	ldrcs	r1, [fp, r0, lsl #8]
    72b8:	4d010000 	stcmi	0, cr0, [r1, #-0]
    72bc:	00000048 	andeq	r0, r0, r8, asr #32
    72c0:	000029f2 	strdeq	r2, [r0], -r2	; <UNPREDICTABLE>
    72c4:	0023f315 	eoreq	pc, r3, r5, lsl r3	; <UNPREDICTABLE>
    72c8:	4c4f0100 	stfmie	f0, [pc], {-0}
    72cc:	10000002 	andne	r0, r0, r2
    72d0:	1500002a 	strne	r0, [r0, #-42]	; 0x2a
    72d4:	000027a4 	andeq	r2, r0, r4, lsr #15
    72d8:	024c5001 	subeq	r5, ip, #1
    72dc:	2a6a0000 	bcs	1a872e4 <__standby_start+0x1a872e4>
    72e0:	08000000 	stmdaeq	r0, {}	; <UNPREDICTABLE>
    72e4:	00012404 	andeq	r2, r1, r4, lsl #8
    72e8:	20011600 	andcs	r1, r1, r0, lsl #12
    72ec:	01000027 	tsteq	r0, r7, lsr #32
    72f0:	37bc0180 	ldrcc	r0, [ip, r0, lsl #3]!
    72f4:	37e8f000 	strbcc	pc, [r8, r0]!	; <UNPREDICTABLE>
    72f8:	2a94f000 	bcs	fe543300 <__bss_end+0xe53f200>
    72fc:	027b0000 	rsbseq	r0, fp, #0
    7300:	f3140000 	vhadd.u16	d0, d4, d0
    7304:	01000023 	tsteq	r0, r3, lsr #32
    7308:	00024c80 	andeq	r4, r2, r0, lsl #25
    730c:	002ab400 	eoreq	fp, sl, r0, lsl #8
    7310:	33170000 	tstcc	r7, #0
    7314:	01000027 	tsteq	r0, r7, lsr #32
    7318:	00024c1a 	andeq	r4, r2, sl, lsl ip
    731c:	b8030500 	stmdalt	r3, {r8, sl}
    7320:	17f0003e 			; <UNDEFINED> instruction: 0x17f0003e
    7324:	00002714 	andeq	r2, r0, r4, lsl r7
    7328:	024c1b01 	subeq	r1, ip, #1024	; 0x400
    732c:	03050000 	movweq	r0, #20480	; 0x5000
    7330:	f0003ebc 			; <UNDEFINED> instruction: 0xf0003ebc
    7334:	00240a18 	eoreq	r0, r4, r8, lsl sl
    7338:	d1220400 	teqle	r2, r0, lsl #8
    733c:	01000000 	mrseq	r0, (UNDEF: 0)
    7340:	02ff0001 	rscseq	r0, pc, #1
    7344:	00020000 	andeq	r0, r2, r0
    7348:	00001e06 	andeq	r1, r0, r6, lsl #28
    734c:	03fd0104 	mvnseq	r0, #1
    7350:	f4010000 	vst4.8	{d0-d3}, [r1], r0
    7354:	35000027 	strcc	r0, [r0, #-39]	; 0x27
    7358:	e8000005 	stmda	r0, {r0, r2}
    735c:	60f00037 	rscsvs	r0, r0, r7, lsr r0
    7360:	87f00039 			; <UNDEFINED> instruction: 0x87f00039
    7364:	0200001b 	andeq	r0, r0, #27
    7368:	07af0601 	streq	r0, [pc, r1, lsl #12]!
    736c:	01020000 	mrseq	r0, (UNDEF: 2)
    7370:	0007ad08 	andeq	sl, r7, r8, lsl #26
    7374:	05020200 	streq	r0, [r2, #-512]	; 0x200
    7378:	00000668 	andeq	r0, r0, r8, ror #12
    737c:	7f070202 	svcvc	0x00070202
    7380:	03000008 	movweq	r0, #8
    7384:	00000e4e 	andeq	r0, r0, lr, asr #28
    7388:	004c1202 	subeq	r1, ip, r2, lsl #4
    738c:	04040000 	streq	r0, [r4], #-0
    7390:	746e6905 	strbtvc	r6, [lr], #-2309	; 0x905
    7394:	04430300 	strbeq	r0, [r3], #-768	; 0x300
    7398:	13020000 	movwne	r0, #8192	; 0x2000
    739c:	0000005e 	andeq	r0, r0, lr, asr r0
    73a0:	54070402 	strpl	r0, [r7], #-1026	; 0x402
    73a4:	02000002 	andeq	r0, r0, #2
    73a8:	047d0508 	ldrbteq	r0, [sp], #-1288	; 0x508
    73ac:	08020000 	stmdaeq	r2, {}	; <UNPREDICTABLE>
    73b0:	00024a07 	andeq	r4, r2, r7, lsl #20
    73b4:	08770500 	ldmdaeq	r7!, {r8, sl}^
    73b8:	03040000 	movweq	r0, #16384	; 0x4000
    73bc:	0000e089 	andeq	lr, r0, r9, lsl #1
    73c0:	06af0600 	strteq	r0, [pc], r0, lsl #12
    73c4:	06000000 	streq	r0, [r0], -r0
    73c8:	0000033d 	andeq	r0, r0, sp, lsr r3
    73cc:	07680601 	strbeq	r0, [r8, -r1, lsl #12]!
    73d0:	06020000 	streq	r0, [r2], -r0
    73d4:	00000331 	andeq	r0, r0, r1, lsr r3
    73d8:	04370603 	ldrteq	r0, [r7], #-1539	; 0x603
    73dc:	06040000 	streq	r0, [r4], -r0
    73e0:	000006bc 			; <UNDEFINED> instruction: 0x000006bc
    73e4:	03f00605 	mvnseq	r0, #5242880	; 0x500000
    73e8:	06060000 	streq	r0, [r6], -r0
    73ec:	00000861 	andeq	r0, r0, r1, ror #16
    73f0:	046a0607 	strbteq	r0, [sl], #-1543	; 0x607
    73f4:	06080000 	streq	r0, [r8], -r0
    73f8:	00000902 	andeq	r0, r0, r2, lsl #18
    73fc:	064a0609 	strbeq	r0, [sl], -r9, lsl #12
    7400:	060a0000 	streq	r0, [sl], -r0
    7404:	00000672 	andeq	r0, r0, r2, ror r6
    7408:	0871060b 	ldmdaeq	r1!, {r0, r1, r3, r9, sl}^
    740c:	060c0000 	streq	r0, [ip], -r0
    7410:	000007c2 	andeq	r0, r0, r2, asr #15
    7414:	0629060d 	strteq	r0, [r9], -sp, lsl #12
    7418:	060e0000 	streq	r0, [lr], -r0
    741c:	00000800 	andeq	r0, r0, r0, lsl #16
    7420:	0102000f 	tsteq	r2, pc
    7424:	0007b608 	andeq	fp, r7, r8, lsl #12
    7428:	07040200 	streq	r0, [r4, -r0, lsl #4]
    742c:	0000024f 	andeq	r0, r0, pc, asr #4
    7430:	00282907 	eoreq	r2, r8, r7, lsl #18
    7434:	01130100 	tsteq	r3, r0, lsl #2
    7438:	000000e7 	andeq	r0, r0, r7, ror #1
    743c:	00010b03 	andeq	r0, r1, r3, lsl #22
    7440:	27ee0800 	strbcs	r0, [lr, r0, lsl #16]!
    7444:	15010000 	strne	r0, [r1, #-0]
    7448:	000000e7 	andeq	r0, r0, r7, ror #1
    744c:	27d10900 	ldrbcs	r0, [r1, r0, lsl #18]
    7450:	33010000 	movwcc	r0, #4096	; 0x1000
    7454:	01240301 	teqeq	r4, r1, lsl #6
    7458:	ee0a0000 	cdp	0, 0, cr0, cr10, cr0, {0}
    745c:	01000027 	tsteq	r0, r7, lsr #32
    7460:	0000e733 	andeq	lr, r0, r3, lsr r7
    7464:	010b0000 	mrseq	r0, (UNDEF: 11)
    7468:	000026b8 			; <UNDEFINED> instruction: 0x000026b8
    746c:	41014701 	tstmi	r1, r1, lsl #14
    7470:	e8000000 	stmda	r0, {}	; <UNPREDICTABLE>
    7474:	18f00037 	ldmne	r0!, {r0, r1, r2, r4, r5}^
    7478:	02f00038 	rscseq	r0, r0, #56	; 0x38
    747c:	0150007d 	cmpeq	r0, sp, ror r0
    7480:	d30c0000 	movwle	r0, #49152	; 0xc000
    7484:	0100001b 	tsteq	r0, fp, lsl r0
    7488:	00005347 	andeq	r5, r0, r7, asr #6
    748c:	002ad200 	eoreq	sp, sl, r0, lsl #4
    7490:	010d0000 	mrseq	r0, (UNDEF: 13)
    7494:	000026ce 	andeq	r2, r0, lr, asr #13
    7498:	41016101 	tstmi	r1, r1, lsl #2
    749c:	18000000 	stmdane	r0, {}	; <UNPREDICTABLE>
    74a0:	94f00038 	ldrbtls	r0, [r0], #56	; 0x38
    74a4:	e5f00038 	ldrb	r0, [r0, #56]!	; 0x38
    74a8:	db00002a 	blle	7558 <__standby_start+0x7558>
    74ac:	0c000001 	stceq	0, cr0, [r0], {1}
    74b0:	00002683 	andeq	r2, r0, r3, lsl #13
    74b4:	00536101 	subseq	r6, r3, r1, lsl #2
    74b8:	2b050000 	blcs	1474c0 <__standby_start+0x1474c0>
    74bc:	da0c0000 	ble	3074c4 <__standby_start+0x3074c4>
    74c0:	01000026 	tsteq	r0, r6, lsr #32
    74c4:	00005361 	andeq	r5, r0, r1, ror #6
    74c8:	002b2e00 	eoreq	r2, fp, r0, lsl #28
    74cc:	27e70e00 	strbcs	r0, [r7, r0, lsl #28]!
    74d0:	64010000 	strvs	r0, [r1], #-0
    74d4:	00000053 	andeq	r0, r0, r3, asr r0
    74d8:	00002b4c 	andeq	r2, r0, ip, asr #22
    74dc:	0000ee0f 	andeq	lr, r0, pc, lsl #28
    74e0:	00381c00 	eorseq	r1, r8, r0, lsl #24
    74e4:	003824f0 	ldrshteq	r2, [r8], -r0
    74e8:	c16701f0 	strdgt	r0, [r7, #-16]!
    74ec:	10000001 	andne	r0, r0, r1
    74f0:	f000381c 			; <UNDEFINED> instruction: 0xf000381c
    74f4:	f0003824 			; <UNDEFINED> instruction: 0xf0003824
    74f8:	0000ff11 	andeq	pc, r0, r1, lsl pc	; <UNPREDICTABLE>
    74fc:	002ba200 	eoreq	sl, fp, r0, lsl #4
    7500:	12000000 	andne	r0, r0, #0
    7504:	0000010b 	andeq	r0, r0, fp, lsl #2
    7508:	f0003870 			; <UNDEFINED> instruction: 0xf0003870
    750c:	f0003874 			; <UNDEFINED> instruction: 0xf0003874
    7510:	18136f01 	ldmdane	r3, {r0, r8, r9, sl, fp, sp, lr}
    7514:	c0000001 	andgt	r0, r0, r1
    7518:	0000002b 	andeq	r0, r0, fp, lsr #32
    751c:	a4010b00 	strge	r0, [r1], #-2816	; 0xb00
    7520:	01000026 	tsteq	r0, r6, lsr #32
    7524:	00410184 	subeq	r0, r1, r4, lsl #3
    7528:	38940000 	ldmcc	r4, {}	; <UNPREDICTABLE>
    752c:	38c4f000 	stmiacc	r4, {ip, sp, lr, pc}^
    7530:	7d02f000 	stcvc	0, cr15, [r2, #-0]
    7534:	00022200 	andeq	r2, r2, r0, lsl #4
    7538:	26830c00 	strcs	r0, [r3], r0, lsl #24
    753c:	84010000 	strhi	r0, [r1], #-0
    7540:	00000053 	andeq	r0, r0, r3, asr r0
    7544:	00002bd3 	ldrdeq	r2, [r0], -r3
    7548:	00010b14 	andeq	r0, r1, r4, lsl fp
    754c:	00389800 	eorseq	r9, r8, r0, lsl #16
    7550:	0002f0f0 	strdeq	pc, [r2], -r0
    7554:	158a0100 	strne	r0, [sl, #256]	; 0x100
    7558:	00000118 	andeq	r0, r0, r8, lsl r1
    755c:	3ec00305 	cdpcc	3, 12, cr0, cr0, cr5, {0}
    7560:	0000f000 	andeq	pc, r0, r0
    7564:	27b7010b 	ldrcs	r0, [r7, fp, lsl #2]!
    7568:	9a010000 	bls	47570 <__standby_start+0x47570>
    756c:	00004101 	andeq	r4, r0, r1, lsl #2
    7570:	0038c400 	eorseq	ip, r8, r0, lsl #8
    7574:	003930f0 	ldrshteq	r3, [r9], -r0
    7578:	007d02f0 	ldrshteq	r0, [sp], #-32	; 0xffffffe0
    757c:	000002aa 	andeq	r0, r0, sl, lsr #5
    7580:	0026830c 	eoreq	r8, r6, ip, lsl #6
    7584:	539a0100 	orrspl	r0, sl, #0
    7588:	e6000000 	str	r0, [r0], -r0
    758c:	0c00002b 	stceq	0, cr0, [r0], {43}	; 0x2b
    7590:	000026da 	ldrdeq	r2, [r0], -sl
    7594:	00539a01 	subseq	r9, r3, r1, lsl #20
    7598:	2c0f0000 	stccs	0, cr0, [pc], {-0}
    759c:	e70e0000 	str	r0, [lr, -r0]
    75a0:	01000027 	tsteq	r0, r7, lsr #32
    75a4:	0000539d 	muleq	r0, sp, r3
    75a8:	002c2d00 	eoreq	r2, ip, r0, lsl #26
    75ac:	00ee0f00 	rsceq	r0, lr, r0, lsl #30
    75b0:	38c40000 	stmiacc	r4, {}^	; <UNPREDICTABLE>
    75b4:	38ccf000 	stmiacc	ip, {ip, sp, lr, pc}^
    75b8:	a001f000 	andge	pc, r1, r0
    75bc:	00000290 	muleq	r0, r0, r2
    75c0:	0038c410 	eorseq	ip, r8, r0, lsl r4
    75c4:	0038ccf0 	ldrshteq	ip, [r8], -r0
    75c8:	00ff16f0 	ldrshteq	r1, [pc], #96
    75cc:	5c010000 	stcpl	0, cr0, [r1], {-0}
    75d0:	0b120000 	bleq	4875d8 <__standby_start+0x4875d8>
    75d4:	18000001 	stmdane	r0, {r0}
    75d8:	1cf00039 	ldclne	0, cr0, [r0], #228	; 0xe4
    75dc:	01f00039 	mvnseq	r0, r9, lsr r0
    75e0:	011813a8 	tsteq	r8, r8, lsr #7
    75e4:	2c830000 	stccs	0, cr0, [r3], {0}
    75e8:	00000000 	andeq	r0, r0, r0
    75ec:	283c010b 	ldmdacs	ip!, {r0, r1, r3, r8}
    75f0:	bd010000 	stclt	0, cr0, [r1, #-0]
    75f4:	00004101 	andeq	r4, r0, r1, lsl #2
    75f8:	00393000 	eorseq	r3, r9, r0
    75fc:	003960f0 	ldrshteq	r6, [r9], -r0
    7600:	007d02f0 	ldrshteq	r0, [sp], #-32	; 0xffffffe0
    7604:	000002f1 	strdeq	r0, [r0], -r1
    7608:	0026830c 	eoreq	r8, r6, ip, lsl #6
    760c:	53bd0100 			; <UNDEFINED> instruction: 0x53bd0100
    7610:	96000000 	strls	r0, [r0], -r0
    7614:	1400002c 	strne	r0, [r0], #-44	; 0x2c
    7618:	0000010b 	andeq	r0, r0, fp, lsl #2
    761c:	f0003934 			; <UNDEFINED> instruction: 0xf0003934
    7620:	00000318 	andeq	r0, r0, r8, lsl r3
    7624:	1815c301 	ldmdane	r5, {r0, r8, r9, lr, pc}
    7628:	05000001 	streq	r0, [r0, #-1]
    762c:	003ec003 	eorseq	ip, lr, r3
    7630:	170000f0 			; <UNDEFINED> instruction: 0x170000f0
    7634:	000027ab 	andeq	r2, r0, fp, lsr #15
    7638:	00530d01 	subseq	r0, r3, r1, lsl #26
    763c:	03050000 	movweq	r0, #20480	; 0x5000
    7640:	f0003ec0 			; <UNDEFINED> instruction: 0xf0003ec0
	...

Disassembly of section .debug_abbrev:

00000000 <.debug_abbrev>:
       0:	25011101 	strcs	r1, [r1, #-257]	; 0x101
       4:	030b130e 	movweq	r1, #45838	; 0xb30e
       8:	110e1b0e 	tstne	lr, lr, lsl #22
       c:	10011201 	andne	r1, r1, r1, lsl #4
      10:	02000006 	andeq	r0, r0, #6
      14:	0b0b0024 	bleq	2c00ac <__standby_start+0x2c00ac>
      18:	0e030b3e 	vmoveq.16	d3[0], r0
      1c:	24030000 	strcs	r0, [r3], #-0
      20:	3e0b0b00 	vmlacc.f64	d0, d11, d0
      24:	0008030b 	andeq	r0, r8, fp, lsl #6
      28:	00160400 	andseq	r0, r6, r0, lsl #8
      2c:	0b3a0e03 	bleq	e83840 <__standby_start+0xe83840>
      30:	13490b3b 	movtne	r0, #39739	; 0x9b3b
      34:	04050000 	streq	r0, [r5], #-0
      38:	0b0e0301 	bleq	380c44 <__standby_start+0x380c44>
      3c:	3b0b3a0b 	blcc	2ce870 <__standby_start+0x2ce870>
      40:	0013010b 	andseq	r0, r3, fp, lsl #2
      44:	00280600 	eoreq	r0, r8, r0, lsl #12
      48:	0d1c0e03 	ldceq	14, cr0, [ip, #-12]
      4c:	13070000 	movwne	r0, #28672	; 0x7000
      50:	0b0e0301 	bleq	380c5c <__standby_start+0x380c5c>
      54:	3b0b3a0b 	blcc	2ce888 <__standby_start+0x2ce888>
      58:	0013010b 	andseq	r0, r3, fp, lsl #2
      5c:	000d0800 	andeq	r0, sp, r0, lsl #16
      60:	0b3a0e03 	bleq	e83874 <__standby_start+0xe83874>
      64:	13490b3b 	movtne	r0, #39739	; 0x9b3b
      68:	00000a38 	andeq	r0, r0, r8, lsr sl
      6c:	03000d09 	movweq	r0, #3337	; 0xd09
      70:	3b0b3a08 	blcc	2ce898 <__standby_start+0x2ce898>
      74:	3813490b 	ldmdacc	r3, {r0, r1, r3, r8, fp, lr}
      78:	0a00000a 	beq	a8 <__standby_start+0xa8>
      7c:	13490101 	movtne	r0, #37121	; 0x9101
      80:	00001301 	andeq	r1, r0, r1, lsl #6
      84:	4900210b 	stmdbmi	r0, {r0, r1, r3, r8, sp}
      88:	000b2f13 	andeq	r2, fp, r3, lsl pc
      8c:	000f0c00 	andeq	r0, pc, r0, lsl #24
      90:	13490b0b 	movtne	r0, #39691	; 0x9b0b
      94:	130d0000 	movwne	r0, #53248	; 0xd000
      98:	0b0e0301 	bleq	380ca4 <__standby_start+0x380ca4>
      9c:	3b0b3a05 	blcc	2ce8b8 <__standby_start+0x2ce8b8>
      a0:	0013010b 	andseq	r0, r3, fp, lsl #2
      a4:	000d0e00 	andeq	r0, sp, r0, lsl #28
      a8:	0b3a0e03 	bleq	e838bc <__standby_start+0xe838bc>
      ac:	1349053b 	movtne	r0, #38203	; 0x953b
      b0:	00000a38 	andeq	r0, r0, r8, lsr sl
      b4:	0300160f 	movweq	r1, #1551	; 0x60f
      b8:	3b0b3a0e 	blcc	2ce8f8 <__standby_start+0x2ce8f8>
      bc:	00134905 	andseq	r4, r3, r5, lsl #18
      c0:	01131000 	tsteq	r3, r0
      c4:	050b0e03 	streq	r0, [fp, #-3587]	; 0xe03
      c8:	053b0b3a 	ldreq	r0, [fp, #-2874]!	; 0xb3a
      cc:	00001301 	andeq	r1, r0, r1, lsl #6
      d0:	03000d11 	movweq	r0, #3345	; 0xd11
      d4:	3b0b3a08 	blcc	2ce8fc <__standby_start+0x2ce8fc>
      d8:	38134905 	ldmdacc	r3, {r0, r2, r8, fp, lr}
      dc:	1200000a 	andne	r0, r0, #10
      e0:	0e030113 	mcreq	1, 0, r0, cr3, cr3, {0}
      e4:	0b3a0b0b 	bleq	e82d18 <__standby_start+0xe82d18>
      e8:	1301053b 	movwne	r0, #5435	; 0x153b
      ec:	04130000 	ldreq	r0, [r3], #-0
      f0:	3a0b0b01 	bcc	2c2cfc <__standby_start+0x2c2cfc>
      f4:	010b3b0b 	tsteq	fp, fp, lsl #22
      f8:	14000013 	strne	r0, [r0], #-19
      fc:	0e03002e 	cdpeq	0, 0, cr0, cr3, cr14, {1}
     100:	053b0b3a 	ldreq	r0, [fp, #-2874]!	; 0xb3a
     104:	0b200c27 	bleq	8031a8 <__standby_start+0x8031a8>
     108:	2e150000 	cdpcs	0, 1, cr0, cr5, cr0, {0}
     10c:	3a0e0301 	bcc	380d18 <__standby_start+0x380d18>
     110:	27053b0b 	strcs	r3, [r5, -fp, lsl #22]
     114:	010b200c 	tsteq	fp, ip
     118:	16000013 			; <UNDEFINED> instruction: 0x16000013
     11c:	0c3f012e 	ldfeqs	f0, [pc], #-184	; 6c <__standby_start+0x6c>
     120:	0b3a0e03 	bleq	e83934 <__standby_start+0xe83934>
     124:	1349053b 	movtne	r0, #38203	; 0x953b
     128:	00000c3c 	andeq	r0, r0, ip, lsr ip
     12c:	00001817 	andeq	r1, r0, r7, lsl r8
     130:	012e1800 	teqeq	lr, r0, lsl #16
     134:	0e030c3f 	mcreq	12, 0, r0, cr3, cr15, {1}
     138:	0b3b0b3a 	bleq	ec2e28 <__standby_start+0xec2e28>
     13c:	13490c27 	movtne	r0, #39975	; 0x9c27
     140:	01120111 	tsteq	r2, r1, lsl r1
     144:	13010640 	movwne	r0, #5696	; 0x1640
     148:	05190000 	ldreq	r0, [r9, #-0]
     14c:	3a080300 	bcc	200d54 <__standby_start+0x200d54>
     150:	490b3b0b 	stmdbmi	fp, {r0, r1, r3, r8, r9, fp, ip, sp}
     154:	00060213 	andeq	r0, r6, r3, lsl r2
     158:	00341a00 	eorseq	r1, r4, r0, lsl #20
     15c:	0b3a0e03 	bleq	e83970 <__standby_start+0xe83970>
     160:	13490b3b 	movtne	r0, #39739	; 0x9b3b
     164:	00000602 	andeq	r0, r0, r2, lsl #12
     168:	31011d1b 	tstcc	r1, fp, lsl sp
     16c:	55015213 	strpl	r5, [r1, #-531]	; 0x213
     170:	590b5806 	stmdbpl	fp, {r1, r2, fp, ip, lr}
     174:	0013010b 	andseq	r0, r3, fp, lsl #2
     178:	011d1c00 	tsteq	sp, r0, lsl #24
     17c:	01521331 	cmpeq	r2, r1, lsr r3
     180:	0b580655 	bleq	1601adc <__standby_start+0x1601adc>
     184:	00000559 	andeq	r0, r0, r9, asr r5
     188:	31011d1d 	tstcc	r1, sp, lsl sp
     18c:	55015213 	strpl	r5, [r1, #-531]	; 0x213
     190:	590b5806 	stmdbpl	fp, {r1, r2, fp, ip, lr}
     194:	00130105 	andseq	r0, r3, r5, lsl #2
     198:	000b1e00 	andeq	r1, fp, r0, lsl #28
     19c:	00000655 	andeq	r0, r0, r5, asr r6
     1a0:	31001d1f 	tstcc	r0, pc, lsl sp
     1a4:	55015213 	strpl	r5, [r1, #-531]	; 0x213
     1a8:	590b5806 	stmdbpl	fp, {r1, r2, fp, ip, lr}
     1ac:	20000005 	andcs	r0, r0, r5
     1b0:	1331001d 	teqne	r1, #29
     1b4:	01120111 	tsteq	r2, r1, lsl r1
     1b8:	05590b58 	ldrbeq	r0, [r9, #-2904]	; 0xb58
     1bc:	1d210000 	stcne	0, cr0, [r1, #-0]
     1c0:	11133100 	tstne	r3, r0, lsl #2
     1c4:	58011201 	stmdapl	r1, {r0, r9, ip}
     1c8:	000b590b 	andeq	r5, fp, fp, lsl #18
     1cc:	00342200 	eorseq	r2, r4, r0, lsl #4
     1d0:	0b3a0e03 	bleq	e839e4 <__standby_start+0xe839e4>
     1d4:	13490b3b 	movtne	r0, #39739	; 0x9b3b
     1d8:	00000a02 	andeq	r0, r0, r2, lsl #20
     1dc:	03003423 	movweq	r3, #1059	; 0x423
     1e0:	3b0b3a0e 	blcc	2cea20 <__standby_start+0x2cea20>
     1e4:	1c13490b 	ldcne	9, cr4, [r3], {11}
     1e8:	2400000b 	strcs	r0, [r0], #-11
     1ec:	13490021 	movtne	r0, #36897	; 0x9021
     1f0:	0000052f 	andeq	r0, r0, pc, lsr #10
     1f4:	03003425 	movweq	r3, #1061	; 0x425
     1f8:	3b0b3a0e 	blcc	2cea38 <__standby_start+0x2cea38>
     1fc:	0013490b 	andseq	r4, r3, fp, lsl #18
     200:	00342600 	eorseq	r2, r4, r0, lsl #12
     204:	0b3a0e03 	bleq	e83a18 <__standby_start+0xe83a18>
     208:	13490b3b 	movtne	r0, #39739	; 0x9b3b
     20c:	0a020c3f 	beq	83310 <__standby_start+0x83310>
     210:	34270000 	strtcc	r0, [r7], #-0
     214:	3a0e0300 	bcc	380e1c <__standby_start+0x380e1c>
     218:	490b3b0b 	stmdbmi	fp, {r0, r1, r3, r8, r9, fp, ip, sp}
     21c:	3c0c3f13 	stccc	15, cr3, [ip], {19}
     220:	0000000c 	andeq	r0, r0, ip
     224:	25011101 	strcs	r1, [r1, #-257]	; 0x101
     228:	030b130e 	movweq	r1, #45838	; 0xb30e
     22c:	110e1b0e 	tstne	lr, lr, lsl #22
     230:	10011201 	andne	r1, r1, r1, lsl #4
     234:	02000006 	andeq	r0, r0, #6
     238:	0b0b0024 	bleq	2c02d0 <__standby_start+0x2c02d0>
     23c:	0e030b3e 	vmoveq.16	d3[0], r0
     240:	24030000 	strcs	r0, [r3], #-0
     244:	3e0b0b00 	vmlacc.f64	d0, d11, d0
     248:	0008030b 	andeq	r0, r8, fp, lsl #6
     24c:	000f0400 	andeq	r0, pc, r0, lsl #8
     250:	00000b0b 	andeq	r0, r0, fp, lsl #22
     254:	3f012e05 	svccc	0x00012e05
     258:	3a0e030c 	bcc	380e90 <__standby_start+0x380e90>
     25c:	270b3b0b 	strcs	r3, [fp, -fp, lsl #22]
     260:	1201110c 	andne	r1, r1, #3
     264:	010a4001 	tsteq	sl, r1
     268:	06000013 			; <UNDEFINED> instruction: 0x06000013
     26c:	0e030005 	cdpeq	0, 0, cr0, cr3, cr5, {0}
     270:	0b3b0b3a 	bleq	ec2f60 <__standby_start+0xec2f60>
     274:	06021349 	streq	r1, [r2], -r9, asr #6
     278:	05070000 	streq	r0, [r7, #-0]
     27c:	3a080300 	bcc	200e84 <__standby_start+0x200e84>
     280:	490b3b0b 	stmdbmi	fp, {r0, r1, r3, r8, r9, fp, ip, sp}
     284:	00060213 	andeq	r0, r6, r3, lsl r2
     288:	00340800 	eorseq	r0, r4, r0, lsl #16
     28c:	0b3a0e03 	bleq	e83aa0 <__standby_start+0xe83aa0>
     290:	13490b3b 	movtne	r0, #39739	; 0x9b3b
     294:	00000602 	andeq	r0, r0, r2, lsl #12
     298:	03003409 	movweq	r3, #1033	; 0x409
     29c:	3b0b3a0e 	blcc	2ceadc <__standby_start+0x2ceadc>
     2a0:	0213490b 	andseq	r4, r3, #180224	; 0x2c000
     2a4:	0a00000a 	beq	2d4 <__standby_start+0x2d4>
     2a8:	0b0b000f 	bleq	2c02ec <__standby_start+0x2c02ec>
     2ac:	00001349 	andeq	r1, r0, r9, asr #6
     2b0:	01110100 	tsteq	r1, r0, lsl #2
     2b4:	0b130e25 	bleq	4c3b50 <__standby_start+0x4c3b50>
     2b8:	0e1b0e03 	cdpeq	14, 1, cr0, cr11, cr3, {0}
     2bc:	01120111 	tsteq	r2, r1, lsl r1
     2c0:	00000610 	andeq	r0, r0, r0, lsl r6
     2c4:	0b002402 	bleq	92d4 <__standby_start+0x92d4>
     2c8:	030b3e0b 	movweq	r3, #48651	; 0xbe0b
     2cc:	0300000e 	movweq	r0, #14
     2d0:	0e030016 	mcreq	0, 0, r0, cr3, cr6, {0}
     2d4:	0b3b0b3a 	bleq	ec2fc4 <__standby_start+0xec2fc4>
     2d8:	00001349 	andeq	r1, r0, r9, asr #6
     2dc:	0b002404 	bleq	92f4 <__standby_start+0x92f4>
     2e0:	030b3e0b 	movweq	r3, #48651	; 0xbe0b
     2e4:	05000008 	streq	r0, [r0, #-8]
     2e8:	0b0b0113 	bleq	2c073c <__standby_start+0x2c073c>
     2ec:	0b3b0b3a 	bleq	ec2fdc <__standby_start+0xec2fdc>
     2f0:	00001301 	andeq	r1, r0, r1, lsl #6
     2f4:	03000d06 	movweq	r0, #3334	; 0xd06
     2f8:	3b0b3a0e 	blcc	2ceb38 <__standby_start+0x2ceb38>
     2fc:	0b13490b 	bleq	4d2730 <__standby_start+0x4d2730>
     300:	0c0b0d0b 	stceq	13, cr0, [fp], {11}
     304:	000a380b 	andeq	r3, sl, fp, lsl #16
     308:	01170700 	tsteq	r7, r0, lsl #14
     30c:	0b3a0b0b 	bleq	e82f40 <__standby_start+0xe82f40>
     310:	13010b3b 	movwne	r0, #6971	; 0x1b3b
     314:	0d080000 	stceq	0, cr0, [r8, #-0]
     318:	3a0e0300 	bcc	380f20 <__standby_start+0x380f20>
     31c:	490b3b0b 	stmdbmi	fp, {r0, r1, r3, r8, r9, fp, ip, sp}
     320:	09000013 	stmdbeq	r0, {r0, r1, r4}
     324:	0e030113 	mcreq	1, 0, r0, cr3, cr3, {0}
     328:	0b3a0b0b 	bleq	e82f5c <__standby_start+0xe82f5c>
     32c:	13010b3b 	movwne	r0, #6971	; 0x1b3b
     330:	130a0000 	movwne	r0, #40960	; 0xa000
     334:	0b0e0301 	bleq	380f40 <__standby_start+0x380f40>
     338:	3b0b3a05 	blcc	2ceb54 <__standby_start+0x2ceb54>
     33c:	0013010b 	andseq	r0, r3, fp, lsl #2
     340:	000d0b00 	andeq	r0, sp, r0, lsl #22
     344:	0b3a0e03 	bleq	e83b58 <__standby_start+0xe83b58>
     348:	13490b3b 	movtne	r0, #39739	; 0x9b3b
     34c:	00000a38 	andeq	r0, r0, r8, lsr sl
     350:	03000d0c 	movweq	r0, #3340	; 0xd0c
     354:	3b0b3a08 	blcc	2ceb7c <__standby_start+0x2ceb7c>
     358:	3813490b 	ldmdacc	r3, {r0, r1, r3, r8, fp, lr}
     35c:	0d00000a 	stceq	0, cr0, [r0, #-40]	; 0xffffffd8
     360:	13490035 	movtne	r0, #36917	; 0x9035
     364:	010e0000 	mrseq	r0, (UNDEF: 14)
     368:	01134901 	tsteq	r3, r1, lsl #18
     36c:	0f000013 	svceq	0x00000013
     370:	13490021 	movtne	r0, #36897	; 0x9021
     374:	00000b2f 	andeq	r0, r0, pc, lsr #22
     378:	0b000f10 	bleq	3fc0 <__standby_start+0x3fc0>
     37c:	0013490b 	andseq	r4, r3, fp, lsl #18
     380:	01041100 	mrseq	r1, (UNDEF: 20)
     384:	0b0b0e03 	bleq	2c3b98 <__standby_start+0x2c3b98>
     388:	0b3b0b3a 	bleq	ec3078 <__standby_start+0xec3078>
     38c:	00001301 	andeq	r1, r0, r1, lsl #6
     390:	03002812 	movweq	r2, #2066	; 0x812
     394:	000d1c0e 	andeq	r1, sp, lr, lsl #24
     398:	000f1300 	andeq	r1, pc, r0, lsl #6
     39c:	00000b0b 	andeq	r0, r0, fp, lsl #22
     3a0:	03012e14 	movweq	r2, #7700	; 0x1e14
     3a4:	3b0b3a0e 	blcc	2cebe4 <__standby_start+0x2cebe4>
     3a8:	200c2705 	andcs	r2, ip, r5, lsl #14
     3ac:	0013010b 	andseq	r0, r3, fp, lsl #2
     3b0:	00341500 	eorseq	r1, r4, r0, lsl #10
     3b4:	0b3a0803 	bleq	e823c8 <__standby_start+0xe823c8>
     3b8:	1349053b 	movtne	r0, #38203	; 0x953b
     3bc:	2e160000 	cdpcs	0, 1, cr0, cr6, cr0, {0}
     3c0:	030c3f00 	movweq	r3, #52992	; 0xcf00
     3c4:	3b0b3a0e 	blcc	2cec04 <__standby_start+0x2cec04>
     3c8:	490c2705 	stmdbmi	ip, {r0, r2, r8, r9, sl, sp}
     3cc:	12011113 	andne	r1, r1, #-1073741820	; 0xc0000004
     3d0:	000a4001 	andeq	r4, sl, r1
     3d4:	012e1700 	teqeq	lr, r0, lsl #14
     3d8:	0e030c3f 	mcreq	12, 0, r0, cr3, cr15, {1}
     3dc:	053b0b3a 	ldreq	r0, [fp, #-2874]!	; 0xb3a
     3e0:	13490c27 	movtne	r0, #39975	; 0x9c27
     3e4:	01120111 	tsteq	r2, r1, lsl r1
     3e8:	13010a40 	movwne	r0, #6720	; 0x1a40
     3ec:	1d180000 	ldcne	0, cr0, [r8, #-0]
     3f0:	11133101 	tstne	r3, r1, lsl #2
     3f4:	58011201 	stmdapl	r1, {r0, r9, ip}
     3f8:	0005590b 	andeq	r5, r5, fp, lsl #18
     3fc:	010b1900 	tsteq	fp, r0, lsl #18
     400:	01120111 	tsteq	r2, r1, lsl r1
     404:	341a0000 	ldrcc	r0, [sl], #-0
     408:	02133100 	andseq	r3, r3, #0
     40c:	1b000006 	blne	42c <__standby_start+0x42c>
     410:	0c3f002e 	ldceq	0, cr0, [pc], #-184	; 360 <__standby_start+0x360>
     414:	0b3a0e03 	bleq	e83c28 <__standby_start+0xe83c28>
     418:	0c27053b 	cfstr32eq	mvfx0, [r7], #-236	; 0xffffff14
     41c:	01120111 	tsteq	r2, r1, lsl r1
     420:	00000a40 	andeq	r0, r0, r0, asr #20
     424:	0300341c 	movweq	r3, #1052	; 0x41c
     428:	3b0b3a0e 	blcc	2cec68 <__standby_start+0x2cec68>
     42c:	0213490b 	andseq	r4, r3, #180224	; 0x2c000
     430:	0000000a 	andeq	r0, r0, sl
     434:	25011101 	strcs	r1, [r1, #-257]	; 0x101
     438:	030b130e 	movweq	r1, #45838	; 0xb30e
     43c:	110e1b0e 	tstne	lr, lr, lsl #22
     440:	10011201 	andne	r1, r1, r1, lsl #4
     444:	02000006 	andeq	r0, r0, #6
     448:	0b0b0024 	bleq	2c04e0 <__standby_start+0x2c04e0>
     44c:	0e030b3e 	vmoveq.16	d3[0], r0
     450:	16030000 	strne	r0, [r3], -r0
     454:	3a0e0300 	bcc	38105c <__standby_start+0x38105c>
     458:	490b3b0b 	stmdbmi	fp, {r0, r1, r3, r8, r9, fp, ip, sp}
     45c:	04000013 	streq	r0, [r0], #-19
     460:	0b0b0024 	bleq	2c04f8 <__standby_start+0x2c04f8>
     464:	08030b3e 	stmdaeq	r3, {r1, r2, r3, r4, r5, r8, r9, fp}
     468:	2e050000 	cdpcs	0, 0, cr0, cr5, cr0, {0}
     46c:	030c3f00 	movweq	r3, #52992	; 0xcf00
     470:	3b0b3a0e 	blcc	2cecb0 <__standby_start+0x2cecb0>
     474:	490c270b 	stmdbmi	ip, {r0, r1, r3, r8, r9, sl, sp}
     478:	12011113 	andne	r1, r1, #-1073741820	; 0xc0000004
     47c:	000a4001 	andeq	r4, sl, r1
     480:	11010000 	mrsne	r0, (UNDEF: 1)
     484:	130e2501 	movwne	r2, #58625	; 0xe501
     488:	1b0e030b 	blne	3810bc <__standby_start+0x3810bc>
     48c:	1201110e 	andne	r1, r1, #-2147483645	; 0x80000003
     490:	00061001 	andeq	r1, r6, r1
     494:	00240200 	eoreq	r0, r4, r0, lsl #4
     498:	0b3e0b0b 	bleq	f830cc <__standby_start+0xf830cc>
     49c:	00000e03 	andeq	r0, r0, r3, lsl #28
     4a0:	03001603 	movweq	r1, #1539	; 0x603
     4a4:	3b0b3a0e 	blcc	2cece4 <__standby_start+0x2cece4>
     4a8:	0013490b 	andseq	r4, r3, fp, lsl #18
     4ac:	00240400 	eoreq	r0, r4, r0, lsl #8
     4b0:	0b3e0b0b 	bleq	f830e4 <__standby_start+0xf830e4>
     4b4:	00000803 	andeq	r0, r0, r3, lsl #16
     4b8:	49003505 	stmdbmi	r0, {r0, r2, r8, sl, ip, sp}
     4bc:	06000013 			; <UNDEFINED> instruction: 0x06000013
     4c0:	0e030104 	adfeqs	f0, f3, f4
     4c4:	0b3a0b0b 	bleq	e830f8 <__standby_start+0xe830f8>
     4c8:	13010b3b 	movwne	r0, #6971	; 0x1b3b
     4cc:	28070000 	stmdacs	r7, {}	; <UNPREDICTABLE>
     4d0:	1c0e0300 	stcne	3, cr0, [lr], {-0}
     4d4:	0800000d 	stmdaeq	r0, {r0, r2, r3}
     4d8:	0e030113 	mcreq	1, 0, r0, cr3, cr3, {0}
     4dc:	0b3a0b0b 	bleq	e83110 <__standby_start+0xe83110>
     4e0:	13010b3b 	movwne	r0, #6971	; 0x1b3b
     4e4:	0d090000 	stceq	0, cr0, [r9, #-0]
     4e8:	3a0e0300 	bcc	3810f0 <__standby_start+0x3810f0>
     4ec:	490b3b0b 	stmdbmi	fp, {r0, r1, r3, r8, r9, fp, ip, sp}
     4f0:	000a3813 	andeq	r3, sl, r3, lsl r8
     4f4:	002e0a00 	eoreq	r0, lr, r0, lsl #20
     4f8:	0e030c3f 	mcreq	12, 0, r0, cr3, cr15, {1}
     4fc:	0b3b0b3a 	bleq	ec31ec <__standby_start+0xec31ec>
     500:	13490c27 	movtne	r0, #39975	; 0x9c27
     504:	01120111 	tsteq	r2, r1, lsl r1
     508:	00000640 	andeq	r0, r0, r0, asr #12
     50c:	3f002e0b 	svccc	0x00002e0b
     510:	3a0e030c 	bcc	381148 <__standby_start+0x381148>
     514:	270b3b0b 	strcs	r3, [fp, -fp, lsl #22]
     518:	1113490c 	tstne	r3, ip, lsl #18
     51c:	40011201 	andmi	r1, r1, r1, lsl #4
     520:	0c00000a 	stceq	0, cr0, [r0], {10}
     524:	0e030034 	mcreq	0, 0, r0, cr3, cr4, {1}
     528:	0b3b0b3a 	bleq	ec3218 <__standby_start+0xec3218>
     52c:	0a021349 	beq	85258 <__standby_start+0x85258>
     530:	0f0d0000 	svceq	0x000d0000
     534:	490b0b00 	stmdbmi	fp, {r8, r9, fp}
     538:	0e000013 	mcreq	0, 0, r0, cr0, cr3, {0}
     53c:	0e030034 	mcreq	0, 0, r0, cr3, cr4, {1}
     540:	0b3b0b3a 	bleq	ec3230 <__standby_start+0xec3230>
     544:	00001349 	andeq	r1, r0, r9, asr #6
     548:	01110100 	tsteq	r1, r0, lsl #2
     54c:	0b130e25 	bleq	4c3de8 <__standby_start+0x4c3de8>
     550:	0e1b0e03 	cdpeq	14, 1, cr0, cr11, cr3, {0}
     554:	01120111 	tsteq	r2, r1, lsl r1
     558:	00000610 	andeq	r0, r0, r0, lsl r6
     55c:	0b002402 	bleq	956c <__standby_start+0x956c>
     560:	030b3e0b 	movweq	r3, #48651	; 0xbe0b
     564:	0300000e 	movweq	r0, #14
     568:	0e030016 	mcreq	0, 0, r0, cr3, cr6, {0}
     56c:	0b3b0b3a 	bleq	ec325c <__standby_start+0xec325c>
     570:	00001349 	andeq	r1, r0, r9, asr #6
     574:	0b002404 	bleq	958c <__standby_start+0x958c>
     578:	030b3e0b 	movweq	r3, #48651	; 0xbe0b
     57c:	05000008 	streq	r0, [r0, #-8]
     580:	0e030104 	adfeqs	f0, f3, f4
     584:	0b3a0b0b 	bleq	e831b8 <__standby_start+0xe831b8>
     588:	13010b3b 	movwne	r0, #6971	; 0x1b3b
     58c:	28060000 	stmdacs	r6, {}	; <UNPREDICTABLE>
     590:	1c0e0300 	stcne	3, cr0, [lr], {-0}
     594:	0700000d 	streq	r0, [r0, -sp]
     598:	0e030113 	mcreq	1, 0, r0, cr3, cr3, {0}
     59c:	0b3a0b0b 	bleq	e831d0 <__standby_start+0xe831d0>
     5a0:	13010b3b 	movwne	r0, #6971	; 0x1b3b
     5a4:	0d080000 	stceq	0, cr0, [r8, #-0]
     5a8:	3a080300 	bcc	2011b0 <__standby_start+0x2011b0>
     5ac:	490b3b0b 	stmdbmi	fp, {r0, r1, r3, r8, r9, fp, ip, sp}
     5b0:	000a3813 	andeq	r3, sl, r3, lsl r8
     5b4:	000d0900 	andeq	r0, sp, r0, lsl #18
     5b8:	0b3a0e03 	bleq	e83dcc <__standby_start+0xe83dcc>
     5bc:	13490b3b 	movtne	r0, #39739	; 0x9b3b
     5c0:	00000a38 	andeq	r0, r0, r8, lsr sl
     5c4:	03012e0a 	movweq	r2, #7690	; 0x1e0a
     5c8:	3b0b3a0e 	blcc	2cee08 <__standby_start+0x2cee08>
     5cc:	490c270b 	stmdbmi	ip, {r0, r1, r3, r8, r9, sl, sp}
     5d0:	010b2013 	tsteq	fp, r3, lsl r0
     5d4:	0b000013 	bleq	628 <__standby_start+0x628>
     5d8:	08030005 	stmdaeq	r3, {r0, r2}
     5dc:	0b3b0b3a 	bleq	ec32cc <__standby_start+0xec32cc>
     5e0:	00001349 	andeq	r1, r0, r9, asr #6
     5e4:	0300340c 	movweq	r3, #1036	; 0x40c
     5e8:	3b0b3a08 	blcc	2cee10 <__standby_start+0x2cee10>
     5ec:	0013490b 	andseq	r4, r3, fp, lsl #18
     5f0:	000f0d00 	andeq	r0, pc, r0, lsl #26
     5f4:	13490b0b 	movtne	r0, #39691	; 0x9b0b
     5f8:	050e0000 	streq	r0, [lr, #-0]
     5fc:	3a0e0300 	bcc	381204 <__standby_start+0x381204>
     600:	490b3b0b 	stmdbmi	fp, {r0, r1, r3, r8, r9, fp, ip, sp}
     604:	0f000013 	svceq	0x00000013
     608:	0e03012e 	adfeqsp	f0, f3, #0.5
     60c:	0b3b0b3a 	bleq	ec32fc <__standby_start+0xec32fc>
     610:	01110c27 	tsteq	r1, r7, lsr #24
     614:	06400112 			; <UNDEFINED> instruction: 0x06400112
     618:	00001301 	andeq	r1, r0, r1, lsl #6
     61c:	03000510 	movweq	r0, #1296	; 0x510
     620:	3b0b3a0e 	blcc	2cee60 <__standby_start+0x2cee60>
     624:	0213490b 	andseq	r4, r3, #180224	; 0x2c000
     628:	11000006 	tstne	r0, r6
     62c:	0e030034 	mcreq	0, 0, r0, cr3, cr4, {1}
     630:	0b3b0b3a 	bleq	ec3320 <__standby_start+0xec3320>
     634:	06021349 	streq	r1, [r2], -r9, asr #6
     638:	34120000 	ldrcc	r0, [r2], #-0
     63c:	3a080300 	bcc	201244 <__standby_start+0x201244>
     640:	490b3b0b 	stmdbmi	fp, {r0, r1, r3, r8, r9, fp, ip, sp}
     644:	00060213 	andeq	r0, r6, r3, lsl r2
     648:	011d1300 	tsteq	sp, r0, lsl #6
     64c:	01521331 	cmpeq	r2, r1, lsr r3
     650:	0b580655 	bleq	1601fac <__standby_start+0x1601fac>
     654:	13010b59 	movwne	r0, #7001	; 0x1b59
     658:	05140000 	ldreq	r0, [r4, #-0]
     65c:	02133100 	andseq	r3, r3, #0
     660:	15000006 	strne	r0, [r0, #-6]
     664:	0655010b 	ldrbeq	r0, [r5], -fp, lsl #2
     668:	34160000 	ldrcc	r0, [r6], #-0
     66c:	02133100 	andseq	r3, r3, #0
     670:	17000006 	strne	r0, [r0, -r6]
     674:	1331011d 	teqne	r1, #1073741831	; 0x40000007
     678:	01120111 	tsteq	r2, r1, lsl r1
     67c:	0b590b58 	bleq	16433e4 <__standby_start+0x16433e4>
     680:	05180000 	ldreq	r0, [r8, #-0]
     684:	02133100 	andseq	r3, r3, #0
     688:	1900000a 	stmdbne	r0, {r1, r3}
     68c:	0e03012e 	adfeqsp	f0, f3, #0.5
     690:	0b3b0b3a 	bleq	ec3380 <__standby_start+0xec3380>
     694:	13490c27 	movtne	r0, #39975	; 0x9c27
     698:	01120111 	tsteq	r2, r1, lsl r1
     69c:	13010640 	movwne	r0, #5696	; 0x1640
     6a0:	341a0000 	ldrcc	r0, [sl], #-0
     6a4:	3a0e0300 	bcc	3812ac <__standby_start+0x3812ac>
     6a8:	490b3b0b 	stmdbmi	fp, {r0, r1, r3, r8, r9, fp, ip, sp}
     6ac:	000a0213 	andeq	r0, sl, r3, lsl r2
     6b0:	011d1b00 	tsteq	sp, r0, lsl #22
     6b4:	01521331 	cmpeq	r2, r1, lsr r3
     6b8:	0b580655 	bleq	1602014 <__standby_start+0x1602014>
     6bc:	00000b59 	andeq	r0, r0, r9, asr fp
     6c0:	3f012e1c 	svccc	0x00012e1c
     6c4:	3a0e030c 	bcc	3812fc <__standby_start+0x3812fc>
     6c8:	270b3b0b 	strcs	r3, [fp, -fp, lsl #22]
     6cc:	1113490c 	tstne	r3, ip, lsl #18
     6d0:	40011201 	andmi	r1, r1, r1, lsl #4
     6d4:	00130106 	andseq	r0, r3, r6, lsl #2
     6d8:	01011d00 	tsteq	r1, r0, lsl #26
     6dc:	13011349 	movwne	r1, #4937	; 0x1349
     6e0:	211e0000 	tstcs	lr, r0
     6e4:	2f134900 	svccs	0x00134900
     6e8:	1f00000b 	svcne	0x0000000b
     6ec:	13490026 	movtne	r0, #36902	; 0x9026
     6f0:	01000000 	mrseq	r0, (UNDEF: 0)
     6f4:	0e250111 	mcreq	1, 1, r0, cr5, cr1, {0}
     6f8:	0e030b13 	vmoveq.32	d3[0], r0
     6fc:	01110e1b 	tsteq	r1, fp, lsl lr
     700:	06100112 			; <UNDEFINED> instruction: 0x06100112
     704:	24020000 	strcs	r0, [r2], #-0
     708:	3e0b0b00 	vmlacc.f64	d0, d11, d0
     70c:	000e030b 	andeq	r0, lr, fp, lsl #6
     710:	00240300 	eoreq	r0, r4, r0, lsl #6
     714:	0b3e0b0b 	bleq	f83348 <__standby_start+0xf83348>
     718:	00000803 	andeq	r0, r0, r3, lsl #16
     71c:	03010404 	movweq	r0, #5124	; 0x1404
     720:	3a0b0b0e 	bcc	2c3360 <__standby_start+0x2c3360>
     724:	010b3b0b 	tsteq	fp, fp, lsl #22
     728:	05000013 	streq	r0, [r0, #-19]
     72c:	0e030028 	cdpeq	0, 0, cr0, cr3, cr8, {1}
     730:	00000d1c 	andeq	r0, r0, ip, lsl sp
     734:	49010106 	stmdbmi	r1, {r1, r2, r8}
     738:	00130113 	andseq	r0, r3, r3, lsl r1
     73c:	00210700 	eoreq	r0, r1, r0, lsl #14
     740:	0b2f1349 	bleq	bc546c <__standby_start+0xbc546c>
     744:	0f080000 	svceq	0x00080000
     748:	490b0b00 	stmdbmi	fp, {r8, r9, fp}
     74c:	09000013 	stmdbeq	r0, {r0, r1, r4}
     750:	0c3f012e 	ldfeqs	f0, [pc], #-184	; 6a0 <__standby_start+0x6a0>
     754:	0b3a0e03 	bleq	e83f68 <__standby_start+0xe83f68>
     758:	0c270b3b 	stceq	11, cr0, [r7], #-236	; 0xffffff14
     75c:	01111349 	tsteq	r1, r9, asr #6
     760:	06400112 			; <UNDEFINED> instruction: 0x06400112
     764:	00001301 	andeq	r1, r0, r1, lsl #6
     768:	0300050a 	movweq	r0, #1290	; 0x50a
     76c:	3b0b3a0e 	blcc	2cefac <__standby_start+0x2cefac>
     770:	0213490b 	andseq	r4, r3, #180224	; 0x2c000
     774:	0b000006 	bleq	794 <__standby_start+0x794>
     778:	0e030034 	mcreq	0, 0, r0, cr3, cr4, {1}
     77c:	0b3b0b3a 	bleq	ec346c <__standby_start+0xec346c>
     780:	06021349 	streq	r1, [r2], -r9, asr #6
     784:	340c0000 	strcc	r0, [ip], #-0
     788:	3a080300 	bcc	201390 <__standby_start+0x201390>
     78c:	490b3b0b 	stmdbmi	fp, {r0, r1, r3, r8, r9, fp, ip, sp}
     790:	00060213 	andeq	r0, r6, r3, lsl r2
     794:	010b0d00 	tsteq	fp, r0, lsl #26
     798:	01120111 	tsteq	r2, r1, lsl r1
     79c:	2e0e0000 	cdpcs	0, 0, cr0, cr14, cr0, {0}
     7a0:	030c3f01 	movweq	r3, #52993	; 0xcf01
     7a4:	3b0b3a0e 	blcc	2cefe4 <__standby_start+0x2cefe4>
     7a8:	3c13490b 	ldccc	9, cr4, [r3], {11}
     7ac:	0f00000c 	svceq	0x0000000c
     7b0:	00000018 	andeq	r0, r0, r8, lsl r0
     7b4:	3f012e10 	svccc	0x00012e10
     7b8:	3a0e030c 	bcc	3813f0 <__standby_start+0x3813f0>
     7bc:	270b3b0b 	strcs	r3, [fp, -fp, lsl #22]
     7c0:	1113490c 	tstne	r3, ip, lsl #18
     7c4:	40011201 	andmi	r1, r1, r1, lsl #4
     7c8:	11000006 	tstne	r0, r6
     7cc:	0e030034 	mcreq	0, 0, r0, cr3, cr4, {1}
     7d0:	0b3b0b3a 	bleq	ec34c0 <__standby_start+0xec34c0>
     7d4:	0b1c1349 	bleq	705500 <__standby_start+0x705500>
     7d8:	01000000 	mrseq	r0, (UNDEF: 0)
     7dc:	0e250111 	mcreq	1, 1, r0, cr5, cr1, {0}
     7e0:	0e030b13 	vmoveq.32	d3[0], r0
     7e4:	01110e1b 	tsteq	r1, fp, lsl lr
     7e8:	06100112 			; <UNDEFINED> instruction: 0x06100112
     7ec:	24020000 	strcs	r0, [r2], #-0
     7f0:	3e0b0b00 	vmlacc.f64	d0, d11, d0
     7f4:	000e030b 	andeq	r0, lr, fp, lsl #6
     7f8:	00160300 	andseq	r0, r6, r0, lsl #6
     7fc:	0b3a0e03 	bleq	e84010 <__standby_start+0xe84010>
     800:	13490b3b 	movtne	r0, #39739	; 0x9b3b
     804:	24040000 	strcs	r0, [r4], #-0
     808:	3e0b0b00 	vmlacc.f64	d0, d11, d0
     80c:	0008030b 	andeq	r0, r8, fp, lsl #6
     810:	01040500 	tsteq	r4, r0, lsl #10
     814:	0b0b0e03 	bleq	2c4028 <__standby_start+0x2c4028>
     818:	0b3b0b3a 	bleq	ec3508 <__standby_start+0xec3508>
     81c:	00001301 	andeq	r1, r0, r1, lsl #6
     820:	03002806 	movweq	r2, #2054	; 0x806
     824:	000d1c0e 	andeq	r1, sp, lr, lsl #24
     828:	01130700 	tsteq	r3, r0, lsl #14
     82c:	0b0b0e03 	bleq	2c4040 <__standby_start+0x2c4040>
     830:	0b3b0b3a 	bleq	ec3520 <__standby_start+0xec3520>
     834:	00001301 	andeq	r1, r0, r1, lsl #6
     838:	03000d08 	movweq	r0, #3336	; 0xd08
     83c:	3b0b3a0e 	blcc	2cf07c <__standby_start+0x2cf07c>
     840:	3813490b 	ldmdacc	r3, {r0, r1, r3, r8, fp, lr}
     844:	0900000a 	stmdbeq	r0, {r1, r3}
     848:	13490035 	movtne	r0, #36917	; 0x9035
     84c:	2e0a0000 	cdpcs	0, 0, cr0, cr10, cr0, {0}
     850:	3a0e0301 	bcc	38145c <__standby_start+0x38145c>
     854:	270b3b0b 	strcs	r3, [fp, -fp, lsl #22]
     858:	2013490c 	andscs	r4, r3, ip, lsl #18
     85c:	0013010b 	andseq	r0, r3, fp, lsl #2
     860:	00340b00 	eorseq	r0, r4, r0, lsl #22
     864:	0b3a0e03 	bleq	e84078 <__standby_start+0xe84078>
     868:	13490b3b 	movtne	r0, #39739	; 0x9b3b
     86c:	2e0c0000 	cdpcs	0, 0, cr0, cr12, cr0, {0}
     870:	030c3f01 	movweq	r3, #52993	; 0xcf01
     874:	3b0b3a0e 	blcc	2cf0b4 <__standby_start+0x2cf0b4>
     878:	490c270b 	stmdbmi	ip, {r0, r1, r3, r8, r9, sl, sp}
     87c:	12011113 	andne	r1, r1, #-1073741820	; 0xc0000004
     880:	010a4001 	tsteq	sl, r1
     884:	0d000013 	stceq	0, cr0, [r0, #-76]	; 0xffffffb4
     888:	0e030005 	cdpeq	0, 0, cr0, cr3, cr5, {0}
     88c:	0b3b0b3a 	bleq	ec357c <__standby_start+0xec357c>
     890:	06021349 	streq	r1, [r2], -r9, asr #6
     894:	2e0e0000 	cdpcs	0, 0, cr0, cr14, cr0, {0}
     898:	030c3f00 	movweq	r3, #52992	; 0xcf00
     89c:	3b0b3a0e 	blcc	2cf0dc <__standby_start+0x2cf0dc>
     8a0:	490c270b 	stmdbmi	ip, {r0, r1, r3, r8, r9, sl, sp}
     8a4:	12011113 	andne	r1, r1, #-1073741820	; 0xc0000004
     8a8:	000a4001 	andeq	r4, sl, r1
     8ac:	012e0f00 	teqeq	lr, r0, lsl #30
     8b0:	0e030c3f 	mcreq	12, 0, r0, cr3, cr15, {1}
     8b4:	0b3b0b3a 	bleq	ec35a4 <__standby_start+0xec35a4>
     8b8:	13490c27 	movtne	r0, #39975	; 0x9c27
     8bc:	01120111 	tsteq	r2, r1, lsl r1
     8c0:	13010640 	movwne	r0, #5696	; 0x1640
     8c4:	05100000 	ldreq	r0, [r0, #-0]
     8c8:	3a080300 	bcc	2014d0 <__standby_start+0x2014d0>
     8cc:	490b3b0b 	stmdbmi	fp, {r0, r1, r3, r8, r9, fp, ip, sp}
     8d0:	00060213 	andeq	r0, r6, r3, lsl r2
     8d4:	00341100 	eorseq	r1, r4, r0, lsl #2
     8d8:	0b3a0e03 	bleq	e840ec <__standby_start+0xe840ec>
     8dc:	13490b3b 	movtne	r0, #39739	; 0x9b3b
     8e0:	00000602 	andeq	r0, r0, r2, lsl #12
     8e4:	03003412 	movweq	r3, #1042	; 0x412
     8e8:	3b0b3a08 	blcc	2cf110 <__standby_start+0x2cf110>
     8ec:	0213490b 	andseq	r4, r3, #180224	; 0x2c000
     8f0:	13000006 	movwne	r0, #6
     8f4:	0e03000a 	cdpeq	0, 0, cr0, cr3, cr10, {0}
     8f8:	053b0b3a 	ldreq	r0, [fp, #-2874]!	; 0xb3a
     8fc:	00000111 	andeq	r0, r0, r1, lsl r1
     900:	31011d14 	tstcc	r1, r4, lsl sp
     904:	55015213 	strpl	r5, [r1, #-531]	; 0x213
     908:	590b5806 	stmdbpl	fp, {r1, r2, fp, ip, lr}
     90c:	15000005 	strne	r0, [r0, #-5]
     910:	0655010b 	ldrbeq	r0, [r5], -fp, lsl #2
     914:	34160000 	ldrcc	r0, [r6], #-0
     918:	02133100 	andseq	r3, r3, #0
     91c:	1700000a 	strne	r0, [r0, -sl]
     920:	13310034 	teqne	r1, #52	; 0x34
     924:	00000602 	andeq	r0, r0, r2, lsl #12
     928:	0b000f18 	bleq	4590 <__standby_start+0x4590>
     92c:	0013490b 	andseq	r4, r3, fp, lsl #18
     930:	01011900 	tsteq	r1, r0, lsl #18
     934:	13011349 	movwne	r1, #4937	; 0x1349
     938:	211a0000 	tstcs	sl, r0
     93c:	2f134900 	svccs	0x00134900
     940:	1b00000b 	blne	974 <__standby_start+0x974>
     944:	0e030034 	mcreq	0, 0, r0, cr3, cr4, {1}
     948:	0b3b0b3a 	bleq	ec3638 <__standby_start+0xec3638>
     94c:	0a021349 	beq	85678 <__standby_start+0x85678>
     950:	261c0000 	ldrcs	r0, [ip], -r0
     954:	00134900 	andseq	r4, r3, r0, lsl #18
     958:	11010000 	mrsne	r0, (UNDEF: 1)
     95c:	130e2501 	movwne	r2, #58625	; 0xe501
     960:	1b0e030b 	blne	381594 <__standby_start+0x381594>
     964:	1201110e 	andne	r1, r1, #-2147483645	; 0x80000003
     968:	00061001 	andeq	r1, r6, r1
     96c:	00240200 	eoreq	r0, r4, r0, lsl #4
     970:	0b3e0b0b 	bleq	f835a4 <__standby_start+0xf835a4>
     974:	00000e03 	andeq	r0, r0, r3, lsl #28
     978:	03001603 	movweq	r1, #1539	; 0x603
     97c:	3b0b3a0e 	blcc	2cf1bc <__standby_start+0x2cf1bc>
     980:	0013490b 	andseq	r4, r3, fp, lsl #18
     984:	00240400 	eoreq	r0, r4, r0, lsl #8
     988:	0b3e0b0b 	bleq	f835bc <__standby_start+0xf835bc>
     98c:	00000803 	andeq	r0, r0, r3, lsl #16
     990:	3f002e05 	svccc	0x00002e05
     994:	3a0e030c 	bcc	3815cc <__standby_start+0x3815cc>
     998:	270b3b0b 	strcs	r3, [fp, -fp, lsl #22]
     99c:	1113490c 	tstne	r3, ip, lsl #18
     9a0:	40011201 	andmi	r1, r1, r1, lsl #4
     9a4:	0600000a 	streq	r0, [r0], -sl
     9a8:	0c3f012e 	ldfeqs	f0, [pc], #-184	; 8f8 <__standby_start+0x8f8>
     9ac:	0b3a0e03 	bleq	e841c0 <__standby_start+0xe841c0>
     9b0:	0c270b3b 	stceq	11, cr0, [r7], #-236	; 0xffffff14
     9b4:	01111349 	tsteq	r1, r9, asr #6
     9b8:	0a400112 	beq	1000e08 <__standby_start+0x1000e08>
     9bc:	00001301 	andeq	r1, r0, r1, lsl #6
     9c0:	03000507 	movweq	r0, #1287	; 0x507
     9c4:	3b0b3a0e 	blcc	2cf204 <__standby_start+0x2cf204>
     9c8:	0213490b 	andseq	r4, r3, #180224	; 0x2c000
     9cc:	00000006 	andeq	r0, r0, r6
     9d0:	25011101 	strcs	r1, [r1, #-257]	; 0x101
     9d4:	030b130e 	movweq	r1, #45838	; 0xb30e
     9d8:	110e1b0e 	tstne	lr, lr, lsl #22
     9dc:	10011201 	andne	r1, r1, r1, lsl #4
     9e0:	02000006 	andeq	r0, r0, #6
     9e4:	0b0b0024 	bleq	2c0a7c <__standby_start+0x2c0a7c>
     9e8:	0e030b3e 	vmoveq.16	d3[0], r0
     9ec:	24030000 	strcs	r0, [r3], #-0
     9f0:	3e0b0b00 	vmlacc.f64	d0, d11, d0
     9f4:	0008030b 	andeq	r0, r8, fp, lsl #6
     9f8:	00160400 	andseq	r0, r6, r0, lsl #8
     9fc:	0b3a0e03 	bleq	e84210 <__standby_start+0xe84210>
     a00:	13490b3b 	movtne	r0, #39739	; 0x9b3b
     a04:	13050000 	movwne	r0, #20480	; 0x5000
     a08:	0b0e0301 	bleq	381614 <__standby_start+0x381614>
     a0c:	3b0b3a0b 	blcc	2cf240 <__standby_start+0x2cf240>
     a10:	0013010b 	andseq	r0, r3, fp, lsl #2
     a14:	000d0600 	andeq	r0, sp, r0, lsl #12
     a18:	0b3a0e03 	bleq	e8422c <__standby_start+0xe8422c>
     a1c:	13490b3b 	movtne	r0, #39739	; 0x9b3b
     a20:	0b0d0b0b 	bleq	343654 <__standby_start+0x343654>
     a24:	0a380b0c 	beq	e0365c <__standby_start+0xe0365c>
     a28:	17070000 	strne	r0, [r7, -r0]
     a2c:	3a0b0b01 	bcc	2c3638 <__standby_start+0x2c3638>
     a30:	010b3b0b 	tsteq	fp, fp, lsl #22
     a34:	08000013 	stmdaeq	r0, {r0, r1, r4}
     a38:	0e03000d 	cdpeq	0, 0, cr0, cr3, cr13, {0}
     a3c:	0b3b0b3a 	bleq	ec372c <__standby_start+0xec372c>
     a40:	00001349 	andeq	r1, r0, r9, asr #6
     a44:	49003509 	stmdbmi	r0, {r0, r3, r8, sl, ip, sp}
     a48:	0a000013 	beq	a9c <__standby_start+0xa9c>
     a4c:	0e030104 	adfeqs	f0, f3, f4
     a50:	0b3a0b0b 	bleq	e83684 <__standby_start+0xe83684>
     a54:	13010b3b 	movwne	r0, #6971	; 0x1b3b
     a58:	280b0000 	stmdacs	fp, {}	; <UNPREDICTABLE>
     a5c:	1c0e0300 	stcne	3, cr0, [lr], {-0}
     a60:	0c00000d 	stceq	0, cr0, [r0], {13}
     a64:	0c3f012e 	ldfeqs	f0, [pc], #-184	; 9b4 <__standby_start+0x9b4>
     a68:	0b3a0e03 	bleq	e8427c <__standby_start+0xe8427c>
     a6c:	0c270b3b 	stceq	11, cr0, [r7], #-236	; 0xffffff14
     a70:	01120111 	tsteq	r2, r1, lsl r1
     a74:	13010640 	movwne	r0, #5696	; 0x1640
     a78:	340d0000 	strcc	r0, [sp], #-0
     a7c:	3a0e0300 	bcc	381684 <__standby_start+0x381684>
     a80:	490b3b0b 	stmdbmi	fp, {r0, r1, r3, r8, r9, fp, ip, sp}
     a84:	000a0213 	andeq	r0, sl, r3, lsl r2
     a88:	002e0e00 	eoreq	r0, lr, r0, lsl #28
     a8c:	0e030c3f 	mcreq	12, 0, r0, cr3, cr15, {1}
     a90:	0b3b0b3a 	bleq	ec3780 <__standby_start+0xec3780>
     a94:	01110c27 	tsteq	r1, r7, lsr #24
     a98:	0a400112 	beq	1000ee8 <__standby_start+0x1000ee8>
     a9c:	340f0000 	strcc	r0, [pc], #-0	; aa4 <__standby_start+0xaa4>
     aa0:	3a080300 	bcc	2016a8 <__standby_start+0x2016a8>
     aa4:	490b3b0b 	stmdbmi	fp, {r0, r1, r3, r8, r9, fp, ip, sp}
     aa8:	00060213 	andeq	r0, r6, r3, lsl r2
     aac:	00051000 	andeq	r1, r5, r0
     ab0:	0b3a0803 	bleq	e82ac4 <__standby_start+0xe82ac4>
     ab4:	13490b3b 	movtne	r0, #39739	; 0x9b3b
     ab8:	00000602 	andeq	r0, r0, r2, lsl #12
     abc:	3f012e11 	svccc	0x00012e11
     ac0:	3a0e030c 	bcc	3816f8 <__standby_start+0x3816f8>
     ac4:	270b3b0b 	strcs	r3, [fp, -fp, lsl #22]
     ac8:	1113490c 	tstne	r3, ip, lsl #18
     acc:	40011201 	andmi	r1, r1, r1, lsl #4
     ad0:	00130106 	andseq	r0, r3, r6, lsl #2
     ad4:	012e1200 	teqeq	lr, r0, lsl #4
     ad8:	0e030c3f 	mcreq	12, 0, r0, cr3, cr15, {1}
     adc:	0b3b0b3a 	bleq	ec37cc <__standby_start+0xec37cc>
     ae0:	01110c27 	tsteq	r1, r7, lsr #24
     ae4:	0a400112 	beq	1000f34 <__standby_start+0x1000f34>
     ae8:	00001301 	andeq	r1, r0, r1, lsl #6
     aec:	03003413 	movweq	r3, #1043	; 0x413
     af0:	3b0b3a0e 	blcc	2cf330 <__standby_start+0x2cf330>
     af4:	02134905 	andseq	r4, r3, #81920	; 0x14000
     af8:	1400000a 	strne	r0, [r0], #-10
     afc:	0c3f012e 	ldfeqs	f0, [pc], #-184	; a4c <__standby_start+0xa4c>
     b00:	0b3a0e03 	bleq	e84314 <__standby_start+0xe84314>
     b04:	0c27053b 	cfstr32eq	mvfx0, [r7], #-236	; 0xffffff14
     b08:	01120111 	tsteq	r2, r1, lsl r1
     b0c:	13010a40 	movwne	r0, #6720	; 0x1a40
     b10:	2e150000 	cdpcs	0, 1, cr0, cr5, cr0, {0}
     b14:	030c3f01 	movweq	r3, #52993	; 0xcf01
     b18:	3b0b3a0e 	blcc	2cf358 <__standby_start+0x2cf358>
     b1c:	110c2705 	tstne	ip, r5, lsl #14
     b20:	40011201 	andmi	r1, r1, r1, lsl #4
     b24:	00130106 	andseq	r0, r3, r6, lsl #2
     b28:	00051600 	andeq	r1, r5, r0, lsl #12
     b2c:	0b3a0803 	bleq	e82b40 <__standby_start+0xe82b40>
     b30:	1349053b 	movtne	r0, #38203	; 0x953b
     b34:	00000602 	andeq	r0, r0, r2, lsl #12
     b38:	03003417 	movweq	r3, #1047	; 0x417
     b3c:	3b0b3a0e 	blcc	2cf37c <__standby_start+0x2cf37c>
     b40:	02134905 	andseq	r4, r3, #81920	; 0x14000
     b44:	18000006 	stmdane	r0, {r1, r2}
     b48:	0b0b000f 	bleq	2c0b8c <__standby_start+0x2c0b8c>
     b4c:	00001349 	andeq	r1, r0, r9, asr #6
     b50:	03003419 	movweq	r3, #1049	; 0x419
     b54:	3b0b3a0e 	blcc	2cf394 <__standby_start+0x2cf394>
     b58:	3f13490b 	svccc	0x0013490b
     b5c:	000a020c 	andeq	r0, sl, ip, lsl #4
     b60:	11010000 	mrsne	r0, (UNDEF: 1)
     b64:	130e2501 	movwne	r2, #58625	; 0xe501
     b68:	1b0e030b 	blne	38179c <__standby_start+0x38179c>
     b6c:	1201110e 	andne	r1, r1, #-2147483645	; 0x80000003
     b70:	00061001 	andeq	r1, r6, r1
     b74:	00240200 	eoreq	r0, r4, r0, lsl #4
     b78:	0b3e0b0b 	bleq	f837ac <__standby_start+0xf837ac>
     b7c:	00000e03 	andeq	r0, r0, r3, lsl #28
     b80:	03001603 	movweq	r1, #1539	; 0x603
     b84:	3b0b3a0e 	blcc	2cf3c4 <__standby_start+0x2cf3c4>
     b88:	0013490b 	andseq	r4, r3, fp, lsl #18
     b8c:	00240400 	eoreq	r0, r4, r0, lsl #8
     b90:	0b3e0b0b 	bleq	f837c4 <__standby_start+0xf837c4>
     b94:	00000803 	andeq	r0, r0, r3, lsl #16
     b98:	03010405 	movweq	r0, #5125	; 0x1405
     b9c:	3a0b0b0e 	bcc	2c37dc <__standby_start+0x2c37dc>
     ba0:	010b3b0b 	tsteq	fp, fp, lsl #22
     ba4:	06000013 			; <UNDEFINED> instruction: 0x06000013
     ba8:	0e030028 	cdpeq	0, 0, cr0, cr3, cr8, {1}
     bac:	00000d1c 	andeq	r0, r0, ip, lsl sp
     bb0:	3f012e07 	svccc	0x00012e07
     bb4:	3a0e030c 	bcc	3817ec <__standby_start+0x3817ec>
     bb8:	270b3b0b 	strcs	r3, [fp, -fp, lsl #22]
     bbc:	2013490c 	andscs	r4, r3, ip, lsl #18
     bc0:	0013010b 	andseq	r0, r3, fp, lsl #2
     bc4:	00340800 	eorseq	r0, r4, r0, lsl #16
     bc8:	0b3a0e03 	bleq	e843dc <__standby_start+0xe843dc>
     bcc:	13490b3b 	movtne	r0, #39739	; 0x9b3b
     bd0:	2e090000 	cdpcs	0, 0, cr0, cr9, cr0, {0}
     bd4:	030c3f01 	movweq	r3, #52993	; 0xcf01
     bd8:	3b0b3a0e 	blcc	2cf418 <__standby_start+0x2cf418>
     bdc:	200c270b 	andcs	r2, ip, fp, lsl #14
     be0:	0013010b 	andseq	r0, r3, fp, lsl #2
     be4:	00050a00 	andeq	r0, r5, r0, lsl #20
     be8:	0b3a0e03 	bleq	e843fc <__standby_start+0xe843fc>
     bec:	13490b3b 	movtne	r0, #39739	; 0x9b3b
     bf0:	2e0b0000 	cdpcs	0, 0, cr0, cr11, cr0, {0}
     bf4:	3a0e0301 	bcc	381800 <__standby_start+0x381800>
     bf8:	270b3b0b 	strcs	r3, [fp, -fp, lsl #22]
     bfc:	2013490c 	andscs	r4, r3, ip, lsl #18
     c00:	0013010b 	andseq	r0, r3, fp, lsl #2
     c04:	012e0c00 	teqeq	lr, r0, lsl #24
     c08:	01111331 	tsteq	r1, r1, lsr r3
     c0c:	0a400112 	beq	100105c <__standby_start+0x100105c>
     c10:	00001301 	andeq	r1, r0, r1, lsl #6
     c14:	3100050d 	tstcc	r0, sp, lsl #10
     c18:	00060213 	andeq	r0, r6, r3, lsl r2
     c1c:	00050e00 	andeq	r0, r5, r0, lsl #28
     c20:	0a021331 	beq	858ec <__standby_start+0x858ec>
     c24:	340f0000 	strcc	r0, [pc], #-0	; c2c <__standby_start+0xc2c>
     c28:	02133100 	andseq	r3, r3, #0
     c2c:	10000006 	andne	r0, r0, r6
     c30:	0c3f002e 	ldceq	0, cr0, [pc], #-184	; b80 <__standby_start+0xb80>
     c34:	0b3a0e03 	bleq	e84448 <__standby_start+0xe84448>
     c38:	0c270b3b 	stceq	11, cr0, [r7], #-236	; 0xffffff14
     c3c:	01120111 	tsteq	r2, r1, lsl r1
     c40:	00000a40 	andeq	r0, r0, r0, asr #20
     c44:	31003411 	tstcc	r0, r1, lsl r4
     c48:	000a0213 	andeq	r0, sl, r3, lsl r2
     c4c:	012e1200 	teqeq	lr, r0, lsl #4
     c50:	0e030c3f 	mcreq	12, 0, r0, cr3, cr15, {1}
     c54:	0b3b0b3a 	bleq	ec3944 <__standby_start+0xec3944>
     c58:	01110c27 	tsteq	r1, r7, lsr #24
     c5c:	0a400112 	beq	10010ac <__standby_start+0x10010ac>
     c60:	00001301 	andeq	r1, r0, r1, lsl #6
     c64:	03003413 	movweq	r3, #1043	; 0x413
     c68:	3b0b3a0e 	blcc	2cf4a8 <__standby_start+0x2cf4a8>
     c6c:	0213490b 	andseq	r4, r3, #180224	; 0x2c000
     c70:	14000006 	strne	r0, [r0], #-6
     c74:	0c3f012e 	ldfeqs	f0, [pc], #-184	; bc4 <__standby_start+0xbc4>
     c78:	0b3a0e03 	bleq	e8448c <__standby_start+0xe8448c>
     c7c:	0c270b3b 	stceq	11, cr0, [r7], #-236	; 0xffffff14
     c80:	01120111 	tsteq	r2, r1, lsl r1
     c84:	13010640 	movwne	r0, #5696	; 0x1640
     c88:	34150000 	ldrcc	r0, [r5], #-0
     c8c:	3a080300 	bcc	201894 <__standby_start+0x201894>
     c90:	490b3b0b 	stmdbmi	fp, {r0, r1, r3, r8, r9, fp, ip, sp}
     c94:	00060213 	andeq	r0, r6, r3, lsl r2
     c98:	011d1600 	tsteq	sp, r0, lsl #12
     c9c:	01111331 	tsteq	r1, r1, lsr r3
     ca0:	0b580112 	bleq	16010f0 <__standby_start+0x16010f0>
     ca4:	13010b59 	movwne	r0, #7001	; 0x1b59
     ca8:	0b170000 	bleq	5c0cb0 <__standby_start+0x5c0cb0>
     cac:	12011101 	andne	r1, r1, #1073741824	; 0x40000000
     cb0:	18000001 	stmdane	r0, {r0}
     cb4:	1331011d 	teqne	r1, #1073741831	; 0x40000007
     cb8:	01120111 	tsteq	r2, r1, lsl r1
     cbc:	0b590b58 	bleq	1643a24 <__standby_start+0x1643a24>
     cc0:	05190000 	ldreq	r0, [r9, #-0]
     cc4:	3a080300 	bcc	2018cc <__standby_start+0x2018cc>
     cc8:	490b3b0b 	stmdbmi	fp, {r0, r1, r3, r8, r9, fp, ip, sp}
     ccc:	00060213 	andeq	r0, r6, r3, lsl r2
     cd0:	000a1a00 	andeq	r1, sl, r0, lsl #20
     cd4:	0b3a0803 	bleq	e82ce8 <__standby_start+0xe82ce8>
     cd8:	01110b3b 	tsteq	r1, fp, lsr fp
     cdc:	051b0000 	ldreq	r0, [fp, #-0]
     ce0:	3a0e0300 	bcc	3818e8 <__standby_start+0x3818e8>
     ce4:	490b3b0b 	stmdbmi	fp, {r0, r1, r3, r8, r9, fp, ip, sp}
     ce8:	00060213 	andeq	r0, r6, r3, lsl r2
     cec:	00051c00 	andeq	r1, r5, r0, lsl #24
     cf0:	0b3a0e03 	bleq	e84504 <__standby_start+0xe84504>
     cf4:	13490b3b 	movtne	r0, #39739	; 0x9b3b
     cf8:	00000a02 	andeq	r0, r0, r2, lsl #20
     cfc:	3f012e1d 	svccc	0x00012e1d
     d00:	3a0e030c 	bcc	381938 <__standby_start+0x381938>
     d04:	27053b0b 	strcs	r3, [r5, -fp, lsl #22]
     d08:	1113490c 	tstne	r3, ip, lsl #18
     d0c:	40011201 	andmi	r1, r1, r1, lsl #4
     d10:	0013010a 	andseq	r0, r3, sl, lsl #2
     d14:	00051e00 	andeq	r1, r5, r0, lsl #28
     d18:	0b3a0e03 	bleq	e8452c <__standby_start+0xe8452c>
     d1c:	1349053b 	movtne	r0, #38203	; 0x953b
     d20:	00000602 	andeq	r0, r0, r2, lsl #12
     d24:	0300341f 	movweq	r3, #1055	; 0x41f
     d28:	3b0b3a0e 	blcc	2cf568 <__standby_start+0x2cf568>
     d2c:	02134905 	andseq	r4, r3, #81920	; 0x14000
     d30:	20000006 	andcs	r0, r0, r6
     d34:	1331011d 	teqne	r1, #1073741831	; 0x40000007
     d38:	01120111 	tsteq	r2, r1, lsl r1
     d3c:	05590b58 	ldrbeq	r0, [r9, #-2904]	; 0xb58
     d40:	34210000 	strtcc	r0, [r1], #-0
     d44:	3a0e0300 	bcc	38194c <__standby_start+0x38194c>
     d48:	490b3b0b 	stmdbmi	fp, {r0, r1, r3, r8, r9, fp, ip, sp}
     d4c:	000a0213 	andeq	r0, sl, r3, lsl r2
     d50:	11010000 	mrsne	r0, (UNDEF: 1)
     d54:	130e2501 	movwne	r2, #58625	; 0xe501
     d58:	1b0e030b 	blne	38198c <__standby_start+0x38198c>
     d5c:	1201110e 	andne	r1, r1, #-2147483645	; 0x80000003
     d60:	00061001 	andeq	r1, r6, r1
     d64:	00240200 	eoreq	r0, r4, r0, lsl #4
     d68:	0b3e0b0b 	bleq	f8399c <__standby_start+0xf8399c>
     d6c:	00000e03 	andeq	r0, r0, r3, lsl #28
     d70:	0b002403 	bleq	9d84 <__standby_start+0x9d84>
     d74:	030b3e0b 	movweq	r3, #48651	; 0xbe0b
     d78:	04000008 	streq	r0, [r0], #-8
     d7c:	0e030016 	mcreq	0, 0, r0, cr3, cr6, {0}
     d80:	0b3b0b3a 	bleq	ec3a70 <__standby_start+0xec3a70>
     d84:	00001349 	andeq	r1, r0, r9, asr #6
     d88:	03011305 	movweq	r1, #4869	; 0x1305
     d8c:	3a0b0b0e 	bcc	2c39cc <__standby_start+0x2c39cc>
     d90:	010b3b0b 	tsteq	fp, fp, lsl #22
     d94:	06000013 			; <UNDEFINED> instruction: 0x06000013
     d98:	0e03000d 	cdpeq	0, 0, cr0, cr3, cr13, {0}
     d9c:	0b3b0b3a 	bleq	ec3a8c <__standby_start+0xec3a8c>
     da0:	0a381349 	beq	e05acc <__standby_start+0xe05acc>
     da4:	0d070000 	stceq	0, cr0, [r7, #-0]
     da8:	3a080300 	bcc	2019b0 <__standby_start+0x2019b0>
     dac:	490b3b0b 	stmdbmi	fp, {r0, r1, r3, r8, r9, fp, ip, sp}
     db0:	000a3813 	andeq	r3, sl, r3, lsl r8
     db4:	012e0800 	teqeq	lr, r0, lsl #16
     db8:	0e030c3f 	mcreq	12, 0, r0, cr3, cr15, {1}
     dbc:	0b3b0b3a 	bleq	ec3aac <__standby_start+0xec3aac>
     dc0:	01110c27 	tsteq	r1, r7, lsr #24
     dc4:	0a400112 	beq	1001214 <__standby_start+0x1001214>
     dc8:	00001301 	andeq	r1, r0, r1, lsl #6
     dcc:	03000509 	movweq	r0, #1289	; 0x509
     dd0:	3b0b3a0e 	blcc	2cf610 <__standby_start+0x2cf610>
     dd4:	0213490b 	andseq	r4, r3, #180224	; 0x2c000
     dd8:	0a00000a 	beq	e08 <__standby_start+0xe08>
     ddc:	0b0b000f 	bleq	2c0e20 <__standby_start+0x2c0e20>
     de0:	00001349 	andeq	r1, r0, r9, asr #6
     de4:	3f012e0b 	svccc	0x00012e0b
     de8:	3a0e030c 	bcc	381a20 <__standby_start+0x381a20>
     dec:	270b3b0b 	strcs	r3, [fp, -fp, lsl #22]
     df0:	1201110c 	andne	r1, r1, #3
     df4:	000a4001 	andeq	r4, sl, r1
     df8:	11010000 	mrsne	r0, (UNDEF: 1)
     dfc:	130e2501 	movwne	r2, #58625	; 0xe501
     e00:	1b0e030b 	blne	381a34 <__standby_start+0x381a34>
     e04:	1201110e 	andne	r1, r1, #-2147483645	; 0x80000003
     e08:	00061001 	andeq	r1, r6, r1
     e0c:	00240200 	eoreq	r0, r4, r0, lsl #4
     e10:	0b3e0b0b 	bleq	f83a44 <__standby_start+0xf83a44>
     e14:	00000e03 	andeq	r0, r0, r3, lsl #28
     e18:	03001603 	movweq	r1, #1539	; 0x603
     e1c:	3b0b3a0e 	blcc	2cf65c <__standby_start+0x2cf65c>
     e20:	0013490b 	andseq	r4, r3, fp, lsl #18
     e24:	00240400 	eoreq	r0, r4, r0, lsl #8
     e28:	0b3e0b0b 	bleq	f83a5c <__standby_start+0xf83a5c>
     e2c:	00000803 	andeq	r0, r0, r3, lsl #16
     e30:	0b011305 	bleq	45a4c <__standby_start+0x45a4c>
     e34:	3b0b3a0b 	blcc	2cf668 <__standby_start+0x2cf668>
     e38:	0013010b 	andseq	r0, r3, fp, lsl #2
     e3c:	000d0600 	andeq	r0, sp, r0, lsl #12
     e40:	0b3a0e03 	bleq	e84654 <__standby_start+0xe84654>
     e44:	13490b3b 	movtne	r0, #39739	; 0x9b3b
     e48:	0b0d0b0b 	bleq	343a7c <__standby_start+0x343a7c>
     e4c:	0a380b0c 	beq	e03a84 <__standby_start+0xe03a84>
     e50:	17070000 	strne	r0, [r7, -r0]
     e54:	3a0b0b01 	bcc	2c3a60 <__standby_start+0x2c3a60>
     e58:	010b3b0b 	tsteq	fp, fp, lsl #22
     e5c:	08000013 	stmdaeq	r0, {r0, r1, r4}
     e60:	0e03000d 	cdpeq	0, 0, cr0, cr3, cr13, {0}
     e64:	0b3b0b3a 	bleq	ec3b54 <__standby_start+0xec3b54>
     e68:	00001349 	andeq	r1, r0, r9, asr #6
     e6c:	03011309 	movweq	r1, #4873	; 0x1309
     e70:	3a0b0b0e 	bcc	2c3ab0 <__standby_start+0x2c3ab0>
     e74:	010b3b0b 	tsteq	fp, fp, lsl #22
     e78:	0a000013 	beq	ecc <__standby_start+0xecc>
     e7c:	0e030113 	mcreq	1, 0, r0, cr3, cr3, {0}
     e80:	0b3a050b 	bleq	e822b4 <__standby_start+0xe822b4>
     e84:	13010b3b 	movwne	r0, #6971	; 0x1b3b
     e88:	0d0b0000 	stceq	0, cr0, [fp, #-0]
     e8c:	3a0e0300 	bcc	381a94 <__standby_start+0x381a94>
     e90:	490b3b0b 	stmdbmi	fp, {r0, r1, r3, r8, r9, fp, ip, sp}
     e94:	000a3813 	andeq	r3, sl, r3, lsl r8
     e98:	000d0c00 	andeq	r0, sp, r0, lsl #24
     e9c:	0b3a0803 	bleq	e82eb0 <__standby_start+0xe82eb0>
     ea0:	13490b3b 	movtne	r0, #39739	; 0x9b3b
     ea4:	00000a38 	andeq	r0, r0, r8, lsr sl
     ea8:	4900350d 	stmdbmi	r0, {r0, r2, r3, r8, sl, ip, sp}
     eac:	0e000013 	mcreq	0, 0, r0, cr0, cr3, {0}
     eb0:	13490101 	movtne	r0, #37121	; 0x9101
     eb4:	00001301 	andeq	r1, r0, r1, lsl #6
     eb8:	4900210f 	stmdbmi	r0, {r0, r1, r2, r3, r8, sp}
     ebc:	000b2f13 	andeq	r2, fp, r3, lsl pc
     ec0:	000f1000 	andeq	r1, pc, r0
     ec4:	13490b0b 	movtne	r0, #39691	; 0x9b0b
     ec8:	04110000 	ldreq	r0, [r1], #-0
     ecc:	0b0e0301 	bleq	381ad8 <__standby_start+0x381ad8>
     ed0:	3b0b3a0b 	blcc	2cf704 <__standby_start+0x2cf704>
     ed4:	0013010b 	andseq	r0, r3, fp, lsl #2
     ed8:	00281200 	eoreq	r1, r8, r0, lsl #4
     edc:	0d1c0e03 	ldceq	14, cr0, [ip, #-12]
     ee0:	2e130000 	cdpcs	0, 1, cr0, cr3, cr0, {0}
     ee4:	3a0e0301 	bcc	381af0 <__standby_start+0x381af0>
     ee8:	270b3b0b 	strcs	r3, [fp, -fp, lsl #22]
     eec:	2013490c 	andscs	r4, r3, ip, lsl #18
     ef0:	0013010b 	andseq	r0, r3, fp, lsl #2
     ef4:	00051400 	andeq	r1, r5, r0, lsl #8
     ef8:	0b3a0e03 	bleq	e8470c <__standby_start+0xe8470c>
     efc:	13490b3b 	movtne	r0, #39739	; 0x9b3b
     f00:	34150000 	ldrcc	r0, [r5], #-0
     f04:	3a0e0300 	bcc	381b0c <__standby_start+0x381b0c>
     f08:	490b3b0b 	stmdbmi	fp, {r0, r1, r3, r8, r9, fp, ip, sp}
     f0c:	16000013 			; <UNDEFINED> instruction: 0x16000013
     f10:	08030034 	stmdaeq	r3, {r2, r4, r5}
     f14:	0b3b0b3a 	bleq	ec3c04 <__standby_start+0xec3c04>
     f18:	00001349 	andeq	r1, r0, r9, asr #6
     f1c:	03012e17 	movweq	r2, #7703	; 0x1e17
     f20:	3b0b3a0e 	blcc	2cf760 <__standby_start+0x2cf760>
     f24:	200c2705 	andcs	r2, ip, r5, lsl #14
     f28:	0013010b 	andseq	r0, r3, fp, lsl #2
     f2c:	00051800 	andeq	r1, r5, r0, lsl #16
     f30:	0b3a0803 	bleq	e82f44 <__standby_start+0xe82f44>
     f34:	1349053b 	movtne	r0, #38203	; 0x953b
     f38:	2e190000 	cdpcs	0, 1, cr0, cr9, cr0, {0}
     f3c:	3a0e0301 	bcc	381b48 <__standby_start+0x381b48>
     f40:	27053b0b 	strcs	r3, [r5, -fp, lsl #22]
     f44:	2013490c 	andscs	r4, r3, ip, lsl #18
     f48:	0013010b 	andseq	r0, r3, fp, lsl #2
     f4c:	00341a00 	eorseq	r1, r4, r0, lsl #20
     f50:	0b3a0e03 	bleq	e84764 <__standby_start+0xe84764>
     f54:	1349053b 	movtne	r0, #38203	; 0x953b
     f58:	2e1b0000 	cdpcs	0, 1, cr0, cr11, cr0, {0}
     f5c:	030c3f00 	movweq	r3, #52992	; 0xcf00
     f60:	3b0b3a0e 	blcc	2cf7a0 <__standby_start+0x2cf7a0>
     f64:	200c2705 	andcs	r2, ip, r5, lsl #14
     f68:	1c00000b 	stcne	0, cr0, [r0], {11}
     f6c:	0e03012e 	adfeqsp	f0, f3, #0.5
     f70:	0b3b0b3a 	bleq	ec3c60 <__standby_start+0xec3c60>
     f74:	01110c27 	tsteq	r1, r7, lsr #24
     f78:	06400112 			; <UNDEFINED> instruction: 0x06400112
     f7c:	00001301 	andeq	r1, r0, r1, lsl #6
     f80:	0300051d 	movweq	r0, #1309	; 0x51d
     f84:	3b0b3a0e 	blcc	2cf7c4 <__standby_start+0x2cf7c4>
     f88:	0213490b 	andseq	r4, r3, #180224	; 0x2c000
     f8c:	1e000006 	cdpne	0, 0, cr0, cr0, cr6, {0}
     f90:	08030034 	stmdaeq	r3, {r2, r4, r5}
     f94:	0b3b0b3a 	bleq	ec3c84 <__standby_start+0xec3c84>
     f98:	0b1c1349 	bleq	705cc4 <__standby_start+0x705cc4>
     f9c:	341f0000 	ldrcc	r0, [pc], #-0	; fa4 <__standby_start+0xfa4>
     fa0:	3a080300 	bcc	201ba8 <__standby_start+0x201ba8>
     fa4:	490b3b0b 	stmdbmi	fp, {r0, r1, r3, r8, r9, fp, ip, sp}
     fa8:	00060213 	andeq	r0, r6, r3, lsl r2
     fac:	00342000 	eorseq	r2, r4, r0
     fb0:	0b3a0e03 	bleq	e847c4 <__standby_start+0xe847c4>
     fb4:	13490b3b 	movtne	r0, #39739	; 0x9b3b
     fb8:	00000602 	andeq	r0, r0, r2, lsl #12
     fbc:	31012e21 	tstcc	r1, r1, lsr #28
     fc0:	12011113 	andne	r1, r1, #-1073741820	; 0xc0000004
     fc4:	01064001 	tsteq	r6, r1
     fc8:	22000013 	andcs	r0, r0, #19
     fcc:	13310005 	teqne	r1, #5
     fd0:	00000602 	andeq	r0, r0, r2, lsl #12
     fd4:	31003423 	tstcc	r0, r3, lsr #8
     fd8:	00060213 	andeq	r0, r6, r3, lsl r2
     fdc:	00342400 	eorseq	r2, r4, r0, lsl #8
     fe0:	0b1c1331 	bleq	705cac <__standby_start+0x705cac>
     fe4:	1d250000 	stcne	0, cr0, [r5, #-0]
     fe8:	52133101 	andspl	r3, r3, #1073741824	; 0x40000000
     fec:	58065501 	stmdapl	r6, {r0, r8, sl, ip, lr}
     ff0:	000b590b 	andeq	r5, fp, fp, lsl #18
     ff4:	010b2600 	tsteq	fp, r0, lsl #12
     ff8:	00000655 	andeq	r0, r0, r5, asr r6
     ffc:	31003427 	tstcc	r0, r7, lsr #8
    1000:	28000013 	stmdacs	r0, {r0, r1, r4}
    1004:	13310034 	teqne	r1, #52	; 0x34
    1008:	00000d1c 	andeq	r0, r0, ip, lsl sp
    100c:	31000529 	tstcc	r0, r9, lsr #10
    1010:	2a000013 	bcs	1064 <__standby_start+0x1064>
    1014:	0c3f012e 	ldfeqs	f0, [pc], #-184	; f64 <__standby_start+0xf64>
    1018:	0b3a0e03 	bleq	e8482c <__standby_start+0xe8482c>
    101c:	0c27053b 	cfstr32eq	mvfx0, [r7], #-236	; 0xffffff14
    1020:	01120111 	tsteq	r2, r1, lsl r1
    1024:	13010a40 	movwne	r0, #6720	; 0x1a40
    1028:	1d2b0000 	stcne	0, cr0, [fp, #-0]
    102c:	11133100 	tstne	r3, r0, lsl #2
    1030:	58011201 	stmdapl	r1, {r0, r9, ip}
    1034:	0005590b 	andeq	r5, r5, fp, lsl #18
    1038:	012e2c00 	teqeq	lr, r0, lsl #24
    103c:	0e030c3f 	mcreq	12, 0, r0, cr3, cr15, {1}
    1040:	053b0b3a 	ldreq	r0, [fp, #-2874]!	; 0xb3a
    1044:	01110c27 	tsteq	r1, r7, lsr #24
    1048:	06400112 			; <UNDEFINED> instruction: 0x06400112
    104c:	00001301 	andeq	r1, r0, r1, lsl #6
    1050:	0300052d 	movweq	r0, #1325	; 0x52d
    1054:	3b0b3a0e 	blcc	2cf894 <__standby_start+0x2cf894>
    1058:	02134905 	andseq	r4, r3, #81920	; 0x14000
    105c:	2e000006 	cdpcs	0, 0, cr0, cr0, cr6, {0}
    1060:	08030034 	stmdaeq	r3, {r2, r4, r5}
    1064:	053b0b3a 	ldreq	r0, [fp, #-2874]!	; 0xb3a
    1068:	06021349 	streq	r1, [r2], -r9, asr #6
    106c:	342f0000 	strtcc	r0, [pc], #-0	; 1074 <__standby_start+0x1074>
    1070:	3a0e0300 	bcc	381c78 <__standby_start+0x381c78>
    1074:	49053b0b 	stmdbmi	r5, {r0, r1, r3, r8, r9, fp, ip, sp}
    1078:	00060213 	andeq	r0, r6, r3, lsl r2
    107c:	001d3000 	andseq	r3, sp, r0
    1080:	01521331 	cmpeq	r2, r1, lsr r3
    1084:	0b580655 	bleq	16029e0 <__standby_start+0x16029e0>
    1088:	00000559 	andeq	r0, r0, r9, asr r5
    108c:	3f012e31 	svccc	0x00012e31
    1090:	3a0e030c 	bcc	381cc8 <__standby_start+0x381cc8>
    1094:	27053b0b 	strcs	r3, [r5, -fp, lsl #22]
    1098:	1113490c 	tstne	r3, ip, lsl #18
    109c:	40011201 	andmi	r1, r1, r1, lsl #4
    10a0:	00130106 	andseq	r0, r3, r6, lsl #2
    10a4:	011d3200 	tsteq	sp, r0, lsl #4
    10a8:	01521331 	cmpeq	r2, r1, lsr r3
    10ac:	0b580655 	bleq	1602a08 <__standby_start+0x1602a08>
    10b0:	13010559 	movwne	r0, #5465	; 0x1559
    10b4:	1d330000 	ldcne	0, cr0, [r3, #-0]
    10b8:	11133101 	tstne	r3, r1, lsl #2
    10bc:	58011201 	stmdapl	r1, {r0, r9, ip}
    10c0:	0005590b 	andeq	r5, r5, fp, lsl #18
    10c4:	00263400 	eoreq	r3, r6, r0, lsl #8
    10c8:	00001349 	andeq	r1, r0, r9, asr #6
    10cc:	03000535 	movweq	r0, #1333	; 0x535
    10d0:	3b0b3a08 	blcc	2cf8f8 <__standby_start+0x2cf8f8>
    10d4:	02134905 	andseq	r4, r3, #81920	; 0x14000
    10d8:	36000006 	strcc	r0, [r0], -r6
    10dc:	08030005 	stmdaeq	r3, {r0, r2}
    10e0:	053b0b3a 	ldreq	r0, [fp, #-2874]!	; 0xb3a
    10e4:	0a021349 	beq	85e10 <__standby_start+0x85e10>
    10e8:	1d370000 	ldcne	0, cr0, [r7, #-0]
    10ec:	52133101 	andspl	r3, r3, #1073741824	; 0x40000000
    10f0:	58065501 	stmdapl	r6, {r0, r8, sl, ip, lr}
    10f4:	0005590b 	andeq	r5, r5, fp, lsl #18
    10f8:	002e3800 	eoreq	r3, lr, r0, lsl #16
    10fc:	01111331 	tsteq	r1, r1, lsr r3
    1100:	0a400112 	beq	1001550 <__standby_start+0x1001550>
    1104:	34390000 	ldrtcc	r0, [r9], #-0
    1108:	3a0e0300 	bcc	381d10 <__standby_start+0x381d10>
    110c:	490b3b0b 	stmdbmi	fp, {r0, r1, r3, r8, r9, fp, ip, sp}
    1110:	000a0213 	andeq	r0, sl, r3, lsl r2
    1114:	11010000 	mrsne	r0, (UNDEF: 1)
    1118:	130e2501 	movwne	r2, #58625	; 0xe501
    111c:	1b0e030b 	blne	381d50 <__standby_start+0x381d50>
    1120:	1201110e 	andne	r1, r1, #-2147483645	; 0x80000003
    1124:	00061001 	andeq	r1, r6, r1
    1128:	00240200 	eoreq	r0, r4, r0, lsl #4
    112c:	0b3e0b0b 	bleq	f83d60 <__standby_start+0xf83d60>
    1130:	00000e03 	andeq	r0, r0, r3, lsl #28
    1134:	03001603 	movweq	r1, #1539	; 0x603
    1138:	3b0b3a0e 	blcc	2cf978 <__standby_start+0x2cf978>
    113c:	0013490b 	andseq	r4, r3, fp, lsl #18
    1140:	00240400 	eoreq	r0, r4, r0, lsl #8
    1144:	0b3e0b0b 	bleq	f83d78 <__standby_start+0xf83d78>
    1148:	00000803 	andeq	r0, r0, r3, lsl #16
    114c:	03010405 	movweq	r0, #5125	; 0x1405
    1150:	3a0b0b0e 	bcc	2c3d90 <__standby_start+0x2c3d90>
    1154:	010b3b0b 	tsteq	fp, fp, lsl #22
    1158:	06000013 			; <UNDEFINED> instruction: 0x06000013
    115c:	0e030028 	cdpeq	0, 0, cr0, cr3, cr8, {1}
    1160:	00000d1c 	andeq	r0, r0, ip, lsl sp
    1164:	0b000f07 	bleq	4d88 <__standby_start+0x4d88>
    1168:	0800000b 	stmdaeq	r0, {r0, r1, r3}
    116c:	0e030113 	mcreq	1, 0, r0, cr3, cr3, {0}
    1170:	0b3a0b0b 	bleq	e83da4 <__standby_start+0xe83da4>
    1174:	13010b3b 	movwne	r0, #6971	; 0x1b3b
    1178:	0d090000 	stceq	0, cr0, [r9, #-0]
    117c:	490e0300 	stmdbmi	lr, {r8, r9}
    1180:	340a3813 	strcc	r3, [sl], #-2067	; 0x813
    1184:	0a00000c 	beq	11bc <__standby_start+0x11bc>
    1188:	0e03012e 	adfeqsp	f0, f3, #0.5
    118c:	0b3b0b3a 	bleq	ec3e7c <__standby_start+0xec3e7c>
    1190:	13490c27 	movtne	r0, #39975	; 0x9c27
    1194:	13010b20 	movwne	r0, #6944	; 0x1b20
    1198:	050b0000 	streq	r0, [fp, #-0]
    119c:	3a0e0300 	bcc	381da4 <__standby_start+0x381da4>
    11a0:	490b3b0b 	stmdbmi	fp, {r0, r1, r3, r8, r9, fp, ip, sp}
    11a4:	0c000013 	stceq	0, cr0, [r0], {19}
    11a8:	08030005 	stmdaeq	r3, {r0, r2}
    11ac:	0b3b0b3a 	bleq	ec3e9c <__standby_start+0xec3e9c>
    11b0:	00001349 	andeq	r1, r0, r9, asr #6
    11b4:	0300340d 	movweq	r3, #1037	; 0x40d
    11b8:	3b0b3a08 	blcc	2cf9e0 <__standby_start+0x2cf9e0>
    11bc:	0013490b 	andseq	r4, r3, fp, lsl #18
    11c0:	000f0e00 	andeq	r0, pc, r0, lsl #28
    11c4:	13490b0b 	movtne	r0, #39691	; 0x9b0b
    11c8:	260f0000 	strcs	r0, [pc], -r0
    11cc:	00134900 	andseq	r4, r3, r0, lsl #18
    11d0:	00341000 	eorseq	r1, r4, r0
    11d4:	0b3a0e03 	bleq	e849e8 <__standby_start+0xe849e8>
    11d8:	13490b3b 	movtne	r0, #39739	; 0x9b3b
    11dc:	01110000 	tsteq	r1, r0
    11e0:	01134901 	tsteq	r3, r1, lsl #18
    11e4:	12000013 	andne	r0, r0, #19
    11e8:	13490021 	movtne	r0, #36897	; 0x9021
    11ec:	00000b2f 	andeq	r0, r0, pc, lsr #22
    11f0:	03012e13 	movweq	r2, #7699	; 0x1e13
    11f4:	3b0b3a0e 	blcc	2cfa34 <__standby_start+0x2cfa34>
    11f8:	490c270b 	stmdbmi	ip, {r0, r1, r3, r8, r9, sl, sp}
    11fc:	12011113 	andne	r1, r1, #-1073741820	; 0xc0000004
    1200:	01064001 	tsteq	r6, r1
    1204:	14000013 	strne	r0, [r0], #-19
    1208:	0e030005 	cdpeq	0, 0, cr0, cr3, cr5, {0}
    120c:	0b3b0b3a 	bleq	ec3efc <__standby_start+0xec3efc>
    1210:	06021349 	streq	r1, [r2], -r9, asr #6
    1214:	34150000 	ldrcc	r0, [r5], #-0
    1218:	3a0e0300 	bcc	381e20 <__standby_start+0x381e20>
    121c:	490b3b0b 	stmdbmi	fp, {r0, r1, r3, r8, r9, fp, ip, sp}
    1220:	000a0213 	andeq	r0, sl, r3, lsl r2
    1224:	00341600 	eorseq	r1, r4, r0, lsl #12
    1228:	0b3a0803 	bleq	e8323c <__standby_start+0xe8323c>
    122c:	13490b3b 	movtne	r0, #39739	; 0x9b3b
    1230:	00000602 	andeq	r0, r0, r2, lsl #12
    1234:	03012e17 	movweq	r2, #7703	; 0x1e17
    1238:	3b0b3a0e 	blcc	2cfa78 <__standby_start+0x2cfa78>
    123c:	490c2705 	stmdbmi	ip, {r0, r2, r8, r9, sl, sp}
    1240:	12011113 	andne	r1, r1, #-1073741820	; 0xc0000004
    1244:	01064001 	tsteq	r6, r1
    1248:	18000013 	stmdane	r0, {r0, r1, r4}
    124c:	0e030005 	cdpeq	0, 0, cr0, cr3, cr5, {0}
    1250:	053b0b3a 	ldreq	r0, [fp, #-2874]!	; 0xb3a
    1254:	06021349 	streq	r1, [r2], -r9, asr #6
    1258:	05190000 	ldreq	r0, [r9, #-0]
    125c:	3a080300 	bcc	201e64 <__standby_start+0x201e64>
    1260:	49053b0b 	stmdbmi	r5, {r0, r1, r3, r8, r9, fp, ip, sp}
    1264:	00060213 	andeq	r0, r6, r3, lsl r2
    1268:	00341a00 	eorseq	r1, r4, r0, lsl #20
    126c:	0b3a0e03 	bleq	e84a80 <__standby_start+0xe84a80>
    1270:	1349053b 	movtne	r0, #38203	; 0x953b
    1274:	00000a02 	andeq	r0, r0, r2, lsl #20
    1278:	31011d1b 	tstcc	r1, fp, lsl sp
    127c:	55015213 	strpl	r5, [r1, #-531]	; 0x213
    1280:	590b5806 	stmdbpl	fp, {r1, r2, fp, ip, lr}
    1284:	1c000005 	stcne	0, cr0, [r0], {5}
    1288:	13310005 	teqne	r1, #5
    128c:	00000602 	andeq	r0, r0, r2, lsl #12
    1290:	55010b1d 	strpl	r0, [r1, #-2845]	; 0xb1d
    1294:	1e000006 	cdpne	0, 0, cr0, cr0, cr6, {0}
    1298:	13310034 	teqne	r1, #52	; 0x34
    129c:	00000602 	andeq	r0, r0, r2, lsl #12
    12a0:	31012e1f 	tstcc	r1, pc, lsl lr
    12a4:	12011113 	andne	r1, r1, #-1073741820	; 0xc0000004
    12a8:	01064001 	tsteq	r6, r1
    12ac:	20000013 	andcs	r0, r0, r3, lsl r0
    12b0:	13310034 	teqne	r1, #52	; 0x34
    12b4:	00000a02 	andeq	r0, r0, r2, lsl #20
    12b8:	31000521 	tstcc	r0, r1, lsr #10
    12bc:	000b1c13 	andeq	r1, fp, r3, lsl ip
    12c0:	012e2200 	teqeq	lr, r0, lsl #4
    12c4:	0e030c3f 	mcreq	12, 0, r0, cr3, cr15, {1}
    12c8:	053b0b3a 	ldreq	r0, [fp, #-2874]!	; 0xb3a
    12cc:	13490c27 	movtne	r0, #39975	; 0x9c27
    12d0:	01120111 	tsteq	r2, r1, lsl r1
    12d4:	13010640 	movwne	r0, #5696	; 0x1640
    12d8:	18230000 	stmdane	r3!, {}	; <UNPREDICTABLE>
    12dc:	24000000 	strcs	r0, [r0], #-0
    12e0:	0e030034 	mcreq	0, 0, r0, cr3, cr4, {1}
    12e4:	053b0b3a 	ldreq	r0, [fp, #-2874]!	; 0xb3a
    12e8:	06021349 	streq	r1, [r2], -r9, asr #6
    12ec:	34250000 	strtcc	r0, [r5], #-0
    12f0:	3a080300 	bcc	201ef8 <__standby_start+0x201ef8>
    12f4:	49053b0b 	stmdbmi	r5, {r0, r1, r3, r8, r9, fp, ip, sp}
    12f8:	00060213 	andeq	r0, r6, r3, lsl r2
    12fc:	011d2600 	tsteq	sp, r0, lsl #12
    1300:	01111331 	tsteq	r1, r1, lsr r3
    1304:	0b580112 	bleq	1601754 <__standby_start+0x1601754>
    1308:	13010559 	movwne	r0, #5465	; 0x1559
    130c:	0b270000 	bleq	9c1314 <__standby_start+0x9c1314>
    1310:	12011101 	andne	r1, r1, #1073741824	; 0x40000000
    1314:	28000001 	stmdacs	r0, {r0}
    1318:	13310005 	teqne	r1, #5
    131c:	05290000 	streq	r0, [r9, #-0]!
    1320:	02133100 	andseq	r3, r3, #0
    1324:	2a00000a 	bcs	1354 <__standby_start+0x1354>
    1328:	1331011d 	teqne	r1, #1073741831	; 0x40000007
    132c:	01120111 	tsteq	r2, r1, lsl r1
    1330:	05590b58 	ldrbeq	r0, [r9, #-2904]	; 0xb58
    1334:	01000000 	mrseq	r0, (UNDEF: 0)
    1338:	0e250111 	mcreq	1, 1, r0, cr5, cr1, {0}
    133c:	0e030b13 	vmoveq.32	d3[0], r0
    1340:	01110e1b 	tsteq	r1, fp, lsl lr
    1344:	06100112 			; <UNDEFINED> instruction: 0x06100112
    1348:	24020000 	strcs	r0, [r2], #-0
    134c:	3e0b0b00 	vmlacc.f64	d0, d11, d0
    1350:	000e030b 	andeq	r0, lr, fp, lsl #6
    1354:	00160300 	andseq	r0, r6, r0, lsl #6
    1358:	0b3a0e03 	bleq	e84b6c <__standby_start+0xe84b6c>
    135c:	13490b3b 	movtne	r0, #39739	; 0x9b3b
    1360:	24040000 	strcs	r0, [r4], #-0
    1364:	3e0b0b00 	vmlacc.f64	d0, d11, d0
    1368:	0008030b 	andeq	r0, r8, fp, lsl #6
    136c:	002e0500 	eoreq	r0, lr, r0, lsl #10
    1370:	0e030c3f 	mcreq	12, 0, r0, cr3, cr15, {1}
    1374:	0b3b0b3a 	bleq	ec4064 <__standby_start+0xec4064>
    1378:	01110c27 	tsteq	r1, r7, lsr #24
    137c:	0a400112 	beq	10017cc <__standby_start+0x10017cc>
    1380:	2e060000 	cdpcs	0, 0, cr0, cr6, cr0, {0}
    1384:	030c3f01 	movweq	r3, #52993	; 0xcf01
    1388:	3b0b3a0e 	blcc	2cfbc8 <__standby_start+0x2cfbc8>
    138c:	490c270b 	stmdbmi	ip, {r0, r1, r3, r8, r9, sl, sp}
    1390:	12011113 	andne	r1, r1, #-1073741820	; 0xc0000004
    1394:	000a4001 	andeq	r4, sl, r1
    1398:	00050700 	andeq	r0, r5, r0, lsl #14
    139c:	0b3a0e03 	bleq	e84bb0 <__standby_start+0xe84bb0>
    13a0:	13490b3b 	movtne	r0, #39739	; 0x9b3b
    13a4:	00000602 	andeq	r0, r0, r2, lsl #12
    13a8:	03003408 	movweq	r3, #1032	; 0x408
    13ac:	3b0b3a0e 	blcc	2cfbec <__standby_start+0x2cfbec>
    13b0:	0213490b 	andseq	r4, r3, #180224	; 0x2c000
    13b4:	00000006 	andeq	r0, r0, r6
    13b8:	25011101 	strcs	r1, [r1, #-257]	; 0x101
    13bc:	030b130e 	movweq	r1, #45838	; 0xb30e
    13c0:	110e1b0e 	tstne	lr, lr, lsl #22
    13c4:	10011201 	andne	r1, r1, r1, lsl #4
    13c8:	02000006 	andeq	r0, r0, #6
    13cc:	0b0b0024 	bleq	2c1464 <__standby_start+0x2c1464>
    13d0:	0e030b3e 	vmoveq.16	d3[0], r0
    13d4:	16030000 	strne	r0, [r3], -r0
    13d8:	3a0e0300 	bcc	381fe0 <__standby_start+0x381fe0>
    13dc:	490b3b0b 	stmdbmi	fp, {r0, r1, r3, r8, r9, fp, ip, sp}
    13e0:	04000013 	streq	r0, [r0], #-19
    13e4:	0b0b0024 	bleq	2c147c <__standby_start+0x2c147c>
    13e8:	08030b3e 	stmdaeq	r3, {r1, r2, r3, r4, r5, r8, r9, fp}
    13ec:	35050000 	strcc	r0, [r5, #-0]
    13f0:	00134900 	andseq	r4, r3, r0, lsl #18
    13f4:	01040600 	tsteq	r4, r0, lsl #12
    13f8:	0b0b0e03 	bleq	2c4c0c <__standby_start+0x2c4c0c>
    13fc:	0b3b0b3a 	bleq	ec40ec <__standby_start+0xec40ec>
    1400:	00001301 	andeq	r1, r0, r1, lsl #6
    1404:	03002807 	movweq	r2, #2055	; 0x807
    1408:	000d1c0e 	andeq	r1, sp, lr, lsl #24
    140c:	000f0800 	andeq	r0, pc, r0, lsl #16
    1410:	00000b0b 	andeq	r0, r0, fp, lsl #22
    1414:	3f012e09 	svccc	0x00012e09
    1418:	3a0e030c 	bcc	382050 <__standby_start+0x382050>
    141c:	270b3b0b 	strcs	r3, [fp, -fp, lsl #22]
    1420:	1113490c 	tstne	r3, ip, lsl #18
    1424:	40011201 	andmi	r1, r1, r1, lsl #4
    1428:	00130106 	andseq	r0, r3, r6, lsl #2
    142c:	00340a00 	eorseq	r0, r4, r0, lsl #20
    1430:	0b3a0803 	bleq	e83444 <__standby_start+0xe83444>
    1434:	13490b3b 	movtne	r0, #39739	; 0x9b3b
    1438:	00000602 	andeq	r0, r0, r2, lsl #12
    143c:	0300340b 	movweq	r3, #1035	; 0x40b
    1440:	3b0b3a0e 	blcc	2cfc80 <__standby_start+0x2cfc80>
    1444:	0213490b 	andseq	r4, r3, #180224	; 0x2c000
    1448:	0c000006 	stceq	0, cr0, [r0], {6}
    144c:	0c3f012e 	ldfeqs	f0, [pc], #-184	; 139c <__standby_start+0x139c>
    1450:	0b3a0e03 	bleq	e84c64 <__standby_start+0xe84c64>
    1454:	0c270b3b 	stceq	11, cr0, [r7], #-236	; 0xffffff14
    1458:	01111349 	tsteq	r1, r9, asr #6
    145c:	0a400112 	beq	10018ac <__standby_start+0x10018ac>
    1460:	00001301 	andeq	r1, r0, r1, lsl #6
    1464:	0300050d 	movweq	r0, #1293	; 0x50d
    1468:	3b0b3a08 	blcc	2cfc90 <__standby_start+0x2cfc90>
    146c:	0213490b 	andseq	r4, r3, #180224	; 0x2c000
    1470:	0e000006 	cdpeq	0, 0, cr0, cr0, cr6, {0}
    1474:	0e030034 	mcreq	0, 0, r0, cr3, cr4, {1}
    1478:	0b3b0b3a 	bleq	ec4168 <__standby_start+0xec4168>
    147c:	0a021349 	beq	861a8 <__standby_start+0x861a8>
    1480:	01000000 	mrseq	r0, (UNDEF: 0)
    1484:	0e250111 	mcreq	1, 1, r0, cr5, cr1, {0}
    1488:	0e030b13 	vmoveq.32	d3[0], r0
    148c:	01110e1b 	tsteq	r1, fp, lsl lr
    1490:	06100112 			; <UNDEFINED> instruction: 0x06100112
    1494:	24020000 	strcs	r0, [r2], #-0
    1498:	3e0b0b00 	vmlacc.f64	d0, d11, d0
    149c:	000e030b 	andeq	r0, lr, fp, lsl #6
    14a0:	00160300 	andseq	r0, r6, r0, lsl #6
    14a4:	0b3a0e03 	bleq	e84cb8 <__standby_start+0xe84cb8>
    14a8:	13490b3b 	movtne	r0, #39739	; 0x9b3b
    14ac:	24040000 	strcs	r0, [r4], #-0
    14b0:	3e0b0b00 	vmlacc.f64	d0, d11, d0
    14b4:	0008030b 	andeq	r0, r8, fp, lsl #6
    14b8:	01130500 	tsteq	r3, r0, lsl #10
    14bc:	050b0e03 	streq	r0, [fp, #-3587]	; 0xe03
    14c0:	0b3b0b3a 	bleq	ec41b0 <__standby_start+0xec41b0>
    14c4:	00001301 	andeq	r1, r0, r1, lsl #6
    14c8:	03000d06 	movweq	r0, #3334	; 0xd06
    14cc:	3b0b3a0e 	blcc	2cfd0c <__standby_start+0x2cfd0c>
    14d0:	3813490b 	ldmdacc	r3, {r0, r1, r3, r8, fp, lr}
    14d4:	0700000a 	streq	r0, [r0, -sl]
    14d8:	13490101 	movtne	r0, #37121	; 0x9101
    14dc:	00001301 	andeq	r1, r0, r1, lsl #6
    14e0:	49002108 	stmdbmi	r0, {r3, r8, sp}
    14e4:	000b2f13 	andeq	r2, fp, r3, lsl pc
    14e8:	012e0900 	teqeq	lr, r0, lsl #18
    14ec:	0e030c3f 	mcreq	12, 0, r0, cr3, cr15, {1}
    14f0:	0b3b0b3a 	bleq	ec41e0 <__standby_start+0xec41e0>
    14f4:	13490c27 	movtne	r0, #39975	; 0x9c27
    14f8:	01120111 	tsteq	r2, r1, lsl r1
    14fc:	13010a40 	movwne	r0, #6720	; 0x1a40
    1500:	050a0000 	streq	r0, [sl, #-0]
    1504:	3a0e0300 	bcc	38210c <__standby_start+0x38210c>
    1508:	490b3b0b 	stmdbmi	fp, {r0, r1, r3, r8, r9, fp, ip, sp}
    150c:	00060213 	andeq	r0, r6, r3, lsl r2
    1510:	00340b00 	eorseq	r0, r4, r0, lsl #22
    1514:	0b3a0803 	bleq	e83528 <__standby_start+0xe83528>
    1518:	13490b3b 	movtne	r0, #39739	; 0x9b3b
    151c:	00000602 	andeq	r0, r0, r2, lsl #12
    1520:	0b000f0c 	bleq	5158 <__standby_start+0x5158>
    1524:	0013490b 	andseq	r4, r3, fp, lsl #18
    1528:	012e0d00 	teqeq	lr, r0, lsl #26
    152c:	0e030c3f 	mcreq	12, 0, r0, cr3, cr15, {1}
    1530:	0b3b0b3a 	bleq	ec4220 <__standby_start+0xec4220>
    1534:	01110c27 	tsteq	r1, r7, lsr #24
    1538:	0a400112 	beq	1001988 <__standby_start+0x1001988>
    153c:	340e0000 	strcc	r0, [lr], #-0
    1540:	3a0e0300 	bcc	382148 <__standby_start+0x382148>
    1544:	490b3b0b 	stmdbmi	fp, {r0, r1, r3, r8, r9, fp, ip, sp}
    1548:	000a0213 	andeq	r0, sl, r3, lsl r2
    154c:	00340f00 	eorseq	r0, r4, r0, lsl #30
    1550:	0b3a0e03 	bleq	e84d64 <__standby_start+0xe84d64>
    1554:	13490b3b 	movtne	r0, #39739	; 0x9b3b
    1558:	00000602 	andeq	r0, r0, r2, lsl #12
    155c:	01110100 	tsteq	r1, r0, lsl #2
    1560:	0b130e25 	bleq	4c4dfc <__standby_start+0x4c4dfc>
    1564:	0e1b0e03 	cdpeq	14, 1, cr0, cr11, cr3, {0}
    1568:	01120111 	tsteq	r2, r1, lsl r1
    156c:	00000610 	andeq	r0, r0, r0, lsl r6
    1570:	0b002402 	bleq	a580 <__standby_start+0xa580>
    1574:	030b3e0b 	movweq	r3, #48651	; 0xbe0b
    1578:	0300000e 	movweq	r0, #14
    157c:	0e030016 	mcreq	0, 0, r0, cr3, cr6, {0}
    1580:	0b3b0b3a 	bleq	ec4270 <__standby_start+0xec4270>
    1584:	00001349 	andeq	r1, r0, r9, asr #6
    1588:	0b002404 	bleq	a5a0 <__standby_start+0xa5a0>
    158c:	030b3e0b 	movweq	r3, #48651	; 0xbe0b
    1590:	05000008 	streq	r0, [r0, #-8]
    1594:	13490035 	movtne	r0, #36917	; 0x9035
    1598:	01060000 	mrseq	r0, (UNDEF: 6)
    159c:	01134901 	tsteq	r3, r1, lsl #18
    15a0:	07000013 	smladeq	r0, r3, r0, r0
    15a4:	13490021 	movtne	r0, #36897	; 0x9021
    15a8:	00000b2f 	andeq	r0, r0, pc, lsr #22
    15ac:	03011308 	movweq	r1, #4872	; 0x1308
    15b0:	3a0b0b0e 	bcc	2c41f0 <__standby_start+0x2c41f0>
    15b4:	010b3b0b 	tsteq	fp, fp, lsl #22
    15b8:	09000013 	stmdbeq	r0, {r0, r1, r4}
    15bc:	0e03000d 	cdpeq	0, 0, cr0, cr3, cr13, {0}
    15c0:	0b3b0b3a 	bleq	ec42b0 <__standby_start+0xec42b0>
    15c4:	0a381349 	beq	e062f0 <__standby_start+0xe062f0>
    15c8:	040a0000 	streq	r0, [sl], #-0
    15cc:	0b0e0301 	bleq	3821d8 <__standby_start+0x3821d8>
    15d0:	3b0b3a0b 	blcc	2cfe04 <__standby_start+0x2cfe04>
    15d4:	0013010b 	andseq	r0, r3, fp, lsl #2
    15d8:	00280b00 	eoreq	r0, r8, r0, lsl #22
    15dc:	0d1c0e03 	ldceq	14, cr0, [ip, #-12]
    15e0:	2e0c0000 	cdpcs	0, 0, cr0, cr12, cr0, {0}
    15e4:	030c3f01 	movweq	r3, #52993	; 0xcf01
    15e8:	3b0b3a0e 	blcc	2cfe28 <__standby_start+0x2cfe28>
    15ec:	490c270b 	stmdbmi	ip, {r0, r1, r3, r8, r9, sl, sp}
    15f0:	12011113 	andne	r1, r1, #-1073741820	; 0xc0000004
    15f4:	010a4001 	tsteq	sl, r1
    15f8:	0d000013 	stceq	0, cr0, [r0, #-76]	; 0xffffffb4
    15fc:	0e030005 	cdpeq	0, 0, cr0, cr3, cr5, {0}
    1600:	0b3b0b3a 	bleq	ec42f0 <__standby_start+0xec42f0>
    1604:	06021349 	streq	r1, [r2], -r9, asr #6
    1608:	0f0e0000 	svceq	0x000e0000
    160c:	490b0b00 	stmdbmi	fp, {r8, r9, fp}
    1610:	0f000013 	svceq	0x00000013
    1614:	0c3f002e 	ldceq	0, cr0, [pc], #-184	; 1564 <__standby_start+0x1564>
    1618:	0b3a0e03 	bleq	e84e2c <__standby_start+0xe84e2c>
    161c:	0c270b3b 	stceq	11, cr0, [r7], #-236	; 0xffffff14
    1620:	01111349 	tsteq	r1, r9, asr #6
    1624:	0a400112 	beq	1001a74 <__standby_start+0x1001a74>
    1628:	2e100000 	cdpcs	0, 1, cr0, cr0, cr0, {0}
    162c:	030c3f00 	movweq	r3, #52992	; 0xcf00
    1630:	3b0b3a0e 	blcc	2cfe70 <__standby_start+0x2cfe70>
    1634:	110c270b 	tstne	ip, fp, lsl #14
    1638:	40011201 	andmi	r1, r1, r1, lsl #4
    163c:	1100000a 	tstne	r0, sl
    1640:	0e030034 	mcreq	0, 0, r0, cr3, cr4, {1}
    1644:	0b3b0b3a 	bleq	ec4334 <__standby_start+0xec4334>
    1648:	0a021349 	beq	86374 <__standby_start+0x86374>
    164c:	01000000 	mrseq	r0, (UNDEF: 0)
    1650:	0e250111 	mcreq	1, 1, r0, cr5, cr1, {0}
    1654:	0e030b13 	vmoveq.32	d3[0], r0
    1658:	01110e1b 	tsteq	r1, fp, lsl lr
    165c:	06100112 			; <UNDEFINED> instruction: 0x06100112
    1660:	24020000 	strcs	r0, [r2], #-0
    1664:	3e0b0b00 	vmlacc.f64	d0, d11, d0
    1668:	000e030b 	andeq	r0, lr, fp, lsl #6
    166c:	00160300 	andseq	r0, r6, r0, lsl #6
    1670:	0b3a0e03 	bleq	e84e84 <__standby_start+0xe84e84>
    1674:	13490b3b 	movtne	r0, #39739	; 0x9b3b
    1678:	24040000 	strcs	r0, [r4], #-0
    167c:	3e0b0b00 	vmlacc.f64	d0, d11, d0
    1680:	0008030b 	andeq	r0, r8, fp, lsl #6
    1684:	00350500 	eorseq	r0, r5, r0, lsl #10
    1688:	00001349 	andeq	r1, r0, r9, asr #6
    168c:	49010106 	stmdbmi	r1, {r1, r2, r8}
    1690:	00130113 	andseq	r0, r3, r3, lsl r1
    1694:	00210700 	eoreq	r0, r1, r0, lsl #14
    1698:	0b2f1349 	bleq	bc63c4 <__standby_start+0xbc63c4>
    169c:	13080000 	movwne	r0, #32768	; 0x8000
    16a0:	0b0e0301 	bleq	3822ac <__standby_start+0x3822ac>
    16a4:	3b0b3a0b 	blcc	2cfed8 <__standby_start+0x2cfed8>
    16a8:	0013010b 	andseq	r0, r3, fp, lsl #2
    16ac:	000d0900 	andeq	r0, sp, r0, lsl #18
    16b0:	0b3a0803 	bleq	e836c4 <__standby_start+0xe836c4>
    16b4:	13490b3b 	movtne	r0, #39739	; 0x9b3b
    16b8:	00000a38 	andeq	r0, r0, r8, lsr sl
    16bc:	03000d0a 	movweq	r0, #3338	; 0xd0a
    16c0:	3b0b3a0e 	blcc	2cff00 <__standby_start+0x2cff00>
    16c4:	3813490b 	ldmdacc	r3, {r0, r1, r3, r8, fp, lr}
    16c8:	0b00000a 	bleq	16f8 <__standby_start+0x16f8>
    16cc:	0e030104 	adfeqs	f0, f3, f4
    16d0:	0b3a0b0b 	bleq	e84304 <__standby_start+0xe84304>
    16d4:	13010b3b 	movwne	r0, #6971	; 0x1b3b
    16d8:	280c0000 	stmdacs	ip, {}	; <UNPREDICTABLE>
    16dc:	1c0e0300 	stcne	3, cr0, [lr], {-0}
    16e0:	0d00000d 	stceq	0, cr0, [r0, #-52]	; 0xffffffcc
    16e4:	0c3f012e 	ldfeqs	f0, [pc], #-184	; 1634 <__standby_start+0x1634>
    16e8:	0b3a0e03 	bleq	e84efc <__standby_start+0xe84efc>
    16ec:	0c270b3b 	stceq	11, cr0, [r7], #-236	; 0xffffff14
    16f0:	01111349 	tsteq	r1, r9, asr #6
    16f4:	0a400112 	beq	1001b44 <__standby_start+0x1001b44>
    16f8:	00001301 	andeq	r1, r0, r1, lsl #6
    16fc:	0300050e 	movweq	r0, #1294	; 0x50e
    1700:	3b0b3a0e 	blcc	2cff40 <__standby_start+0x2cff40>
    1704:	0213490b 	andseq	r4, r3, #180224	; 0x2c000
    1708:	0f000006 	svceq	0x00000006
    170c:	0b0b000f 	bleq	2c1750 <__standby_start+0x2c1750>
    1710:	00001349 	andeq	r1, r0, r9, asr #6
    1714:	03003410 	movweq	r3, #1040	; 0x410
    1718:	3b0b3a0e 	blcc	2cff58 <__standby_start+0x2cff58>
    171c:	0213490b 	andseq	r4, r3, #180224	; 0x2c000
    1720:	0000000a 	andeq	r0, r0, sl
    1724:	25011101 	strcs	r1, [r1, #-257]	; 0x101
    1728:	030b130e 	movweq	r1, #45838	; 0xb30e
    172c:	110e1b0e 	tstne	lr, lr, lsl #22
    1730:	10011201 	andne	r1, r1, r1, lsl #4
    1734:	02000006 	andeq	r0, r0, #6
    1738:	0b0b0024 	bleq	2c17d0 <__standby_start+0x2c17d0>
    173c:	0e030b3e 	vmoveq.16	d3[0], r0
    1740:	16030000 	strne	r0, [r3], -r0
    1744:	3a0e0300 	bcc	38234c <__standby_start+0x38234c>
    1748:	490b3b0b 	stmdbmi	fp, {r0, r1, r3, r8, r9, fp, ip, sp}
    174c:	04000013 	streq	r0, [r0], #-19
    1750:	0b0b0024 	bleq	2c17e8 <__standby_start+0x2c17e8>
    1754:	08030b3e 	stmdaeq	r3, {r1, r2, r3, r4, r5, r8, r9, fp}
    1758:	13050000 	movwne	r0, #20480	; 0x5000
    175c:	3a0b0b01 	bcc	2c4368 <__standby_start+0x2c4368>
    1760:	010b3b0b 	tsteq	fp, fp, lsl #22
    1764:	06000013 			; <UNDEFINED> instruction: 0x06000013
    1768:	0e03000d 	cdpeq	0, 0, cr0, cr3, cr13, {0}
    176c:	0b3b0b3a 	bleq	ec445c <__standby_start+0xec445c>
    1770:	0b0b1349 	bleq	2c649c <__standby_start+0x2c649c>
    1774:	0b0c0b0d 	bleq	3043b0 <__standby_start+0x3043b0>
    1778:	00000a38 	andeq	r0, r0, r8, lsr sl
    177c:	0b011707 	bleq	473a0 <__standby_start+0x473a0>
    1780:	3b0b3a0b 	blcc	2cffb4 <__standby_start+0x2cffb4>
    1784:	0013010b 	andseq	r0, r3, fp, lsl #2
    1788:	000d0800 	andeq	r0, sp, r0, lsl #16
    178c:	0b3a0e03 	bleq	e84fa0 <__standby_start+0xe84fa0>
    1790:	13490b3b 	movtne	r0, #39739	; 0x9b3b
    1794:	13090000 	movwne	r0, #36864	; 0x9000
    1798:	0b0e0301 	bleq	3823a4 <__standby_start+0x3823a4>
    179c:	3b0b3a0b 	blcc	2cffd0 <__standby_start+0x2cffd0>
    17a0:	0013010b 	andseq	r0, r3, fp, lsl #2
    17a4:	01130a00 	tsteq	r3, r0, lsl #20
    17a8:	050b0e03 	streq	r0, [fp, #-3587]	; 0xe03
    17ac:	0b3b0b3a 	bleq	ec449c <__standby_start+0xec449c>
    17b0:	00001301 	andeq	r1, r0, r1, lsl #6
    17b4:	03000d0b 	movweq	r0, #3339	; 0xd0b
    17b8:	3b0b3a0e 	blcc	2cfff8 <__standby_start+0x2cfff8>
    17bc:	3813490b 	ldmdacc	r3, {r0, r1, r3, r8, fp, lr}
    17c0:	0c00000a 	stceq	0, cr0, [r0], {10}
    17c4:	0803000d 	stmdaeq	r3, {r0, r2, r3}
    17c8:	0b3b0b3a 	bleq	ec44b8 <__standby_start+0xec44b8>
    17cc:	0a381349 	beq	e064f8 <__standby_start+0xe064f8>
    17d0:	350d0000 	strcc	r0, [sp, #-0]
    17d4:	00134900 	andseq	r4, r3, r0, lsl #18
    17d8:	01010e00 	tsteq	r1, r0, lsl #28
    17dc:	13011349 	movwne	r1, #4937	; 0x1349
    17e0:	210f0000 	mrscs	r0, CPSR
    17e4:	2f134900 	svccs	0x00134900
    17e8:	1000000b 	andne	r0, r0, fp
    17ec:	0b0b000f 	bleq	2c1830 <__standby_start+0x2c1830>
    17f0:	00001349 	andeq	r1, r0, r9, asr #6
    17f4:	03010411 	movweq	r0, #5137	; 0x1411
    17f8:	3a0b0b0e 	bcc	2c4438 <__standby_start+0x2c4438>
    17fc:	010b3b0b 	tsteq	fp, fp, lsl #22
    1800:	12000013 	andne	r0, r0, #19
    1804:	0e030028 	cdpeq	0, 0, cr0, cr3, cr8, {1}
    1808:	00000d1c 	andeq	r0, r0, ip, lsl sp
    180c:	3f012e13 	svccc	0x00012e13
    1810:	3a0e030c 	bcc	382448 <__standby_start+0x382448>
    1814:	270b3b0b 	strcs	r3, [fp, -fp, lsl #22]
    1818:	1113490c 	tstne	r3, ip, lsl #18
    181c:	40011201 	andmi	r1, r1, r1, lsl #4
    1820:	0013010a 	andseq	r0, r3, sl, lsl #2
    1824:	00051400 	andeq	r1, r5, r0, lsl #8
    1828:	0b3a0e03 	bleq	e8503c <__standby_start+0xe8503c>
    182c:	13490b3b 	movtne	r0, #39739	; 0x9b3b
    1830:	00000602 	andeq	r0, r0, r2, lsl #12
    1834:	3f002e15 	svccc	0x00002e15
    1838:	3a0e030c 	bcc	382470 <__standby_start+0x382470>
    183c:	270b3b0b 	strcs	r3, [fp, -fp, lsl #22]
    1840:	1113490c 	tstne	r3, ip, lsl #18
    1844:	40011201 	andmi	r1, r1, r1, lsl #4
    1848:	1600000a 	strne	r0, [r0], -sl
    184c:	0c3f012e 	ldfeqs	f0, [pc], #-184	; 179c <__standby_start+0x179c>
    1850:	0b3a0e03 	bleq	e85064 <__standby_start+0xe85064>
    1854:	0c270b3b 	stceq	11, cr0, [r7], #-236	; 0xffffff14
    1858:	01111349 	tsteq	r1, r9, asr #6
    185c:	06400112 			; <UNDEFINED> instruction: 0x06400112
    1860:	00001301 	andeq	r1, r0, r1, lsl #6
    1864:	3f012e17 	svccc	0x00012e17
    1868:	3a0e030c 	bcc	3824a0 <__standby_start+0x3824a0>
    186c:	27053b0b 	strcs	r3, [r5, -fp, lsl #22]
    1870:	1113490c 	tstne	r3, ip, lsl #18
    1874:	40011201 	andmi	r1, r1, r1, lsl #4
    1878:	0013010a 	andseq	r0, r3, sl, lsl #2
    187c:	00051800 	andeq	r1, r5, r0, lsl #16
    1880:	0b3a0e03 	bleq	e85094 <__standby_start+0xe85094>
    1884:	1349053b 	movtne	r0, #38203	; 0x953b
    1888:	00000602 	andeq	r0, r0, r2, lsl #12
    188c:	3f012e19 	svccc	0x00012e19
    1890:	3a0e030c 	bcc	3824c8 <__standby_start+0x3824c8>
    1894:	27053b0b 	strcs	r3, [r5, -fp, lsl #22]
    1898:	1113490c 	tstne	r3, ip, lsl #18
    189c:	40011201 	andmi	r1, r1, r1, lsl #4
    18a0:	00130106 	andseq	r0, r3, r6, lsl #2
    18a4:	00341a00 	eorseq	r1, r4, r0, lsl #20
    18a8:	0b3a0e03 	bleq	e850bc <__standby_start+0xe850bc>
    18ac:	1349053b 	movtne	r0, #38203	; 0x953b
    18b0:	00000602 	andeq	r0, r0, r2, lsl #12
    18b4:	0300341b 	movweq	r3, #1051	; 0x41b
    18b8:	3b0b3a0e 	blcc	2d00f8 <__standby_start+0x2d00f8>
    18bc:	1c134905 	ldcne	9, cr4, [r3], {5}
    18c0:	1c00000b 	stcne	0, cr0, [r0], {11}
    18c4:	0e030034 	mcreq	0, 0, r0, cr3, cr4, {1}
    18c8:	0b3b0b3a 	bleq	ec45b8 <__standby_start+0xec45b8>
    18cc:	0a021349 	beq	865f8 <__standby_start+0x865f8>
    18d0:	01000000 	mrseq	r0, (UNDEF: 0)
    18d4:	0e250111 	mcreq	1, 1, r0, cr5, cr1, {0}
    18d8:	0e030b13 	vmoveq.32	d3[0], r0
    18dc:	01110e1b 	tsteq	r1, fp, lsl lr
    18e0:	06100112 			; <UNDEFINED> instruction: 0x06100112
    18e4:	24020000 	strcs	r0, [r2], #-0
    18e8:	3e0b0b00 	vmlacc.f64	d0, d11, d0
    18ec:	000e030b 	andeq	r0, lr, fp, lsl #6
    18f0:	00240300 	eoreq	r0, r4, r0, lsl #6
    18f4:	0b3e0b0b 	bleq	f84528 <__standby_start+0xf84528>
    18f8:	00000803 	andeq	r0, r0, r3, lsl #16
    18fc:	03010404 	movweq	r0, #5124	; 0x1404
    1900:	3a0b0b0e 	bcc	2c4540 <__standby_start+0x2c4540>
    1904:	010b3b0b 	tsteq	fp, fp, lsl #22
    1908:	05000013 	streq	r0, [r0, #-19]
    190c:	0e030028 	cdpeq	0, 0, cr0, cr3, cr8, {1}
    1910:	00000d1c 	andeq	r0, r0, ip, lsl sp
    1914:	03011306 	movweq	r1, #4870	; 0x1306
    1918:	3a0b0b0e 	bcc	2c4558 <__standby_start+0x2c4558>
    191c:	010b3b0b 	tsteq	fp, fp, lsl #22
    1920:	07000013 	smladeq	r0, r3, r0, r0
    1924:	0e03000d 	cdpeq	0, 0, cr0, cr3, cr13, {0}
    1928:	0b3b0b3a 	bleq	ec4618 <__standby_start+0xec4618>
    192c:	0a381349 	beq	e06658 <__standby_start+0xe06658>
    1930:	16080000 	strne	r0, [r8], -r0
    1934:	3a0e0300 	bcc	38253c <__standby_start+0x38253c>
    1938:	490b3b0b 	stmdbmi	fp, {r0, r1, r3, r8, r9, fp, ip, sp}
    193c:	09000013 	stmdbeq	r0, {r0, r1, r4}
    1940:	0803000d 	stmdaeq	r3, {r0, r2, r3}
    1944:	0b3b0b3a 	bleq	ec4634 <__standby_start+0xec4634>
    1948:	0a381349 	beq	e06674 <__standby_start+0xe06674>
    194c:	010a0000 	mrseq	r0, (UNDEF: 10)
    1950:	01134901 	tsteq	r3, r1, lsl #18
    1954:	0b000013 	bleq	19a8 <__standby_start+0x19a8>
    1958:	13490021 	movtne	r0, #36897	; 0x9021
    195c:	00000b2f 	andeq	r0, r0, pc, lsr #22
    1960:	0b000f0c 	bleq	5598 <__standby_start+0x5598>
    1964:	0013490b 	andseq	r4, r3, fp, lsl #18
    1968:	01130d00 	tsteq	r3, r0, lsl #26
    196c:	050b0e03 	streq	r0, [fp, #-3587]	; 0xe03
    1970:	0b3b0b3a 	bleq	ec4660 <__standby_start+0xec4660>
    1974:	00001301 	andeq	r1, r0, r1, lsl #6
    1978:	03000d0e 	movweq	r0, #3342	; 0xd0e
    197c:	3b0b3a0e 	blcc	2d01bc <__standby_start+0x2d01bc>
    1980:	38134905 	ldmdacc	r3, {r0, r2, r8, fp, lr}
    1984:	0f00000a 	svceq	0x0000000a
    1988:	0e030016 	mcreq	0, 0, r0, cr3, cr6, {0}
    198c:	053b0b3a 	ldreq	r0, [fp, #-2874]!	; 0xb3a
    1990:	00001349 	andeq	r1, r0, r9, asr #6
    1994:	03011310 	movweq	r1, #4880	; 0x1310
    1998:	3a050b0e 	bcc	1445d8 <__standby_start+0x1445d8>
    199c:	01053b0b 	tsteq	r5, fp, lsl #22
    19a0:	11000013 	tstne	r0, r3, lsl r0
    19a4:	0803000d 	stmdaeq	r3, {r0, r2, r3}
    19a8:	053b0b3a 	ldreq	r0, [fp, #-2874]!	; 0xb3a
    19ac:	0a381349 	beq	e066d8 <__standby_start+0xe066d8>
    19b0:	13120000 	tstne	r2, #0
    19b4:	0b0e0301 	bleq	3825c0 <__standby_start+0x3825c0>
    19b8:	3b0b3a0b 	blcc	2d01ec <__standby_start+0x2d01ec>
    19bc:	00130105 	andseq	r0, r3, r5, lsl #2
    19c0:	000f1300 	andeq	r1, pc, r0, lsl #6
    19c4:	00000b0b 	andeq	r0, r0, fp, lsl #22
    19c8:	27011514 	smladcs	r1, r4, r5, r1
    19cc:	0113490c 	tsteq	r3, ip, lsl #18
    19d0:	15000013 	strne	r0, [r0, #-19]
    19d4:	13490005 	movtne	r0, #36869	; 0x9005
    19d8:	35160000 	ldrcc	r0, [r6, #-0]
    19dc:	00134900 	andseq	r4, r3, r0, lsl #18
    19e0:	00351700 	eorseq	r1, r5, r0, lsl #14
    19e4:	2e180000 	cdpcs	0, 1, cr0, cr8, cr0, {0}
    19e8:	030c3f00 	movweq	r3, #52992	; 0xcf00
    19ec:	3b0b3a0e 	blcc	2d022c <__standby_start+0x2d022c>
    19f0:	490c270b 	stmdbmi	ip, {r0, r1, r3, r8, r9, sl, sp}
    19f4:	12011113 	andne	r1, r1, #-1073741820	; 0xc0000004
    19f8:	00064001 	andeq	r4, r6, r1
    19fc:	012e1900 	teqeq	lr, r0, lsl #18
    1a00:	0e030c3f 	mcreq	12, 0, r0, cr3, cr15, {1}
    1a04:	0b3b0b3a 	bleq	ec46f4 <__standby_start+0xec46f4>
    1a08:	13490c27 	movtne	r0, #39975	; 0x9c27
    1a0c:	01120111 	tsteq	r2, r1, lsl r1
    1a10:	13010640 	movwne	r0, #5696	; 0x1640
    1a14:	051a0000 	ldreq	r0, [sl, #-0]
    1a18:	3a0e0300 	bcc	382620 <__standby_start+0x382620>
    1a1c:	490b3b0b 	stmdbmi	fp, {r0, r1, r3, r8, r9, fp, ip, sp}
    1a20:	00060213 	andeq	r0, r6, r3, lsl r2
    1a24:	00341b00 	eorseq	r1, r4, r0, lsl #22
    1a28:	0b3a0e03 	bleq	e8523c <__standby_start+0xe8523c>
    1a2c:	13490b3b 	movtne	r0, #39739	; 0x9b3b
    1a30:	00000602 	andeq	r0, r0, r2, lsl #12
    1a34:	0300341c 	movweq	r3, #1052	; 0x41c
    1a38:	3b0b3a0e 	blcc	2d0278 <__standby_start+0x2d0278>
    1a3c:	0213490b 	andseq	r4, r3, #180224	; 0x2c000
    1a40:	1d00000a 	stcne	0, cr0, [r0, #-40]	; 0xffffffd8
    1a44:	0e030034 	mcreq	0, 0, r0, cr3, cr4, {1}
    1a48:	0b3b0b3a 	bleq	ec4738 <__standby_start+0xec4738>
    1a4c:	0c3f1349 	ldceq	3, cr1, [pc], #-292	; 1930 <__standby_start+0x1930>
    1a50:	00000a02 	andeq	r0, r0, r2, lsl #20
    1a54:	01110100 	tsteq	r1, r0, lsl #2
    1a58:	0b130e25 	bleq	4c52f4 <__standby_start+0x4c52f4>
    1a5c:	0e1b0e03 	cdpeq	14, 1, cr0, cr11, cr3, {0}
    1a60:	01120111 	tsteq	r2, r1, lsl r1
    1a64:	00000610 	andeq	r0, r0, r0, lsl r6
    1a68:	0b002402 	bleq	aa78 <__standby_start+0xaa78>
    1a6c:	030b3e0b 	movweq	r3, #48651	; 0xbe0b
    1a70:	0300000e 	movweq	r0, #14
    1a74:	0b0b0024 	bleq	2c1b0c <__standby_start+0x2c1b0c>
    1a78:	08030b3e 	stmdaeq	r3, {r1, r2, r3, r4, r5, r8, r9, fp}
    1a7c:	16040000 	strne	r0, [r4], -r0
    1a80:	3a0e0300 	bcc	382688 <__standby_start+0x382688>
    1a84:	490b3b0b 	stmdbmi	fp, {r0, r1, r3, r8, r9, fp, ip, sp}
    1a88:	05000013 	streq	r0, [r0, #-19]
    1a8c:	0b0b000f 	bleq	2c1ad0 <__standby_start+0x2c1ad0>
    1a90:	04060000 	streq	r0, [r6], #-0
    1a94:	0b0e0301 	bleq	3826a0 <__standby_start+0x3826a0>
    1a98:	3b0b3a0b 	blcc	2d02cc <__standby_start+0x2d02cc>
    1a9c:	0013010b 	andseq	r0, r3, fp, lsl #2
    1aa0:	00280700 	eoreq	r0, r8, r0, lsl #14
    1aa4:	0d1c0e03 	ldceq	14, cr0, [ip, #-12]
    1aa8:	35080000 	strcc	r0, [r8, #-0]
    1aac:	00134900 	andseq	r4, r3, r0, lsl #18
    1ab0:	000f0900 	andeq	r0, pc, r0, lsl #18
    1ab4:	13490b0b 	movtne	r0, #39691	; 0x9b0b
    1ab8:	150a0000 	strne	r0, [sl, #-0]
    1abc:	490c2701 	stmdbmi	ip, {r0, r8, r9, sl, sp}
    1ac0:	00130113 	andseq	r0, r3, r3, lsl r1
    1ac4:	00050b00 	andeq	r0, r5, r0, lsl #22
    1ac8:	00001349 	andeq	r1, r0, r9, asr #6
    1acc:	0301130c 	movweq	r1, #4876	; 0x130c
    1ad0:	3a0b0b0e 	bcc	2c4710 <__standby_start+0x2c4710>
    1ad4:	010b3b0b 	tsteq	fp, fp, lsl #22
    1ad8:	0d000013 	stceq	0, cr0, [r0, #-76]	; 0xffffffb4
    1adc:	0e03000d 	cdpeq	0, 0, cr0, cr3, cr13, {0}
    1ae0:	0b3b0b3a 	bleq	ec47d0 <__standby_start+0xec47d0>
    1ae4:	0a381349 	beq	e06810 <__standby_start+0xe06810>
    1ae8:	0d0e0000 	stceq	0, cr0, [lr, #-0]
    1aec:	3a080300 	bcc	2026f4 <__standby_start+0x2026f4>
    1af0:	490b3b0b 	stmdbmi	fp, {r0, r1, r3, r8, r9, fp, ip, sp}
    1af4:	000a3813 	andeq	r3, sl, r3, lsl r8
    1af8:	00350f00 	eorseq	r0, r5, r0, lsl #30
    1afc:	01100000 	tsteq	r0, r0
    1b00:	01134901 	tsteq	r3, r1, lsl #18
    1b04:	11000013 	tstne	r0, r3, lsl r0
    1b08:	13490021 	movtne	r0, #36897	; 0x9021
    1b0c:	00000b2f 	andeq	r0, r0, pc, lsr #22
    1b10:	3f012e12 	svccc	0x00012e12
    1b14:	3a0e030c 	bcc	38274c <__standby_start+0x38274c>
    1b18:	27053b0b 	strcs	r3, [r5, -fp, lsl #22]
    1b1c:	2013490c 	andscs	r4, r3, ip, lsl #18
    1b20:	0013010b 	andseq	r0, r3, fp, lsl #2
    1b24:	00051300 	andeq	r1, r5, r0, lsl #6
    1b28:	0b3a0e03 	bleq	e8533c <__standby_start+0xe8533c>
    1b2c:	1349053b 	movtne	r0, #38203	; 0x953b
    1b30:	2e140000 	cdpcs	0, 1, cr0, cr4, cr0, {0}
    1b34:	030c3f01 	movweq	r3, #52993	; 0xcf01
    1b38:	3b0b3a0e 	blcc	2d0378 <__standby_start+0x2d0378>
    1b3c:	490c270b 	stmdbmi	ip, {r0, r1, r3, r8, r9, sl, sp}
    1b40:	010b2013 	tsteq	fp, r3, lsl r0
    1b44:	15000013 	strne	r0, [r0, #-19]
    1b48:	0e030005 	cdpeq	0, 0, cr0, cr3, cr5, {0}
    1b4c:	0b3b0b3a 	bleq	ec483c <__standby_start+0xec483c>
    1b50:	00001349 	andeq	r1, r0, r9, asr #6
    1b54:	3f002e16 	svccc	0x00002e16
    1b58:	3a0e030c 	bcc	382790 <__standby_start+0x382790>
    1b5c:	270b3b0b 	strcs	r3, [fp, -fp, lsl #22]
    1b60:	1113490c 	tstne	r3, ip, lsl #18
    1b64:	40011201 	andmi	r1, r1, r1, lsl #4
    1b68:	1700000a 	strne	r0, [r0, -sl]
    1b6c:	0c3f012e 	ldfeqs	f0, [pc], #-184	; 1abc <__standby_start+0x1abc>
    1b70:	0b3a0e03 	bleq	e85384 <__standby_start+0xe85384>
    1b74:	0c270b3b 	stceq	11, cr0, [r7], #-236	; 0xffffff14
    1b78:	01111349 	tsteq	r1, r9, asr #6
    1b7c:	06400112 			; <UNDEFINED> instruction: 0x06400112
    1b80:	00001301 	andeq	r1, r0, r1, lsl #6
    1b84:	03000518 	movweq	r0, #1304	; 0x518
    1b88:	3b0b3a0e 	blcc	2d03c8 <__standby_start+0x2d03c8>
    1b8c:	0213490b 	andseq	r4, r3, #180224	; 0x2c000
    1b90:	19000006 	stmdbne	r0, {r1, r2}
    1b94:	0e030034 	mcreq	0, 0, r0, cr3, cr4, {1}
    1b98:	0b3b0b3a 	bleq	ec4888 <__standby_start+0xec4888>
    1b9c:	06021349 	streq	r1, [r2], -r9, asr #6
    1ba0:	051a0000 	ldreq	r0, [sl, #-0]
    1ba4:	3a0e0300 	bcc	3827ac <__standby_start+0x3827ac>
    1ba8:	490b3b0b 	stmdbmi	fp, {r0, r1, r3, r8, r9, fp, ip, sp}
    1bac:	000a0213 	andeq	r0, sl, r3, lsl r2
    1bb0:	012e1b00 	teqeq	lr, r0, lsl #22
    1bb4:	01111331 	tsteq	r1, r1, lsr r3
    1bb8:	0a400112 	beq	1002008 <__standby_start+0x1002008>
    1bbc:	00001301 	andeq	r1, r0, r1, lsl #6
    1bc0:	3100051c 	tstcc	r0, ip, lsl r5
    1bc4:	00060213 	andeq	r0, r6, r3, lsl r2
    1bc8:	00051d00 	andeq	r1, r5, r0, lsl #26
    1bcc:	0a021331 	beq	86898 <__standby_start+0x86898>
    1bd0:	0b1e0000 	bleq	781bd8 <__standby_start+0x781bd8>
    1bd4:	01065501 	tsteq	r6, r1, lsl #10
    1bd8:	1f000013 	svcne	0x00000013
    1bdc:	1331011d 	teqne	r1, #1073741831	; 0x40000007
    1be0:	06550152 			; <UNDEFINED> instruction: 0x06550152
    1be4:	0b590b58 	bleq	164494c <__standby_start+0x164494c>
    1be8:	00001301 	andeq	r1, r0, r1, lsl #6
    1bec:	31011d20 	tstcc	r1, r0, lsr #26
    1bf0:	12011113 	andne	r1, r1, #-1073741820	; 0xc0000004
    1bf4:	590b5801 	stmdbpl	fp, {r0, fp, ip, lr}
    1bf8:	21000005 	tstcs	r0, r5
    1bfc:	0111010b 	tsteq	r1, fp, lsl #2
    1c00:	00000112 	andeq	r0, r0, r2, lsl r1
    1c04:	03003422 	movweq	r3, #1058	; 0x422
    1c08:	3b0b3a0e 	blcc	2d0448 <__standby_start+0x2d0448>
    1c0c:	02134905 	andseq	r4, r3, #81920	; 0x14000
    1c10:	23000006 	movwcs	r0, #6
    1c14:	1331011d 	teqne	r1, #1073741831	; 0x40000007
    1c18:	06550152 			; <UNDEFINED> instruction: 0x06550152
    1c1c:	05590b58 	ldrbeq	r0, [r9, #-2904]	; 0xb58
    1c20:	00001301 	andeq	r1, r0, r1, lsl #6
    1c24:	03003424 	movweq	r3, #1060	; 0x424
    1c28:	3b0b3a0e 	blcc	2d0468 <__standby_start+0x2d0468>
    1c2c:	3f13490b 	svccc	0x0013490b
    1c30:	000c3c0c 	andeq	r3, ip, ip, lsl #24
    1c34:	11010000 	mrsne	r0, (UNDEF: 1)
    1c38:	130e2501 	movwne	r2, #58625	; 0xe501
    1c3c:	1b0e030b 	blne	382870 <__standby_start+0x382870>
    1c40:	1201110e 	andne	r1, r1, #-2147483645	; 0x80000003
    1c44:	00061001 	andeq	r1, r6, r1
    1c48:	00240200 	eoreq	r0, r4, r0, lsl #4
    1c4c:	0b3e0b0b 	bleq	f84880 <__standby_start+0xf84880>
    1c50:	00000e03 	andeq	r0, r0, r3, lsl #28
    1c54:	0b002403 	bleq	ac68 <__standby_start+0xac68>
    1c58:	030b3e0b 	movweq	r3, #48651	; 0xbe0b
    1c5c:	04000008 	streq	r0, [r0], #-8
    1c60:	0c3f002e 	ldceq	0, cr0, [pc], #-184	; 1bb0 <__standby_start+0x1bb0>
    1c64:	0b3a0e03 	bleq	e85478 <__standby_start+0xe85478>
    1c68:	0c270b3b 	stceq	11, cr0, [r7], #-236	; 0xffffff14
    1c6c:	01111349 	tsteq	r1, r9, asr #6
    1c70:	0a400112 	beq	10020c0 <__standby_start+0x10020c0>
    1c74:	2e050000 	cdpcs	0, 0, cr0, cr5, cr0, {0}
    1c78:	030c3f01 	movweq	r3, #52993	; 0xcf01
    1c7c:	3b0b3a0e 	blcc	2d04bc <__standby_start+0x2d04bc>
    1c80:	490c270b 	stmdbmi	ip, {r0, r1, r3, r8, r9, sl, sp}
    1c84:	12011113 	andne	r1, r1, #-1073741820	; 0xc0000004
    1c88:	010a4001 	tsteq	sl, r1
    1c8c:	06000013 			; <UNDEFINED> instruction: 0x06000013
    1c90:	0e030005 	cdpeq	0, 0, cr0, cr3, cr5, {0}
    1c94:	0b3b0b3a 	bleq	ec4984 <__standby_start+0xec4984>
    1c98:	06021349 	streq	r1, [r2], -r9, asr #6
    1c9c:	05070000 	streq	r0, [r7, #-0]
    1ca0:	3a0e0300 	bcc	3828a8 <__standby_start+0x3828a8>
    1ca4:	490b3b0b 	stmdbmi	fp, {r0, r1, r3, r8, r9, fp, ip, sp}
    1ca8:	000a0213 	andeq	r0, sl, r3, lsl r2
    1cac:	012e0800 	teqeq	lr, r0, lsl #16
    1cb0:	0e030c3f 	mcreq	12, 0, r0, cr3, cr15, {1}
    1cb4:	0b3b0b3a 	bleq	ec49a4 <__standby_start+0xec49a4>
    1cb8:	13490c27 	movtne	r0, #39975	; 0x9c27
    1cbc:	01120111 	tsteq	r2, r1, lsl r1
    1cc0:	00000a40 	andeq	r0, r0, r0, asr #20
    1cc4:	01110100 	tsteq	r1, r0, lsl #2
    1cc8:	0b130e25 	bleq	4c5564 <__standby_start+0x4c5564>
    1ccc:	0e1b0e03 	cdpeq	14, 1, cr0, cr11, cr3, {0}
    1cd0:	01120111 	tsteq	r2, r1, lsl r1
    1cd4:	00000610 	andeq	r0, r0, r0, lsl r6
    1cd8:	0b002402 	bleq	ace8 <__standby_start+0xace8>
    1cdc:	030b3e0b 	movweq	r3, #48651	; 0xbe0b
    1ce0:	0300000e 	movweq	r0, #14
    1ce4:	0b0b0024 	bleq	2c1d7c <__standby_start+0x2c1d7c>
    1ce8:	08030b3e 	stmdaeq	r3, {r1, r2, r3, r4, r5, r8, r9, fp}
    1cec:	04040000 	streq	r0, [r4], #-0
    1cf0:	0b0e0301 	bleq	3828fc <__standby_start+0x3828fc>
    1cf4:	3b0b3a0b 	blcc	2d0528 <__standby_start+0x2d0528>
    1cf8:	0013010b 	andseq	r0, r3, fp, lsl #2
    1cfc:	00280500 	eoreq	r0, r8, r0, lsl #10
    1d00:	0d1c0e03 	ldceq	14, cr0, [ip, #-12]
    1d04:	0f060000 	svceq	0x00060000
    1d08:	000b0b00 	andeq	r0, fp, r0, lsl #22
    1d0c:	00160700 	andseq	r0, r6, r0, lsl #14
    1d10:	0b3a0e03 	bleq	e85524 <__standby_start+0xe85524>
    1d14:	13490b3b 	movtne	r0, #39739	; 0x9b3b
    1d18:	0f080000 	svceq	0x00080000
    1d1c:	490b0b00 	stmdbmi	fp, {r8, r9, fp}
    1d20:	09000013 	stmdbeq	r0, {r0, r1, r4}
    1d24:	0c270115 	stfeqs	f0, [r7], #-84	; 0xffffffac
    1d28:	13011349 	movwne	r1, #4937	; 0x1349
    1d2c:	050a0000 	streq	r0, [sl, #-0]
    1d30:	00134900 	andseq	r4, r3, r0, lsl #18
    1d34:	01130b00 	tsteq	r3, r0, lsl #22
    1d38:	0b0b0e03 	bleq	2c554c <__standby_start+0x2c554c>
    1d3c:	0b3b0b3a 	bleq	ec4a2c <__standby_start+0xec4a2c>
    1d40:	00001301 	andeq	r1, r0, r1, lsl #6
    1d44:	03000d0c 	movweq	r0, #3340	; 0xd0c
    1d48:	3b0b3a0e 	blcc	2d0588 <__standby_start+0x2d0588>
    1d4c:	3813490b 	ldmdacc	r3, {r0, r1, r3, r8, fp, lr}
    1d50:	0d00000a 	stceq	0, cr0, [r0, #-40]	; 0xffffffd8
    1d54:	0803000d 	stmdaeq	r3, {r0, r2, r3}
    1d58:	0b3b0b3a 	bleq	ec4a48 <__standby_start+0xec4a48>
    1d5c:	0a381349 	beq	e06a88 <__standby_start+0xe06a88>
    1d60:	350e0000 	strcc	r0, [lr, #-0]
    1d64:	00134900 	andseq	r4, r3, r0, lsl #18
    1d68:	00350f00 	eorseq	r0, r5, r0, lsl #30
    1d6c:	01100000 	tsteq	r0, r0
    1d70:	01134901 	tsteq	r3, r1, lsl #18
    1d74:	11000013 	tstne	r0, r3, lsl r0
    1d78:	13490021 	movtne	r0, #36897	; 0x9021
    1d7c:	00000b2f 	andeq	r0, r0, pc, lsr #22
    1d80:	3f002e12 	svccc	0x00002e12
    1d84:	3a0e030c 	bcc	3829bc <__standby_start+0x3829bc>
    1d88:	270b3b0b 	strcs	r3, [fp, -fp, lsl #22]
    1d8c:	1113490c 	tstne	r3, ip, lsl #18
    1d90:	40011201 	andmi	r1, r1, r1, lsl #4
    1d94:	1300000a 	movwne	r0, #10
    1d98:	0c3f012e 	ldfeqs	f0, [pc], #-184	; 1ce8 <__standby_start+0x1ce8>
    1d9c:	0b3a0e03 	bleq	e855b0 <__standby_start+0xe855b0>
    1da0:	0c270b3b 	stceq	11, cr0, [r7], #-236	; 0xffffff14
    1da4:	01111349 	tsteq	r1, r9, asr #6
    1da8:	06400112 			; <UNDEFINED> instruction: 0x06400112
    1dac:	00001301 	andeq	r1, r0, r1, lsl #6
    1db0:	03000514 	movweq	r0, #1300	; 0x514
    1db4:	3b0b3a0e 	blcc	2d05f4 <__standby_start+0x2d05f4>
    1db8:	0213490b 	andseq	r4, r3, #180224	; 0x2c000
    1dbc:	15000006 	strne	r0, [r0, #-6]
    1dc0:	0e030034 	mcreq	0, 0, r0, cr3, cr4, {1}
    1dc4:	0b3b0b3a 	bleq	ec4ab4 <__standby_start+0xec4ab4>
    1dc8:	06021349 	streq	r1, [r2], -r9, asr #6
    1dcc:	2e160000 	cdpcs	0, 1, cr0, cr6, cr0, {0}
    1dd0:	030c3f01 	movweq	r3, #52993	; 0xcf01
    1dd4:	3b0b3a0e 	blcc	2d0614 <__standby_start+0x2d0614>
    1dd8:	110c270b 	tstne	ip, fp, lsl #14
    1ddc:	40011201 	andmi	r1, r1, r1, lsl #4
    1de0:	00130106 	andseq	r0, r3, r6, lsl #2
    1de4:	00341700 	eorseq	r1, r4, r0, lsl #14
    1de8:	0b3a0e03 	bleq	e855fc <__standby_start+0xe855fc>
    1dec:	13490b3b 	movtne	r0, #39739	; 0x9b3b
    1df0:	00000a02 	andeq	r0, r0, r2, lsl #20
    1df4:	03003418 	movweq	r3, #1048	; 0x418
    1df8:	3b0b3a0e 	blcc	2d0638 <__standby_start+0x2d0638>
    1dfc:	3f13490b 	svccc	0x0013490b
    1e00:	000c3c0c 	andeq	r3, ip, ip, lsl #24
    1e04:	11010000 	mrsne	r0, (UNDEF: 1)
    1e08:	130e2501 	movwne	r2, #58625	; 0xe501
    1e0c:	1b0e030b 	blne	382a40 <__standby_start+0x382a40>
    1e10:	1201110e 	andne	r1, r1, #-2147483645	; 0x80000003
    1e14:	00061001 	andeq	r1, r6, r1
    1e18:	00240200 	eoreq	r0, r4, r0, lsl #4
    1e1c:	0b3e0b0b 	bleq	f84a50 <__standby_start+0xf84a50>
    1e20:	00000e03 	andeq	r0, r0, r3, lsl #28
    1e24:	03001603 	movweq	r1, #1539	; 0x603
    1e28:	3b0b3a0e 	blcc	2d0668 <__standby_start+0x2d0668>
    1e2c:	0013490b 	andseq	r4, r3, fp, lsl #18
    1e30:	00240400 	eoreq	r0, r4, r0, lsl #8
    1e34:	0b3e0b0b 	bleq	f84a68 <__standby_start+0xf84a68>
    1e38:	00000803 	andeq	r0, r0, r3, lsl #16
    1e3c:	03010405 	movweq	r0, #5125	; 0x1405
    1e40:	3a0b0b0e 	bcc	2c4a80 <__standby_start+0x2c4a80>
    1e44:	010b3b0b 	tsteq	fp, fp, lsl #22
    1e48:	06000013 			; <UNDEFINED> instruction: 0x06000013
    1e4c:	0e030028 	cdpeq	0, 0, cr0, cr3, cr8, {1}
    1e50:	00000d1c 	andeq	r0, r0, ip, lsl sp
    1e54:	03012e07 	movweq	r2, #7687	; 0x1e07
    1e58:	3b0b3a0e 	blcc	2d0698 <__standby_start+0x2d0698>
    1e5c:	490c270b 	stmdbmi	ip, {r0, r1, r3, r8, r9, sl, sp}
    1e60:	010b2013 	tsteq	fp, r3, lsl r0
    1e64:	08000013 	stmdaeq	r0, {r0, r1, r4}
    1e68:	0e030034 	mcreq	0, 0, r0, cr3, cr4, {1}
    1e6c:	0b3b0b3a 	bleq	ec4b5c <__standby_start+0xec4b5c>
    1e70:	00001349 	andeq	r1, r0, r9, asr #6
    1e74:	03012e09 	movweq	r2, #7689	; 0x1e09
    1e78:	3b0b3a0e 	blcc	2d06b8 <__standby_start+0x2d06b8>
    1e7c:	200c270b 	andcs	r2, ip, fp, lsl #14
    1e80:	0013010b 	andseq	r0, r3, fp, lsl #2
    1e84:	00050a00 	andeq	r0, r5, r0, lsl #20
    1e88:	0b3a0e03 	bleq	e8569c <__standby_start+0xe8569c>
    1e8c:	13490b3b 	movtne	r0, #39739	; 0x9b3b
    1e90:	2e0b0000 	cdpcs	0, 0, cr0, cr11, cr0, {0}
    1e94:	030c3f01 	movweq	r3, #52993	; 0xcf01
    1e98:	3b0b3a0e 	blcc	2d06d8 <__standby_start+0x2d06d8>
    1e9c:	490c270b 	stmdbmi	ip, {r0, r1, r3, r8, r9, sl, sp}
    1ea0:	12011113 	andne	r1, r1, #-1073741820	; 0xc0000004
    1ea4:	010a4001 	tsteq	sl, r1
    1ea8:	0c000013 	stceq	0, cr0, [r0], {19}
    1eac:	0e030005 	cdpeq	0, 0, cr0, cr3, cr5, {0}
    1eb0:	0b3b0b3a 	bleq	ec4ba0 <__standby_start+0xec4ba0>
    1eb4:	06021349 	streq	r1, [r2], -r9, asr #6
    1eb8:	2e0d0000 	cdpcs	0, 0, cr0, cr13, cr0, {0}
    1ebc:	030c3f01 	movweq	r3, #52993	; 0xcf01
    1ec0:	3b0b3a0e 	blcc	2d0700 <__standby_start+0x2d0700>
    1ec4:	490c270b 	stmdbmi	ip, {r0, r1, r3, r8, r9, sl, sp}
    1ec8:	12011113 	andne	r1, r1, #-1073741820	; 0xc0000004
    1ecc:	01064001 	tsteq	r6, r1
    1ed0:	0e000013 	mcreq	0, 0, r0, cr0, cr3, {0}
    1ed4:	0e030034 	mcreq	0, 0, r0, cr3, cr4, {1}
    1ed8:	0b3b0b3a 	bleq	ec4bc8 <__standby_start+0xec4bc8>
    1edc:	06021349 	streq	r1, [r2], -r9, asr #6
    1ee0:	1d0f0000 	stcne	0, cr0, [pc, #-0]	; 1ee8 <__standby_start+0x1ee8>
    1ee4:	11133101 	tstne	r3, r1, lsl #2
    1ee8:	58011201 	stmdapl	r1, {r0, r9, ip}
    1eec:	010b590b 	tsteq	fp, fp, lsl #18
    1ef0:	10000013 	andne	r0, r0, r3, lsl r0
    1ef4:	0111010b 	tsteq	r1, fp, lsl #2
    1ef8:	00000112 	andeq	r0, r0, r2, lsl r1
    1efc:	31003411 	tstcc	r0, r1, lsl r4
    1f00:	00060213 	andeq	r0, r6, r3, lsl r2
    1f04:	011d1200 	tsteq	sp, r0, lsl #4
    1f08:	01111331 	tsteq	r1, r1, lsr r3
    1f0c:	0b580112 	bleq	160235c <__standby_start+0x160235c>
    1f10:	00000b59 	andeq	r0, r0, r9, asr fp
    1f14:	31000513 	tstcc	r0, r3, lsl r5
    1f18:	00060213 	andeq	r0, r6, r3, lsl r2
    1f1c:	011d1400 	tsteq	sp, r0, lsl #8
    1f20:	01521331 	cmpeq	r2, r1, lsr r3
    1f24:	0b580655 	bleq	1603880 <__standby_start+0x1603880>
    1f28:	00000b59 	andeq	r0, r0, r9, asr fp
    1f2c:	31000515 	tstcc	r0, r5, lsl r5
    1f30:	000a0213 	andeq	r0, sl, r3, lsl r2
    1f34:	00341600 	eorseq	r1, r4, r0, lsl #12
    1f38:	0a021331 	beq	86c04 <__standby_start+0x86c04>
    1f3c:	34170000 	ldrcc	r0, [r7], #-0
    1f40:	3a0e0300 	bcc	382b48 <__standby_start+0x382b48>
    1f44:	490b3b0b 	stmdbmi	fp, {r0, r1, r3, r8, r9, fp, ip, sp}
    1f48:	000a0213 	andeq	r0, sl, r3, lsl r2
	...

Disassembly of section .debug_loc:

00000000 <.debug_loc>:
       0:	00000000 	andeq	r0, r0, r0
       4:	00000004 	andeq	r0, r0, r4
       8:	007d0002 	rsbseq	r0, sp, r2
       c:	00000004 	andeq	r0, r0, r4
      10:	000003dc 	ldrdeq	r0, [r0], -ip
      14:	187d0002 	ldmdane	sp!, {r1}^
	...
      24:	0000000c 	andeq	r0, r0, ip
      28:	0c500001 	mrrceq	0, 0, r0, r0, cr1	; <UNPREDICTABLE>
      2c:	dc000000 	stcle	0, cr0, [r0], {-0}
      30:	01000003 	tsteq	r0, r3
      34:	00005500 	andeq	r5, r0, r0, lsl #10
      38:	00000000 	andeq	r0, r0, r0
      3c:	00200000 	eoreq	r0, r0, r0
      40:	00370000 	eorseq	r0, r7, r0
      44:	00010000 	andeq	r0, r1, r0
      48:	00000053 	andeq	r0, r0, r3, asr r0
	...
      54:	00001c00 	andeq	r1, r0, r0, lsl #24
      58:	50000100 	andpl	r0, r0, r0, lsl #2
	...
      68:	00000018 	andeq	r0, r0, r8, lsl r0
      6c:	18510001 	ldmdane	r1, {r0}^
      70:	1c000000 	stcne	0, cr0, [r0], {-0}
      74:	03000000 	movweq	r0, #0
      78:	9f017100 	svcls	0x00017100
	...
      88:	0000001c 	andeq	r0, r0, ip, lsl r0
      8c:	00520001 	subseq	r0, r2, r1
      90:	00000000 	andeq	r0, r0, r0
      94:	60000000 	andvs	r0, r0, r0
      98:	70000000 	andvc	r0, r0, r0
      9c:	01000000 	mrseq	r0, (UNDEF: 0)
      a0:	00705200 	rsbseq	r5, r0, r0, lsl #4
      a4:	00740000 	rsbseq	r0, r4, r0
      a8:	00060000 	andeq	r0, r6, r0
      ac:	f8090072 			; <UNDEFINED> instruction: 0xf8090072
      b0:	00749f1a 	rsbseq	r9, r4, sl, lsl pc
      b4:	00880000 	addeq	r0, r8, r0
      b8:	00010000 	andeq	r0, r1, r0
      bc:	00000052 	andeq	r0, r0, r2, asr r0
	...
      c8:	00000400 	andeq	r0, r0, r0, lsl #8
      cc:	7d000200 	sfmvc	f0, 4, [r0, #-0]
      d0:	00000400 	andeq	r0, r0, r0, lsl #8
      d4:	00005800 	andeq	r5, r0, r0, lsl #16
      d8:	7d000200 	sfmvc	f0, 4, [r0, #-0]
      dc:	00000010 	andeq	r0, r0, r0, lsl r0
	...
      e8:	00000800 	andeq	r0, r0, r0, lsl #16
      ec:	7d000200 	sfmvc	f0, 4, [r0, #-0]
      f0:	00000800 	andeq	r0, r0, r0, lsl #16
      f4:	00000c00 	andeq	r0, r0, r0, lsl #24
      f8:	7d000200 	sfmvc	f0, 4, [r0, #-0]
      fc:	00000c14 	andeq	r0, r0, r4, lsl ip
     100:	00019800 	andeq	r9, r1, r0, lsl #16
     104:	7d000200 	sfmvc	f0, 4, [r0, #-0]
     108:	00000020 	andeq	r0, r0, r0, lsr #32
	...
     114:	00004400 	andeq	r4, r0, r0, lsl #8
     118:	50000100 	andpl	r0, r0, r0, lsl #2
     11c:	0000004c 	andeq	r0, r0, ip, asr #32
     120:	0000007c 	andeq	r0, r0, ip, ror r0
     124:	f8500001 			; <UNDEFINED> instruction: 0xf8500001
     128:	0c000000 	stceq	0, cr0, [r0], {-0}
     12c:	01000001 	tsteq	r0, r1
     130:	01405000 	mrseq	r5, (UNDEF: 64)
     134:	014c0000 	mrseq	r0, (UNDEF: 76)
     138:	00010000 	andeq	r0, r1, r0
     13c:	00000050 	andeq	r0, r0, r0, asr r0
	...
     148:	00004400 	andeq	r4, r0, r0, lsl #8
     14c:	51000100 	mrspl	r0, (UNDEF: 16)
     150:	0000004c 	andeq	r0, r0, ip, asr #32
     154:	0000005c 	andeq	r0, r0, ip, asr r0
     158:	f8510001 			; <UNDEFINED> instruction: 0xf8510001
     15c:	10000000 	andne	r0, r0, r0
     160:	01000001 	tsteq	r0, r1
     164:	01405100 	mrseq	r5, (UNDEF: 80)
     168:	014c0000 	mrseq	r0, (UNDEF: 76)
     16c:	00010000 	andeq	r0, r1, r0
     170:	00000051 	andeq	r0, r0, r1, asr r0
	...
     17c:	00004400 	andeq	r4, r0, r0, lsl #8
     180:	30000200 	andcc	r0, r0, r0, lsl #4
     184:	00004c9f 	muleq	r0, pc, ip	; <UNPREDICTABLE>
     188:	00005000 	andeq	r5, r0, r0
     18c:	30000200 	andcc	r0, r0, r0, lsl #4
     190:	0000009f 	muleq	r0, pc, r0	; <UNPREDICTABLE>
     194:	00000000 	andeq	r0, r0, r0
     198:	00008800 	andeq	r8, r0, r0, lsl #16
     19c:	00009800 	andeq	r9, r0, r0, lsl #16
     1a0:	50000100 	andpl	r0, r0, r0, lsl #2
     1a4:	00000098 	muleq	r0, r8, r0
     1a8:	000000e0 	andeq	r0, r0, r0, ror #1
     1ac:	20570001 	subscs	r0, r7, r1
     1b0:	2c000001 	stccs	0, cr0, [r0], {1}
     1b4:	01000001 	tsteq	r0, r1
     1b8:	012c5000 	teqeq	ip, r0
     1bc:	01300000 	teqeq	r0, r0
     1c0:	00030000 	andeq	r0, r3, r0
     1c4:	309f7a70 	addscc	r7, pc, r0, ror sl	; <UNPREDICTABLE>
     1c8:	40000001 	andmi	r0, r0, r1
     1cc:	03000001 	movweq	r0, #1
     1d0:	9f007000 	svcls	0x00007000
     1d4:	0000014c 	andeq	r0, r0, ip, asr #2
     1d8:	00000170 	andeq	r0, r0, r0, ror r1
     1dc:	80500001 	subshi	r0, r0, r1
     1e0:	84000001 	strhi	r0, [r0], #-1
     1e4:	03000001 	movweq	r0, #1
     1e8:	9f7b7000 	svcls	0x007b7000
     1ec:	00000184 	andeq	r0, r0, r4, lsl #3
     1f0:	00000198 	muleq	r0, r8, r1
     1f4:	00700003 	rsbseq	r0, r0, r3
     1f8:	0000009f 	muleq	r0, pc, r0	; <UNPREDICTABLE>
     1fc:	00000000 	andeq	r0, r0, r0
     200:	0000c800 	andeq	ip, r0, r0, lsl #16
     204:	0000f800 	andeq	pc, r0, r0, lsl #16
     208:	56000100 	strpl	r0, [r0], -r0, lsl #2
	...
     214:	00000044 	andeq	r0, r0, r4, asr #32
     218:	0000004c 	andeq	r0, r0, ip, asr #32
     21c:	5f910002 	svcpl	0x00910002
     220:	000000c0 	andeq	r0, r0, r0, asr #1
     224:	000000f8 	strdeq	r0, [r0], -r8
     228:	5f910002 	svcpl	0x00910002
	...
     234:	00000004 	andeq	r0, r0, r4
     238:	00000044 	andeq	r0, r0, r4, asr #32
     23c:	4c500001 	mrrcmi	0, 0, r0, r0, cr1	; <UNPREDICTABLE>
     240:	7c000000 	stcvc	0, cr0, [r0], {-0}
     244:	01000000 	mrseq	r0, (UNDEF: 0)
     248:	00f85000 	rscseq	r5, r8, r0
     24c:	010c0000 	mrseq	r0, (UNDEF: 12)
     250:	00010000 	andeq	r0, r1, r0
     254:	00014050 	andeq	r4, r1, r0, asr r0
     258:	00014c00 	andeq	r4, r1, r0, lsl #24
     25c:	50000100 	andpl	r0, r0, r0, lsl #2
	...
     268:	00000004 	andeq	r0, r0, r4
     26c:	00000020 	andeq	r0, r0, r0, lsr #32
     270:	3c030006 	stccc	0, cr0, [r3], {6}
     274:	9ff0003c 	svcls	0x00f0003c
     278:	00000034 	andeq	r0, r0, r4, lsr r0
     27c:	00000044 	andeq	r0, r0, r4, asr #32
     280:	4c540001 	mrrcmi	0, 0, r0, r4, cr1
     284:	50000000 	andpl	r0, r0, r0
     288:	06000000 	streq	r0, [r0], -r0
     28c:	3c3c0300 	ldccc	3, cr0, [ip], #-0
     290:	009ff000 	addseq	pc, pc, r0
     294:	00000000 	andeq	r0, r0, r0
     298:	04000000 	streq	r0, [r0], #-0
     29c:	20000000 	andcs	r0, r0, r0
     2a0:	02000000 	andeq	r0, r0, #0
     2a4:	3c9f3000 	ldccc	0, cr3, [pc], {0}
     2a8:	44000000 	strmi	r0, [r0], #-0
     2ac:	01000000 	mrseq	r0, (UNDEF: 0)
     2b0:	004c5200 	subeq	r5, ip, r0, lsl #4
     2b4:	00500000 	subseq	r0, r0, r0
     2b8:	00020000 	andeq	r0, r2, r0
     2bc:	00009f30 	andeq	r9, r0, r0, lsr pc
     2c0:	00000000 	andeq	r0, r0, r0
     2c4:	00500000 	subseq	r0, r0, r0
     2c8:	00800000 	addeq	r0, r0, r0
     2cc:	00010000 	andeq	r0, r1, r0
     2d0:	0000f851 	andeq	pc, r0, r1, asr r8	; <UNPREDICTABLE>
     2d4:	00011000 	andeq	r1, r1, r0
     2d8:	51000100 	mrspl	r0, (UNDEF: 16)
     2dc:	00000140 	andeq	r0, r0, r0, asr #2
     2e0:	0000014c 	andeq	r0, r0, ip, asr #2
     2e4:	00510001 	subseq	r0, r1, r1
     2e8:	00000000 	andeq	r0, r0, r0
     2ec:	98000000 	stmdals	r0, {}	; <UNPREDICTABLE>
     2f0:	a0000001 	andge	r0, r0, r1
     2f4:	02000001 	andeq	r0, r0, #1
     2f8:	a0007d00 	andge	r7, r0, r0, lsl #26
     2fc:	a8000001 	stmdage	r0, {r0}
     300:	02000001 	andeq	r0, r0, #1
     304:	a80c7d00 	stmdage	ip, {r8, sl, fp, ip, sp, lr}
     308:	48000001 	stmdami	r0, {r0}
     30c:	02000002 	andeq	r0, r0, #2
     310:	00187d00 	andseq	r7, r8, r0, lsl #26
     314:	00000000 	andeq	r0, r0, r0
     318:	98000000 	stmdals	r0, {}	; <UNPREDICTABLE>
     31c:	b4000001 	strlt	r0, [r0], #-1
     320:	01000001 	tsteq	r0, r1
     324:	01bc5000 			; <UNDEFINED> instruction: 0x01bc5000
     328:	02480000 	subeq	r0, r8, #0
     32c:	00010000 	andeq	r0, r1, r0
     330:	00000054 	andeq	r0, r0, r4, asr r0
     334:	00000000 	andeq	r0, r0, r0
     338:	00019800 	andeq	r9, r1, r0, lsl #16
     33c:	0001e400 	andeq	lr, r1, r0, lsl #8
     340:	30000200 	andcc	r0, r0, r0, lsl #4
     344:	0001ec9f 	muleq	r1, pc, ip	; <UNPREDICTABLE>
     348:	0001f000 	andeq	pc, r1, r0
     34c:	30000200 	andcc	r0, r0, r0, lsl #4
     350:	0000009f 	muleq	r0, pc, r0	; <UNPREDICTABLE>
     354:	00000000 	andeq	r0, r0, r0
     358:	0001e400 	andeq	lr, r1, r0, lsl #8
     35c:	0001ec00 	andeq	lr, r1, r0, lsl #24
     360:	53000100 	movwpl	r0, #256	; 0x100
     364:	00000214 	andeq	r0, r0, r4, lsl r2
     368:	00000218 	andeq	r0, r0, r8, lsl r2
     36c:	67910002 	ldrvs	r0, [r1, r2]
     370:	00000224 	andeq	r0, r0, r4, lsr #4
     374:	00000234 	andeq	r0, r0, r4, lsr r2
     378:	38510001 	ldmdacc	r1, {r0}^
     37c:	48000002 	stmdami	r0, {r1}
     380:	01000002 	tsteq	r0, r2
     384:	00005300 	andeq	r5, r0, r0, lsl #6
     388:	00000000 	andeq	r0, r0, r0
     38c:	01a40000 			; <UNDEFINED> instruction: 0x01a40000
     390:	01bc0000 			; <UNDEFINED> instruction: 0x01bc0000
     394:	00010000 	andeq	r0, r1, r0
     398:	0001bc50 	andeq	fp, r1, r0, asr ip
     39c:	00024800 	andeq	r4, r2, r0, lsl #16
     3a0:	54000100 	strpl	r0, [r0], #-256	; 0x100
	...
     3ac:	000001a4 	andeq	r0, r0, r4, lsr #3
     3b0:	000001bc 			; <UNDEFINED> instruction: 0x000001bc
     3b4:	3c030006 	stccc	0, cr0, [r3], {6}
     3b8:	9ff0003c 	svcls	0x00f0003c
     3bc:	000001d0 	ldrdeq	r0, [r0], -r0	; <UNPREDICTABLE>
     3c0:	000001e4 	andeq	r0, r0, r4, ror #3
     3c4:	ec550001 	mrrc	0, 0, r0, r5, cr1
     3c8:	f0000001 			; <UNDEFINED> instruction: 0xf0000001
     3cc:	06000001 	streq	r0, [r0], -r1
     3d0:	3c3c0300 	ldccc	3, cr0, [ip], #-0
     3d4:	009ff000 	addseq	pc, pc, r0
     3d8:	00000000 	andeq	r0, r0, r0
     3dc:	a4000000 	strge	r0, [r0], #-0
     3e0:	bc000001 	stclt	0, cr0, [r0], {1}
     3e4:	02000001 	andeq	r0, r0, #1
     3e8:	d89f3000 	ldmle	pc, {ip, sp}	; <UNPREDICTABLE>
     3ec:	e4000001 	str	r0, [r0], #-1
     3f0:	01000001 	tsteq	r0, r1
     3f4:	01ec5200 	mvneq	r5, r0, lsl #4
     3f8:	01f00000 	mvnseq	r0, r0
     3fc:	00020000 	andeq	r0, r2, r0
     400:	00009f30 	andeq	r9, r0, r0, lsr pc
     404:	00000000 	andeq	r0, r0, r0
     408:	02480000 	subeq	r0, r8, #0
     40c:	024c0000 	subeq	r0, ip, #0
     410:	00020000 	andeq	r0, r2, r0
     414:	024c007d 	subeq	r0, ip, #125	; 0x7d
     418:	04180000 	ldreq	r0, [r8], #-0
     41c:	00020000 	andeq	r0, r2, r0
     420:	0000107d 	andeq	r1, r0, sp, ror r0
     424:	00000000 	andeq	r0, r0, r0
     428:	02480000 	subeq	r0, r8, #0
     42c:	02580000 	subseq	r0, r8, #0
     430:	00010000 	andeq	r0, r1, r0
     434:	00025850 	andeq	r5, r2, r0, asr r8
     438:	0002f000 	andeq	pc, r2, r0
     43c:	74000300 	strvc	r0, [r0], #-768	; 0x300
     440:	03109f01 	tsteq	r0, #4
     444:	031c0000 	tsteq	ip, #0
     448:	00030000 	andeq	r0, r3, r0
     44c:	449f0174 	ldrmi	r0, [pc], #372	; 454 <__standby_start+0x454>
     450:	48000003 	stmdami	r0, {r0, r1}
     454:	03000003 	movweq	r0, #3
     458:	9f017400 	svcls	0x00017400
     45c:	00000374 	andeq	r0, r0, r4, ror r3
     460:	00000378 	andeq	r0, r0, r8, ror r3
     464:	01740003 	cmneq	r4, r3
     468:	0003a49f 	muleq	r3, pc, r4	; <UNPREDICTABLE>
     46c:	0003a800 	andeq	sl, r3, r0, lsl #16
     470:	74000300 	strvc	r0, [r0], #-768	; 0x300
     474:	03d49f01 	bicseq	r9, r4, #4
     478:	03d80000 	bicseq	r0, r8, #0
     47c:	00030000 	andeq	r0, r3, r0
     480:	009f0174 	addseq	r0, pc, r4, ror r1	; <UNPREDICTABLE>
     484:	00000000 	andeq	r0, r0, r0
     488:	48000000 	stmdami	r0, {}	; <UNPREDICTABLE>
     48c:	5f000002 	svcpl	0x00000002
     490:	01000002 	tsteq	r0, r2
     494:	00005100 	andeq	r5, r0, r0, lsl #2
     498:	00000000 	andeq	r0, r0, r0
     49c:	04180000 	ldreq	r0, [r8], #-0
     4a0:	041c0000 	ldreq	r0, [ip], #-0
     4a4:	00020000 	andeq	r0, r2, r0
     4a8:	041c007d 	ldreq	r0, [ip], #-125	; 0x7d
     4ac:	04680000 	strbteq	r0, [r8], #-0
     4b0:	00020000 	andeq	r0, r2, r0
     4b4:	0000107d 	andeq	r1, r0, sp, ror r0
     4b8:	00000000 	andeq	r0, r0, r0
     4bc:	04180000 	ldreq	r0, [r8], #-0
     4c0:	042c0000 	strteq	r0, [ip], #-0
     4c4:	00020000 	andeq	r0, r2, r0
     4c8:	04309f30 	ldrteq	r9, [r0], #-3888	; 0xf30
     4cc:	04380000 	ldrteq	r0, [r8], #-0
     4d0:	00010000 	andeq	r0, r1, r0
     4d4:	00045054 	andeq	r5, r4, r4, asr r0
     4d8:	00046800 	andeq	r6, r4, r0, lsl #16
     4dc:	54000100 	strpl	r0, [r0], #-256	; 0x100
	...
     4ec:	00000004 	andeq	r0, r0, r4
     4f0:	007d0002 	rsbseq	r0, sp, r2
     4f4:	00000004 	andeq	r0, r0, r4
     4f8:	00000084 	andeq	r0, r0, r4, lsl #1
     4fc:	187d0002 	ldmdane	sp!, {r1}^
	...
     50c:	0000001c 	andeq	r0, r0, ip, lsl r0
     510:	1c500001 	mrrcne	0, 0, r0, r0, cr1	; <UNPREDICTABLE>
     514:	84000000 	strhi	r0, [r0], #-0
     518:	01000000 	mrseq	r0, (UNDEF: 0)
     51c:	00005400 	andeq	r5, r0, r0, lsl #8
	...
     528:	00230000 	eoreq	r0, r3, r0
     52c:	00010000 	andeq	r0, r1, r0
     530:	00007051 	andeq	r7, r0, r1, asr r0
     534:	00007700 	andeq	r7, r0, r0, lsl #14
     538:	51000100 	mrspl	r0, (UNDEF: 16)
	...
     548:	00000023 	andeq	r0, r0, r3, lsr #32
     54c:	70520001 	subsvc	r0, r2, r1
     550:	77000000 	strvc	r0, [r0, -r0]
     554:	01000000 	mrseq	r0, (UNDEF: 0)
     558:	00005200 	andeq	r5, r0, r0, lsl #4
	...
     564:	00230000 	eoreq	r0, r3, r0
     568:	00010000 	andeq	r0, r1, r0
     56c:	00007053 	andeq	r7, r0, r3, asr r0
     570:	00007700 	andeq	r7, r0, r0, lsl #14
     574:	53000100 	movwpl	r0, #256	; 0x100
	...
     584:	00000024 	andeq	r0, r0, r4, lsr #32
     588:	9f300002 	svcls	0x00300002
     58c:	0000002c 	andeq	r0, r0, ip, lsr #32
     590:	0000005b 	andeq	r0, r0, fp, asr r0
     594:	70530001 	subsvc	r0, r3, r1
     598:	84000000 	strhi	r0, [r0], #-0
     59c:	02000000 	andeq	r0, r0, #0
     5a0:	009f3000 	addseq	r3, pc, r0
	...
     5ac:	24000000 	strcs	r0, [r0], #-0
     5b0:	02000000 	andeq	r0, r0, #0
     5b4:	709f3000 	addsvc	r3, pc, r0
     5b8:	84000000 	strhi	r0, [r0], #-0
     5bc:	02000000 	andeq	r0, r0, #0
     5c0:	009f3000 	addseq	r3, pc, r0
	...
     5cc:	24000000 	strcs	r0, [r0], #-0
     5d0:	03000000 	movweq	r0, #0
     5d4:	9fff0900 	svcls	0x00ff0900
     5d8:	00000070 	andeq	r0, r0, r0, ror r0
     5dc:	00000084 	andeq	r0, r0, r4, lsl #1
     5e0:	ff090003 			; <UNDEFINED> instruction: 0xff090003
     5e4:	0000009f 	muleq	r0, pc, r0	; <UNPREDICTABLE>
	...
     5f0:	00000c00 	andeq	r0, r0, r0, lsl #24
     5f4:	30000200 	andcc	r0, r0, r0, lsl #4
     5f8:	00000c9f 	muleq	r0, pc, ip	; <UNPREDICTABLE>
     5fc:	00002300 	andeq	r2, r0, r0, lsl #6
     600:	71000700 	tstvc	r0, r0, lsl #14
     604:	72243200 	eorvc	r3, r4, #0
     608:	00232200 	eoreq	r2, r3, r0, lsl #4
     60c:	00840000 	addeq	r0, r4, r0
     610:	00010000 	andeq	r0, r1, r0
     614:	00000055 	andeq	r0, r0, r5, asr r0
     618:	00000000 	andeq	r0, r0, r0
     61c:	00008400 	andeq	r8, r0, r0, lsl #8
     620:	00008800 	andeq	r8, r0, r0, lsl #16
     624:	7d000200 	sfmvc	f0, 4, [r0, #-0]
     628:	00008800 	andeq	r8, r0, r0, lsl #16
     62c:	0000d400 	andeq	sp, r0, r0, lsl #8
     630:	7d000200 	sfmvc	f0, 4, [r0, #-0]
     634:	00000010 	andeq	r0, r0, r0, lsl r0
     638:	00000000 	andeq	r0, r0, r0
     63c:	00008400 	andeq	r8, r0, r0, lsl #8
     640:	00009000 	andeq	r9, r0, r0
     644:	50000100 	andpl	r0, r0, r0, lsl #2
     648:	00000090 	muleq	r0, r0, r0
     64c:	000000d4 	ldrdeq	r0, [r0], -r4
     650:	00550001 	subseq	r0, r5, r1
     654:	00000000 	andeq	r0, r0, r0
     658:	84000000 	strhi	r0, [r0], #-0
     65c:	90000000 	andls	r0, r0, r0
     660:	02000000 	andeq	r0, r0, #0
     664:	989f3000 	ldmls	pc, {ip, sp}	; <UNPREDICTABLE>
     668:	bf000000 	svclt	0x00000000
     66c:	01000000 	mrseq	r0, (UNDEF: 0)
     670:	00005300 	andeq	r5, r0, r0, lsl #6
     674:	00000000 	andeq	r0, r0, r0
     678:	00840000 	addeq	r0, r4, r0
     67c:	00900000 	addseq	r0, r0, r0
     680:	00020000 	andeq	r0, r2, r0
     684:	00009f30 	andeq	r9, r0, r0, lsr pc
     688:	00000000 	andeq	r0, r0, r0
     68c:	00840000 	addeq	r0, r4, r0
     690:	00900000 	addseq	r0, r0, r0
     694:	00030000 	andeq	r0, r3, r0
     698:	009fff09 	addseq	pc, pc, r9, lsl #30
	...
     6a4:	18000000 	stmdane	r0, {}	; <UNPREDICTABLE>
     6a8:	01000000 	mrseq	r0, (UNDEF: 0)
     6ac:	00005000 	andeq	r5, r0, r0
     6b0:	00000000 	andeq	r0, r0, r0
     6b4:	00800000 	addeq	r0, r0, r0
     6b8:	00880000 	addeq	r0, r8, r0
     6bc:	00020000 	andeq	r0, r2, r0
     6c0:	0088007d 	addeq	r0, r8, sp, ror r0
     6c4:	03380000 	teqeq	r8, #0
     6c8:	00020000 	andeq	r0, r2, r0
     6cc:	0000087d 	andeq	r0, r0, sp, ror r8
     6d0:	00000000 	andeq	r0, r0, r0
     6d4:	00800000 	addeq	r0, r0, r0
     6d8:	01800000 	orreq	r0, r0, r0
     6dc:	00010000 	andeq	r0, r1, r0
     6e0:	0002dc50 	andeq	sp, r2, r0, asr ip
     6e4:	00032800 	andeq	r2, r3, r0, lsl #16
     6e8:	50000100 	andpl	r0, r0, r0, lsl #2
	...
     6f4:	00000080 	andeq	r0, r0, r0, lsl #1
     6f8:	000000e8 	andeq	r0, r0, r8, ror #1
     6fc:	00510001 	subseq	r0, r1, r1
     700:	00000000 	andeq	r0, r0, r0
     704:	80000000 	andhi	r0, r0, r0
     708:	38000000 	stmdacc	r0, {}	; <UNPREDICTABLE>
     70c:	01000001 	tsteq	r0, r1
     710:	00005200 	andeq	r5, r0, r0, lsl #4
     714:	00000000 	andeq	r0, r0, r0
     718:	00800000 	addeq	r0, r0, r0
     71c:	02440000 	subeq	r0, r4, #0
     720:	00010000 	andeq	r0, r1, r0
     724:	0002dc53 	andeq	sp, r2, r3, asr ip
     728:	0002e400 	andeq	lr, r2, r0, lsl #8
     72c:	53000100 	movwpl	r0, #256	; 0x100
	...
     738:	00000098 	muleq	r0, r8, r0
     73c:	0000009c 	muleq	r0, ip, r0
     740:	d8540001 	ldmdale	r4, {r0}^
     744:	dc000000 	stcle	0, cr0, [r0], {-0}
     748:	01000000 	mrseq	r0, (UNDEF: 0)
     74c:	01245400 	teqeq	r4, r0, lsl #8
     750:	01280000 	teqeq	r8, r0
     754:	00010000 	andeq	r0, r1, r0
     758:	00016854 	andeq	r6, r1, r4, asr r8
     75c:	00016c00 	andeq	r6, r1, r0, lsl #24
     760:	52000100 	andpl	r0, r0, #0
     764:	000001b4 			; <UNDEFINED> instruction: 0x000001b4
     768:	000001b8 			; <UNDEFINED> instruction: 0x000001b8
     76c:	fc520001 	mrrc2	0, 0, r0, r2, cr1
     770:	00000001 	andeq	r0, r0, r1
     774:	01000002 	tsteq	r0, r2
     778:	02445200 	subeq	r5, r4, #0
     77c:	02480000 	subeq	r0, r8, #0
     780:	00010000 	andeq	r0, r1, r0
     784:	00031853 	andeq	r1, r3, r3, asr r8
     788:	00031c00 	andeq	r1, r3, r0, lsl #24
     78c:	53000100 	movwpl	r0, #256	; 0x100
	...
     798:	000000b4 	strheq	r0, [r0], -r4
     79c:	000000b8 	strheq	r0, [r0], -r8
     7a0:	ff0a0004 			; <UNDEFINED> instruction: 0xff0a0004
     7a4:	00b89f02 	adcseq	r9, r8, r2, lsl #30
     7a8:	00bc0000 	adcseq	r0, ip, r0
     7ac:	00010000 	andeq	r0, r1, r0
     7b0:	0000bc54 	andeq	fp, r0, r4, asr ip
     7b4:	0000c000 	andeq	ip, r0, r0
     7b8:	74000300 	strvc	r0, [r0], #-768	; 0x300
     7bc:	00c09f01 	sbceq	r9, r0, r1, lsl #30
     7c0:	00d40000 	sbcseq	r0, r4, r0
     7c4:	00010000 	andeq	r0, r1, r0
     7c8:	00010054 	andeq	r0, r1, r4, asr r0
     7cc:	00010400 	andeq	r0, r1, r0, lsl #8
     7d0:	0a000400 	beq	17d8 <__standby_start+0x17d8>
     7d4:	049f02ff 	ldreq	r0, [pc], #767	; 7dc <__standby_start+0x7dc>
     7d8:	08000001 	stmdaeq	r0, {r0}
     7dc:	01000001 	tsteq	r0, r1
     7e0:	01085400 	tsteq	r8, r0, lsl #8
     7e4:	010c0000 	mrseq	r0, (UNDEF: 12)
     7e8:	00030000 	andeq	r0, r3, r0
     7ec:	0c9f0174 	ldfeqs	f0, [pc], {116}	; 0x74
     7f0:	20000001 	andcs	r0, r0, r1
     7f4:	01000001 	tsteq	r0, r1
     7f8:	01445400 	cmpeq	r4, r0, lsl #8
     7fc:	01480000 	mrseq	r0, (UNDEF: 72)
     800:	00040000 	andeq	r0, r4, r0
     804:	9f02ff0a 	svcls	0x0002ff0a
     808:	00000148 	andeq	r0, r0, r8, asr #2
     80c:	0000014c 	andeq	r0, r0, ip, asr #2
     810:	4c520001 	mrrcmi	0, 0, r0, r2, cr1
     814:	50000001 	andpl	r0, r0, r1
     818:	03000001 	movweq	r0, #1
     81c:	9f017200 	svcls	0x00017200
     820:	00000150 	andeq	r0, r0, r0, asr r1
     824:	00000164 	andeq	r0, r0, r4, ror #2
     828:	90520001 	subsls	r0, r2, r1
     82c:	94000001 	strls	r0, [r0], #-1
     830:	04000001 	streq	r0, [r0], #-1
     834:	02ff0a00 	rscseq	r0, pc, #0
     838:	0001949f 	muleq	r1, pc, r4	; <UNPREDICTABLE>
     83c:	00019800 	andeq	r9, r1, r0, lsl #16
     840:	52000100 	andpl	r0, r0, #0
     844:	00000198 	muleq	r0, r8, r1
     848:	0000019c 	muleq	r0, ip, r1
     84c:	01720003 	cmneq	r2, r3
     850:	00019c9f 	muleq	r1, pc, ip	; <UNPREDICTABLE>
     854:	0001b000 	andeq	fp, r1, r0
     858:	52000100 	andpl	r0, r0, #0
     85c:	000001d8 	ldrdeq	r0, [r0], -r8
     860:	000001dc 	ldrdeq	r0, [r0], -ip
     864:	ff0a0004 			; <UNDEFINED> instruction: 0xff0a0004
     868:	01dc9f02 	bicseq	r9, ip, r2, lsl #30
     86c:	01e00000 	mvneq	r0, r0
     870:	00010000 	andeq	r0, r1, r0
     874:	0001e052 	andeq	lr, r1, r2, asr r0
     878:	0001e400 	andeq	lr, r1, r0, lsl #8
     87c:	72000300 	andvc	r0, r0, #0
     880:	01e49f01 	mvneq	r9, r1, lsl #30
     884:	01f80000 	mvnseq	r0, r0
     888:	00010000 	andeq	r0, r1, r0
     88c:	00021852 	andeq	r1, r2, r2, asr r8
     890:	00021c00 	andeq	r1, r2, r0, lsl #24
     894:	0a000400 	beq	189c <__standby_start+0x189c>
     898:	1c9f02ff 	lfmne	f0, 4, [pc], {255}	; 0xff
     89c:	20000002 	andcs	r0, r0, r2
     8a0:	01000002 	tsteq	r0, r2
     8a4:	02205200 	eoreq	r5, r0, #0
     8a8:	02240000 	eoreq	r0, r4, #0
     8ac:	00030000 	andeq	r0, r3, r0
     8b0:	249f0172 	ldrcs	r0, [pc], #370	; 8b8 <__standby_start+0x8b8>
     8b4:	38000002 	stmdacc	r0, {r1}
     8b8:	01000002 	tsteq	r0, r2
     8bc:	02f45200 	rscseq	r5, r4, #0
     8c0:	02f80000 	rscseq	r0, r8, #0
     8c4:	00040000 	andeq	r0, r4, r0
     8c8:	9f02ff0a 	svcls	0x0002ff0a
     8cc:	000002f8 	strdeq	r0, [r0], -r8
     8d0:	000002fc 	strdeq	r0, [r0], -ip
     8d4:	fc530001 	mrrc2	0, 0, r0, r3, cr1
     8d8:	00000002 	andeq	r0, r0, r2
     8dc:	03000003 	movweq	r0, #3
     8e0:	9f017300 	svcls	0x00017300
     8e4:	00000300 	andeq	r0, r0, r0, lsl #6
     8e8:	00000314 	andeq	r0, r0, r4, lsl r3
     8ec:	00530001 	subseq	r0, r3, r1
     8f0:	00000000 	andeq	r0, r0, r0
     8f4:	80000000 	andhi	r0, r0, r0
     8f8:	5c000000 	stcpl	0, cr0, [r0], {-0}
     8fc:	03000002 	movweq	r0, #2
     900:	9fff0900 	svcls	0x00ff0900
     904:	0000025c 	andeq	r0, r0, ip, asr r2
     908:	000002dc 	ldrdeq	r0, [r0], -ip
     90c:	dc500001 	mrrcle	0, 0, r0, r0, cr1	; <UNPREDICTABLE>
     910:	2c000002 	stccs	0, cr0, [r0], {2}
     914:	03000003 	movweq	r0, #3
     918:	9fff0900 	svcls	0x00ff0900
     91c:	0000032c 	andeq	r0, r0, ip, lsr #6
     920:	00000338 	andeq	r0, r0, r8, lsr r3
     924:	00500001 	subseq	r0, r0, r1
     928:	00000000 	andeq	r0, r0, r0
     92c:	5c000000 	stcpl	0, cr0, [r0], {-0}
     930:	78000002 	stmdavc	r0, {r1}
     934:	04000002 	streq	r0, [r0], #-2
     938:	02ff0a00 	rscseq	r0, pc, #0
     93c:	0002789f 	muleq	r2, pc, r8	; <UNPREDICTABLE>
     940:	00027c00 	andeq	r7, r2, r0, lsl #24
     944:	53000100 	movwpl	r0, #256	; 0x100
     948:	0000027c 	andeq	r0, r0, ip, ror r2
     94c:	00000280 	andeq	r0, r0, r0, lsl #5
     950:	01730003 	cmneq	r3, r3
     954:	0002809f 	muleq	r2, pc, r0	; <UNPREDICTABLE>
     958:	00029400 	andeq	r9, r2, r0, lsl #8
     95c:	53000100 	movwpl	r0, #256	; 0x100
     960:	000002a0 	andeq	r0, r0, r0, lsr #5
     964:	000002a4 	andeq	r0, r0, r4, lsr #5
     968:	a4530001 	ldrbge	r0, [r3], #-1
     96c:	a8000002 	stmdage	r0, {r1}
     970:	03000002 	movweq	r0, #2
     974:	9f017300 	svcls	0x00017300
     978:	000002a8 	andeq	r0, r0, r8, lsr #5
     97c:	000002bc 			; <UNDEFINED> instruction: 0x000002bc
     980:	2c530001 	mrrccs	0, 0, r0, r3, cr1
     984:	30000003 	andcc	r0, r0, r3
     988:	03000003 	movweq	r0, #3
     98c:	9f017300 	svcls	0x00017300
     990:	00000330 	andeq	r0, r0, r0, lsr r3
     994:	00000338 	andeq	r0, r0, r8, lsr r3
     998:	81730004 	cmnhi	r3, r4
     99c:	00009f7a 	andeq	r9, r0, sl, ror pc
     9a0:	00000000 	andeq	r0, r0, r0
     9a4:	00100000 	andseq	r0, r0, r0
     9a8:	00140000 	andseq	r0, r4, r0
     9ac:	00010000 	andeq	r0, r1, r0
     9b0:	00000050 	andeq	r0, r0, r0, asr r0
	...
     9bc:	00000400 	andeq	r0, r0, r0, lsl #8
     9c0:	7d000200 	sfmvc	f0, 4, [r0, #-0]
     9c4:	00000400 	andeq	r0, r0, r0, lsl #8
     9c8:	00002000 	andeq	r2, r0, r0
     9cc:	7d000200 	sfmvc	f0, 4, [r0, #-0]
     9d0:	00000008 	andeq	r0, r0, r8
     9d4:	00000000 	andeq	r0, r0, r0
     9d8:	00007000 	andeq	r7, r0, r0
     9dc:	00007400 	andeq	r7, r0, r0, lsl #8
     9e0:	7d000200 	sfmvc	f0, 4, [r0, #-0]
     9e4:	00007400 	andeq	r7, r0, r0, lsl #8
     9e8:	00010400 	andeq	r0, r1, r0, lsl #8
     9ec:	7d000200 	sfmvc	f0, 4, [r0, #-0]
     9f0:	00000008 	andeq	r0, r0, r8
     9f4:	00000000 	andeq	r0, r0, r0
     9f8:	00007000 	andeq	r7, r0, r0
     9fc:	0000a000 	andeq	sl, r0, r0
     a00:	31000200 	mrscc	r0, R8_usr
     a04:	0000009f 	muleq	r0, pc, r0	; <UNPREDICTABLE>
     a08:	00000000 	andeq	r0, r0, r0
     a0c:	00010800 	andeq	r0, r1, r0, lsl #16
     a10:	00010c00 	andeq	r0, r1, r0, lsl #24
     a14:	7d000200 	sfmvc	f0, 4, [r0, #-0]
     a18:	00010c00 	andeq	r0, r1, r0, lsl #24
     a1c:	00011000 	andeq	r1, r1, r0
     a20:	7d000200 	sfmvc	f0, 4, [r0, #-0]
     a24:	00011008 	andeq	r1, r1, r8
     a28:	00019c00 	andeq	r9, r1, r0, lsl #24
     a2c:	7d000200 	sfmvc	f0, 4, [r0, #-0]
     a30:	00000010 	andeq	r0, r0, r0, lsl r0
     a34:	00000000 	andeq	r0, r0, r0
     a38:	00010800 	andeq	r0, r1, r0, lsl #16
     a3c:	00011c00 	andeq	r1, r1, r0, lsl #24
     a40:	50000100 	andpl	r0, r0, r0, lsl #2
     a44:	0000011c 	andeq	r0, r0, ip, lsl r1
     a48:	0000019c 	muleq	r0, ip, r1
     a4c:	6c910002 	ldcvs	0, cr0, [r1], {2}
	...
     a58:	0000019c 	muleq	r0, ip, r1
     a5c:	000001a0 	andeq	r0, r0, r0, lsr #3
     a60:	007d0002 	rsbseq	r0, sp, r2
     a64:	000001a0 	andeq	r0, r0, r0, lsr #3
     a68:	000001f0 	strdeq	r0, [r0], -r0	; <UNPREDICTABLE>
     a6c:	087d0002 	ldmdaeq	sp!, {r1}^
	...
     a78:	0000019c 	muleq	r0, ip, r1
     a7c:	000001e4 	andeq	r0, r0, r4, ror #3
     a80:	9f300002 	svcls	0x00300002
     a84:	000001e4 	andeq	r0, r0, r4, ror #3
     a88:	000001f0 	strdeq	r0, [r0], -r0	; <UNPREDICTABLE>
     a8c:	5403000c 	strpl	r0, [r3], #-12
     a90:	94f0003d 	ldrbtls	r0, [r0], #61	; 0x3d
     a94:	48244801 	stmdami	r4!, {r0, fp, lr}
     a98:	00009f25 	andeq	r9, r0, r5, lsr #30
     a9c:	00000000 	andeq	r0, r0, r0
     aa0:	01f00000 	mvnseq	r0, r0
     aa4:	01f40000 	mvnseq	r0, r0
     aa8:	00020000 	andeq	r0, r2, r0
     aac:	01f4007d 	mvnseq	r0, sp, ror r0
     ab0:	02680000 	rsbeq	r0, r8, #0
     ab4:	00020000 	andeq	r0, r2, r0
     ab8:	0000107d 	andeq	r1, r0, sp, ror r0
     abc:	00000000 	andeq	r0, r0, r0
     ac0:	01f00000 	mvnseq	r0, r0
     ac4:	02000000 	andeq	r0, r0, #0
     ac8:	00020000 	andeq	r0, r2, r0
     acc:	02349f31 	eorseq	r9, r4, #196	; 0xc4
     ad0:	02400000 	subeq	r0, r0, #0
     ad4:	00010000 	andeq	r0, r1, r0
     ad8:	00000054 	andeq	r0, r0, r4, asr r0
     adc:	00000000 	andeq	r0, r0, r0
     ae0:	0001f000 	andeq	pc, r1, r0
     ae4:	00020000 	andeq	r0, r2, r0
     ae8:	30000200 	andcc	r0, r0, r0, lsl #4
     aec:	0002209f 	muleq	r2, pc, r0	; <UNPREDICTABLE>
     af0:	00023300 	andeq	r3, r2, r0, lsl #6
     af4:	03000c00 	movweq	r0, #3072	; 0xc00
     af8:	f0003d54 			; <UNDEFINED> instruction: 0xf0003d54
     afc:	24480194 	strbcs	r0, [r8], #-404	; 0x194
     b00:	009f2548 	addseq	r2, pc, r8, asr #10
     b04:	00000000 	andeq	r0, r0, r0
     b08:	68000000 	stmdavs	r0, {}	; <UNPREDICTABLE>
     b0c:	6c000002 	stcvs	0, cr0, [r0], {2}
     b10:	02000002 	andeq	r0, r0, #2
     b14:	6c007d00 	stcvs	13, cr7, [r0], {-0}
     b18:	70000002 	andvc	r0, r0, r2
     b1c:	02000002 	andeq	r0, r0, #2
     b20:	700c7d00 	andvc	r7, ip, r0, lsl #26
     b24:	fc000002 	stc2	0, cr0, [r0], {2}
     b28:	02000002 	andeq	r0, r0, #2
     b2c:	00187d00 	andseq	r7, r8, r0, lsl #26
     b30:	00000000 	andeq	r0, r0, r0
     b34:	68000000 	stmdavs	r0, {}	; <UNPREDICTABLE>
     b38:	7c000002 	stcvc	0, cr0, [r0], {2}
     b3c:	01000002 	tsteq	r0, r2
     b40:	027c5000 	rsbseq	r5, ip, #0
     b44:	02fc0000 	rscseq	r0, ip, #0
     b48:	00020000 	andeq	r0, r2, r0
     b4c:	00006491 	muleq	r0, r1, r4
     b50:	00000000 	andeq	r0, r0, r0
     b54:	03440000 	movteq	r0, #16384	; 0x4000
     b58:	03480000 	movteq	r0, #32768	; 0x8000
     b5c:	00020000 	andeq	r0, r2, r0
     b60:	0348007d 	movteq	r0, #32893	; 0x807d
     b64:	03780000 	cmneq	r8, #0
     b68:	00020000 	andeq	r0, r2, r0
     b6c:	0000107d 	andeq	r1, r0, sp, ror r0
     b70:	00000000 	andeq	r0, r0, r0
     b74:	03440000 	movteq	r0, #16384	; 0x4000
     b78:	035c0000 	cmpeq	ip, #0
     b7c:	00010000 	andeq	r0, r1, r0
     b80:	00000050 	andeq	r0, r0, r0, asr r0
     b84:	00000000 	andeq	r0, r0, r0
     b88:	00036000 	andeq	r6, r3, r0
     b8c:	00037000 	andeq	r7, r3, r0
     b90:	56000100 	strpl	r0, [r0], -r0, lsl #2
     b94:	00000370 	andeq	r0, r0, r0, ror r3
     b98:	00000378 	andeq	r0, r0, r8, ror r3
     b9c:	00550001 	subseq	r0, r5, r1
	...
     ba8:	08000000 	stmdaeq	r0, {}	; <UNPREDICTABLE>
     bac:	01000000 	mrseq	r0, (UNDEF: 0)
     bb0:	00005000 	andeq	r5, r0, r0
	...
     bbc:	000c0000 	andeq	r0, ip, r0
     bc0:	00020000 	andeq	r0, r2, r0
     bc4:	000c9f31 	andeq	r9, ip, r1, lsr pc
     bc8:	00140000 	andseq	r0, r4, r0
     bcc:	00010000 	andeq	r0, r1, r0
     bd0:	00001450 	andeq	r1, r0, r0, asr r4
     bd4:	00001800 	andeq	r1, r0, r0, lsl #16
     bd8:	70000500 	andvc	r0, r0, r0, lsl #10
     bdc:	9f214000 	svcls	0x00214000
     be0:	00000018 	andeq	r0, r0, r8, lsl r0
     be4:	0000001c 	andeq	r0, r0, ip, lsl r0
     be8:	1c500001 	mrrcne	0, 0, r0, r0, cr1	; <UNPREDICTABLE>
     bec:	34000000 	strcc	r0, [r0], #-0
     bf0:	06000000 	streq	r0, [r0], -r0
     bf4:	0f049e00 	svceq	0x00049e00
     bf8:	00800000 	addeq	r0, r0, r0
     bfc:	00000000 	andeq	r0, r0, r0
     c00:	7c000000 	stcvc	0, cr0, [r0], {-0}
     c04:	80000000 	andhi	r0, r0, r0
     c08:	02000000 	andeq	r0, r0, #0
     c0c:	809f3000 	addshi	r3, pc, r0
     c10:	84000000 	strhi	r0, [r0], #-0
     c14:	05000000 	streq	r0, [r0, #-0]
     c18:	34007300 	strcc	r7, [r0], #-768	; 0x300
     c1c:	00849f21 	addeq	r9, r4, r1, lsr #30
     c20:	008c0000 	addeq	r0, ip, r0
     c24:	00010000 	andeq	r0, r1, r0
     c28:	00000053 	andeq	r0, r0, r3, asr r0
     c2c:	00000000 	andeq	r0, r0, r0
     c30:	00008c00 	andeq	r8, r0, r0, lsl #24
     c34:	00009000 	andeq	r9, r0, r0
     c38:	7d000200 	sfmvc	f0, 4, [r0, #-0]
     c3c:	00009000 	andeq	r9, r0, r0
     c40:	0000c000 	andeq	ip, r0, r0
     c44:	7d000200 	sfmvc	f0, 4, [r0, #-0]
     c48:	00000008 	andeq	r0, r0, r8
     c4c:	00000000 	andeq	r0, r0, r0
     c50:	00008c00 	andeq	r8, r0, r0, lsl #24
     c54:	00009400 	andeq	r9, r0, r0, lsl #8
     c58:	30000200 	andcc	r0, r0, r0, lsl #4
     c5c:	0000009f 	muleq	r0, pc, r0	; <UNPREDICTABLE>
     c60:	00000000 	andeq	r0, r0, r0
     c64:	00008c00 	andeq	r8, r0, r0, lsl #24
     c68:	00009800 	andeq	r9, r0, r0, lsl #16
     c6c:	30000200 	andcc	r0, r0, r0, lsl #4
     c70:	0000009f 	muleq	r0, pc, r0	; <UNPREDICTABLE>
     c74:	00000000 	andeq	r0, r0, r0
     c78:	00009400 	andeq	r9, r0, r0, lsl #8
     c7c:	0000a400 	andeq	sl, r0, r0, lsl #8
     c80:	52000100 	andpl	r0, r0, #0
	...
     c8c:	00000098 	muleq	r0, r8, r0
     c90:	000000a8 	andeq	r0, r0, r8, lsr #1
     c94:	00530001 	subseq	r0, r3, r1
     c98:	00000000 	andeq	r0, r0, r0
     c9c:	c0000000 	andgt	r0, r0, r0
     ca0:	c4000000 	strgt	r0, [r0], #-0
     ca4:	02000000 	andeq	r0, r0, #0
     ca8:	c4007d00 	strgt	r7, [r0], #-3328	; 0xd00
     cac:	48000000 	stmdami	r0, {}	; <UNPREDICTABLE>
     cb0:	02000001 	andeq	r0, r0, #1
     cb4:	00107d00 	andseq	r7, r0, r0, lsl #26
     cb8:	00000000 	andeq	r0, r0, r0
     cbc:	c0000000 	andgt	r0, r0, r0
     cc0:	d0000000 	andle	r0, r0, r0
     cc4:	01000000 	mrseq	r0, (UNDEF: 0)
     cc8:	00d05000 	sbcseq	r5, r0, r0
     ccc:	00d80000 	sbcseq	r0, r8, r0
     cd0:	00010000 	andeq	r0, r1, r0
     cd4:	0000e455 	andeq	lr, r0, r5, asr r4
     cd8:	0000f800 	andeq	pc, r0, r0, lsl #16
     cdc:	55000100 	strpl	r0, [r0, #-256]	; 0x100
	...
     ce8:	000000c0 	andeq	r0, r0, r0, asr #1
     cec:	000000d8 	ldrdeq	r0, [r0], -r8
     cf0:	9f300002 	svcls	0x00300002
     cf4:	000000e4 	andeq	r0, r0, r4, ror #1
     cf8:	000000ec 	andeq	r0, r0, ip, ror #1
     cfc:	9f300002 	svcls	0x00300002
     d00:	000000ec 	andeq	r0, r0, ip, ror #1
     d04:	000000f8 	strdeq	r0, [r0], -r8
     d08:	01700006 	cmneq	r0, r6
     d0c:	9f1e0075 	svcls	0x001e0075
	...
     d18:	000000c0 	andeq	r0, r0, r0, asr #1
     d1c:	000000d8 	ldrdeq	r0, [r0], -r8
     d20:	9f300002 	svcls	0x00300002
     d24:	000000e4 	andeq	r0, r0, r4, ror #1
     d28:	000000f0 	strdeq	r0, [r0], -r0	; <UNPREDICTABLE>
     d2c:	9f300002 	svcls	0x00300002
     d30:	0000012c 	andeq	r0, r0, ip, lsr #2
     d34:	00000130 	andeq	r0, r0, r0, lsr r1
     d38:	34530001 	ldrbcc	r0, [r3], #-1
     d3c:	38000001 	stmdacc	r0, {r0}
     d40:	01000001 	tsteq	r0, r1
     d44:	00005300 	andeq	r5, r0, r0, lsl #6
     d48:	00000000 	andeq	r0, r0, r0
     d4c:	00c00000 	sbceq	r0, r0, r0
     d50:	00d80000 	sbcseq	r0, r8, r0
     d54:	00020000 	andeq	r0, r2, r0
     d58:	00e49f30 	rsceq	r9, r4, r0, lsr pc
     d5c:	01000000 	mrseq	r0, (UNDEF: 0)
     d60:	00020000 	andeq	r0, r2, r0
     d64:	01009f30 	tsteq	r0, r0, lsr pc
     d68:	01480000 	mrseq	r0, (UNDEF: 72)
     d6c:	00010000 	andeq	r0, r1, r0
     d70:	00000055 	andeq	r0, r0, r5, asr r0
     d74:	00000000 	andeq	r0, r0, r0
     d78:	0000c000 	andeq	ip, r0, r0
     d7c:	0000d800 	andeq	sp, r0, r0, lsl #16
     d80:	30000200 	andcc	r0, r0, r0, lsl #4
     d84:	0000e49f 	muleq	r0, pc, r4	; <UNPREDICTABLE>
     d88:	00010400 	andeq	r0, r1, r0, lsl #8
     d8c:	30000200 	andcc	r0, r0, r0, lsl #4
     d90:	0001049f 	muleq	r1, pc, r4	; <UNPREDICTABLE>
     d94:	00010800 	andeq	r0, r1, r0, lsl #16
     d98:	52000100 	andpl	r0, r0, #0
	...
     da4:	00000110 	andeq	r0, r0, r0, lsl r1
     da8:	00000130 	andeq	r0, r0, r0, lsr r1
     dac:	9f300002 	svcls	0x00300002
	...
     db8:	00000110 	andeq	r0, r0, r0, lsl r1
     dbc:	00000130 	andeq	r0, r0, r0, lsr r1
     dc0:	9f310002 	svcls	0x00310002
	...
     dcc:	00000110 	andeq	r0, r0, r0, lsl r1
     dd0:	00000118 	andeq	r0, r0, r8, lsl r1
     dd4:	9f470002 	svcls	0x00470002
     dd8:	00000118 	andeq	r0, r0, r8, lsl r1
     ddc:	00000130 	andeq	r0, r0, r0, lsr r1
     de0:	049e0006 	ldreq	r0, [lr], #6
     de4:	8000000f 	andhi	r0, r0, pc
	...
     df0:	00000134 	andeq	r0, r0, r4, lsr r1
     df4:	00000138 	andeq	r0, r0, r8, lsr r1
     df8:	00530001 	subseq	r0, r3, r1
     dfc:	00000000 	andeq	r0, r0, r0
     e00:	48000000 	stmdami	r0, {}	; <UNPREDICTABLE>
     e04:	50000001 	andpl	r0, r0, r1
     e08:	02000001 	andeq	r0, r0, #1
     e0c:	50007d00 	andpl	r7, r0, r0, lsl #26
     e10:	7c000001 	stcvc	0, cr0, [r0], {1}
     e14:	02000001 	andeq	r0, r0, #1
     e18:	00087d00 	andeq	r7, r8, r0, lsl #26
     e1c:	00000000 	andeq	r0, r0, r0
     e20:	48000000 	stmdami	r0, {}	; <UNPREDICTABLE>
     e24:	58000001 	stmdapl	r0, {r0}
     e28:	01000001 	tsteq	r0, r1
     e2c:	01585000 	cmpeq	r8, r0
     e30:	01600000 	cmneq	r0, r0
     e34:	00010000 	andeq	r0, r1, r0
     e38:	00016054 	andeq	r6, r1, r4, asr r0
     e3c:	00016400 	andeq	r6, r1, r0, lsl #8
     e40:	74000300 	strvc	r0, [r0], #-768	; 0x300
     e44:	01649f0a 	cmneq	r4, sl, lsl #30
     e48:	017c0000 	cmneq	ip, r0
     e4c:	00010000 	andeq	r0, r1, r0
     e50:	00000054 	andeq	r0, r0, r4, asr r0
     e54:	00000000 	andeq	r0, r0, r0
     e58:	00017c00 	andeq	r7, r1, r0, lsl #24
     e5c:	00018400 	andeq	r8, r1, r0, lsl #8
     e60:	50000100 	andpl	r0, r0, r0, lsl #2
	...
     e6c:	0000017c 	andeq	r0, r0, ip, ror r1
     e70:	00000188 	andeq	r0, r0, r8, lsl #3
     e74:	9f310002 	svcls	0x00310002
     e78:	00000188 	andeq	r0, r0, r8, lsl #3
     e7c:	00000190 	muleq	r0, r0, r1
     e80:	90500001 	subsls	r0, r0, r1
     e84:	94000001 	strls	r0, [r0], #-1
     e88:	05000001 	streq	r0, [r0, #-1]
     e8c:	40007000 	andmi	r7, r0, r0
     e90:	01949f21 	orrseq	r9, r4, r1, lsr #30
     e94:	01980000 	orrseq	r0, r8, r0
     e98:	00010000 	andeq	r0, r1, r0
     e9c:	00019850 	andeq	r9, r1, r0, asr r8
     ea0:	0001a800 	andeq	sl, r1, r0, lsl #16
     ea4:	9e000600 	cfmadd32ls	mvax0, mvfx0, mvfx0, mvfx0
     ea8:	00000f04 	andeq	r0, r0, r4, lsl #30
     eac:	00000080 	andeq	r0, r0, r0, lsl #1
     eb0:	00000000 	andeq	r0, r0, r0
     eb4:	0001a800 	andeq	sl, r1, r0, lsl #16
     eb8:	0001b800 	andeq	fp, r1, r0, lsl #16
     ebc:	30000200 	andcc	r0, r0, r0, lsl #4
     ec0:	0000009f 	muleq	r0, pc, r0	; <UNPREDICTABLE>
     ec4:	00000000 	andeq	r0, r0, r0
     ec8:	0001d400 	andeq	sp, r1, r0, lsl #8
     ecc:	0001d800 	andeq	sp, r1, r0, lsl #16
     ed0:	50000100 	andpl	r0, r0, r0, lsl #2
     ed4:	000001f0 	strdeq	r0, [r0], -r0	; <UNPREDICTABLE>
     ed8:	00000200 	andeq	r0, r0, r0, lsl #4
     edc:	02700003 	rsbseq	r0, r0, #3
     ee0:	0000009f 	muleq	r0, pc, r0	; <UNPREDICTABLE>
     ee4:	00000000 	andeq	r0, r0, r0
     ee8:	0001d400 	andeq	sp, r1, r0, lsl #8
     eec:	0001e800 	andeq	lr, r1, r0, lsl #16
     ef0:	30000200 	andcc	r0, r0, r0, lsl #4
     ef4:	0001e89f 	muleq	r1, pc, r8	; <UNPREDICTABLE>
     ef8:	00020000 	andeq	r0, r2, r0
     efc:	53000100 	movwpl	r0, #256	; 0x100
	...
     f08:	000001d4 	ldrdeq	r0, [r0], -r4
     f0c:	000001f0 	strdeq	r0, [r0], -r0	; <UNPREDICTABLE>
     f10:	9f300002 	svcls	0x00300002
     f14:	000001f0 	strdeq	r0, [r0], -r0	; <UNPREDICTABLE>
     f18:	00000200 	andeq	r0, r0, r0, lsl #4
     f1c:	00500001 	subseq	r0, r0, r1
     f20:	00000000 	andeq	r0, r0, r0
     f24:	d4000000 	strle	r0, [r0], #-0
     f28:	d8000001 	stmdale	r0, {r0}
     f2c:	01000001 	tsteq	r0, r1
     f30:	01d85000 	bicseq	r5, r8, r0
     f34:	02000000 	andeq	r0, r0, #0
     f38:	00030000 	andeq	r0, r3, r0
     f3c:	009f0270 	addseq	r0, pc, r0, ror r2	; <UNPREDICTABLE>
	...
     f48:	04000000 	streq	r0, [r0], #-0
     f4c:	02000000 	andeq	r0, r0, #0
     f50:	04007d00 	streq	r7, [r0], #-3328	; 0xd00
     f54:	a8000000 	stmdage	r0, {}	; <UNPREDICTABLE>
     f58:	02000000 	andeq	r0, r0, #0
     f5c:	00107d00 	andseq	r7, r0, r0, lsl #26
	...
     f68:	0f000000 	svceq	0x00000000
     f6c:	01000000 	mrseq	r0, (UNDEF: 0)
     f70:	000f5000 	andeq	r5, pc, r0
     f74:	00a80000 	adceq	r0, r8, r0
     f78:	00010000 	andeq	r0, r1, r0
     f7c:	00000054 	andeq	r0, r0, r4, asr r0
	...
     f88:	00000f00 	andeq	r0, r0, r0, lsl #30
     f8c:	51000100 	mrspl	r0, (UNDEF: 16)
     f90:	0000000f 	andeq	r0, r0, pc
     f94:	000000a8 	andeq	r0, r0, r8, lsr #1
     f98:	00550001 	subseq	r0, r5, r1
	...
     fa4:	48000000 	stmdami	r0, {}	; <UNPREDICTABLE>
     fa8:	02000000 	andeq	r0, r0, #0
     fac:	489f3000 	ldmmi	pc, {ip, sp}	; <UNPREDICTABLE>
     fb0:	7c000000 	stcvc	0, cr0, [r0], {-0}
     fb4:	01000000 	mrseq	r0, (UNDEF: 0)
     fb8:	007c5300 	rsbseq	r5, ip, r0, lsl #6
     fbc:	009c0000 	addseq	r0, ip, r0
     fc0:	00020000 	andeq	r0, r2, r0
     fc4:	00a09f30 	adceq	r9, r0, r0, lsr pc
     fc8:	00a80000 	adceq	r0, r8, r0
     fcc:	00060000 	andeq	r0, r6, r0
     fd0:	08b4049e 	ldmeq	r4!, {r1, r2, r3, r4, r7, sl}
     fd4:	0000f1c2 	andeq	pc, r0, r2, asr #3
	...
     fe0:	00480000 	subeq	r0, r8, r0
     fe4:	00020000 	andeq	r0, r2, r0
     fe8:	007c9f30 	rsbseq	r9, ip, r0, lsr pc
     fec:	00a80000 	adceq	r0, r8, r0
     ff0:	00020000 	andeq	r0, r2, r0
     ff4:	00009f30 	andeq	r9, r0, r0, lsr pc
	...
    1000:	00480000 	subeq	r0, r8, r0
    1004:	00020000 	andeq	r0, r2, r0
    1008:	00489f30 	subeq	r9, r8, r0, lsr pc
    100c:	006c0000 	rsbeq	r0, ip, r0
    1010:	00010000 	andeq	r0, r1, r0
    1014:	00007c52 	andeq	r7, r0, r2, asr ip
    1018:	0000a800 	andeq	sl, r0, r0, lsl #16
    101c:	30000200 	andcc	r0, r0, r0, lsl #4
    1020:	0000009f 	muleq	r0, pc, r0	; <UNPREDICTABLE>
    1024:	00000000 	andeq	r0, r0, r0
    1028:	0000a800 	andeq	sl, r0, r0, lsl #16
    102c:	0000ac00 	andeq	sl, r0, r0, lsl #24
    1030:	7d000200 	sfmvc	f0, 4, [r0, #-0]
    1034:	0000ac00 	andeq	sl, r0, r0, lsl #24
    1038:	00015400 	andeq	r5, r1, r0, lsl #8
    103c:	7d000200 	sfmvc	f0, 4, [r0, #-0]
    1040:	00000010 	andeq	r0, r0, r0, lsl r0
    1044:	00000000 	andeq	r0, r0, r0
    1048:	0000a800 	andeq	sl, r0, r0, lsl #16
    104c:	0000b300 	andeq	fp, r0, r0, lsl #6
    1050:	50000100 	andpl	r0, r0, r0, lsl #2
    1054:	000000b3 	strheq	r0, [r0], -r3
    1058:	000000e8 	andeq	r0, r0, r8, ror #1
    105c:	00540001 	subseq	r0, r4, r1
    1060:	00000000 	andeq	r0, r0, r0
    1064:	a8000000 	stmdage	r0, {}	; <UNPREDICTABLE>
    1068:	cc000000 	stcgt	0, cr0, [r0], {-0}
    106c:	02000000 	andeq	r0, r0, #0
    1070:	cc9f3000 	ldcgt	0, cr3, [pc], {0}
    1074:	df000000 	svcle	0x00000000
    1078:	01000000 	mrseq	r0, (UNDEF: 0)
    107c:	00005000 	andeq	r5, r0, r0
    1080:	00000000 	andeq	r0, r0, r0
    1084:	00a80000 	adceq	r0, r8, r0
    1088:	00fc0000 	rscseq	r0, ip, r0
    108c:	00020000 	andeq	r0, r2, r0
    1090:	00fc9f30 	rscseq	r9, ip, r0, lsr pc
    1094:	01230000 	teqeq	r3, r0
    1098:	00010000 	andeq	r0, r1, r0
    109c:	00012350 	andeq	r2, r1, r0, asr r3
    10a0:	00015400 	andeq	r5, r1, r0, lsl #8
    10a4:	55000100 	strpl	r0, [r0, #-256]	; 0x100
	...
    10b0:	000000a8 	andeq	r0, r0, r8, lsr #1
    10b4:	00000108 	andeq	r0, r0, r8, lsl #2
    10b8:	9f300002 	svcls	0x00300002
    10bc:	00000108 	andeq	r0, r0, r8, lsl #2
    10c0:	0000012c 	andeq	r0, r0, ip, lsr #2
    10c4:	d80c0006 	stmdale	ip, {r1, r2}
    10c8:	9f01c202 	svcls	0x0001c202
    10cc:	0000012c 	andeq	r0, r0, ip, lsr #2
    10d0:	00000154 	andeq	r0, r0, r4, asr r1
    10d4:	6c0c0006 	stcvs	0, cr0, [ip], {6}
    10d8:	9f01c200 	svcls	0x0001c200
	...
    10e4:	000000a8 	andeq	r0, r0, r8, lsr #1
    10e8:	000000b4 	strheq	r0, [r0], -r4
    10ec:	9f300002 	svcls	0x00300002
    10f0:	000000b4 	strheq	r0, [r0], -r4
    10f4:	000000c8 	andeq	r0, r0, r8, asr #1
    10f8:	00500001 	subseq	r0, r0, r1
    10fc:	00000000 	andeq	r0, r0, r0
    1100:	b8000000 	stmdalt	r0, {}	; <UNPREDICTABLE>
    1104:	d8000000 	stmdale	r0, {}	; <UNPREDICTABLE>
    1108:	01000000 	mrseq	r0, (UNDEF: 0)
    110c:	00005300 	andeq	r5, r0, r0, lsl #6
    1110:	00000000 	andeq	r0, r0, r0
    1114:	01940000 	orrseq	r0, r4, r0
    1118:	01980000 	orrseq	r0, r8, r0
    111c:	00020000 	andeq	r0, r2, r0
    1120:	0198007d 	orrseq	r0, r8, sp, ror r0
    1124:	02180000 	andseq	r0, r8, #0
    1128:	00020000 	andeq	r0, r2, r0
    112c:	0000107d 	andeq	r1, r0, sp, ror r0
    1130:	00000000 	andeq	r0, r0, r0
    1134:	01940000 	orrseq	r0, r4, r0
    1138:	01a00000 	moveq	r0, r0
    113c:	00010000 	andeq	r0, r1, r0
    1140:	0001a050 	andeq	sl, r1, r0, asr r0
    1144:	0001a300 	andeq	sl, r1, r0, lsl #6
    1148:	51000100 	mrspl	r0, (UNDEF: 16)
	...
    1154:	00000194 	muleq	r0, r4, r1
    1158:	000001c0 	andeq	r0, r0, r0, asr #3
    115c:	9f300002 	svcls	0x00300002
    1160:	000001c0 	andeq	r0, r0, r0, asr #3
    1164:	000001e8 	andeq	r0, r0, r8, ror #3
    1168:	00730005 	rsbseq	r0, r3, r5
    116c:	009f2544 	addseq	r2, pc, r4, asr #10
    1170:	00000000 	andeq	r0, r0, r0
    1174:	94000000 	strls	r0, [r0], #-0
    1178:	c8000001 	stmdagt	r0, {r0}
    117c:	02000001 	andeq	r0, r0, #1
    1180:	c89f3000 	ldmgt	pc, {ip, sp}	; <UNPREDICTABLE>
    1184:	e0000001 	and	r0, r0, r1
    1188:	01000001 	tsteq	r0, r1
    118c:	00005000 	andeq	r5, r0, r0
    1190:	00000000 	andeq	r0, r0, r0
    1194:	01940000 	orrseq	r0, r4, r0
    1198:	01ac0000 			; <UNDEFINED> instruction: 0x01ac0000
    119c:	00020000 	andeq	r0, r2, r0
    11a0:	01ac9f30 			; <UNDEFINED> instruction: 0x01ac9f30
    11a4:	01b40000 			; <UNDEFINED> instruction: 0x01b40000
    11a8:	00010000 	andeq	r0, r1, r0
    11ac:	0001b450 	andeq	fp, r1, r0, asr r4
    11b0:	0001c800 	andeq	ip, r1, r0, lsl #16
    11b4:	70000500 	andvc	r0, r0, r0, lsl #10
    11b8:	9f47e080 	svcls	0x0047e080
	...
    11c4:	00000218 	andeq	r0, r0, r8, lsl r2
    11c8:	00000220 	andeq	r0, r0, r0, lsr #4
    11cc:	007d0002 	rsbseq	r0, sp, r2
    11d0:	00000220 	andeq	r0, r0, r0, lsr #4
    11d4:	000002c8 	andeq	r0, r0, r8, asr #5
    11d8:	047d0002 	ldrbteq	r0, [sp], #-2
	...
    11e4:	00000218 	andeq	r0, r0, r8, lsl r2
    11e8:	0000022c 	andeq	r0, r0, ip, lsr #4
    11ec:	30500001 	subscc	r0, r0, r1
    11f0:	44000002 	strmi	r0, [r0], #-2
    11f4:	01000002 	tsteq	r0, r2
    11f8:	02445000 	subeq	r5, r4, #0
    11fc:	024c0000 	subeq	r0, ip, #0
    1200:	00030000 	andeq	r0, r3, r0
    1204:	009f0170 	addseq	r0, pc, r0, ror r1	; <UNPREDICTABLE>
    1208:	00000000 	andeq	r0, r0, r0
    120c:	58000000 	stmdapl	r0, {}	; <UNPREDICTABLE>
    1210:	8c000002 	stchi	0, cr0, [r0], {2}
    1214:	01000002 	tsteq	r0, r2
    1218:	00005c00 	andeq	r5, r0, r0, lsl #24
    121c:	00000000 	andeq	r0, r0, r0
    1220:	02c80000 	sbceq	r0, r8, #0
    1224:	02d00000 	sbcseq	r0, r0, #0
    1228:	00020000 	andeq	r0, r2, r0
    122c:	02d0007d 	sbcseq	r0, r0, #125	; 0x7d
    1230:	03540000 	cmpeq	r4, #0
    1234:	00020000 	andeq	r0, r2, r0
    1238:	0000047d 	andeq	r0, r0, sp, ror r4
    123c:	00000000 	andeq	r0, r0, r0
    1240:	02c80000 	sbceq	r0, r8, #0
    1244:	02dc0000 	sbcseq	r0, ip, #0
    1248:	00010000 	andeq	r0, r1, r0
    124c:	00000050 	andeq	r0, r0, r0, asr r0
    1250:	00000000 	andeq	r0, r0, r0
    1254:	0002c800 	andeq	ip, r2, r0, lsl #16
    1258:	0002e000 	andeq	lr, r2, r0
    125c:	30000200 	andcc	r0, r0, r0, lsl #4
    1260:	0002e89f 	muleq	r2, pc, r8	; <UNPREDICTABLE>
    1264:	00030000 	andeq	r0, r3, r0
    1268:	30000200 	andcc	r0, r0, r0, lsl #4
    126c:	0003449f 	muleq	r3, pc, r4	; <UNPREDICTABLE>
    1270:	00035400 	andeq	r5, r3, r0, lsl #8
    1274:	54000100 	strpl	r0, [r0], #-256	; 0x100
	...
    1280:	000002c8 	andeq	r0, r0, r8, asr #5
    1284:	000002e0 	andeq	r0, r0, r0, ror #5
    1288:	9f300002 	svcls	0x00300002
    128c:	000002e8 	andeq	r0, r0, r8, ror #5
    1290:	00000300 	andeq	r0, r0, r0, lsl #6
    1294:	9f300002 	svcls	0x00300002
	...
    12a0:	00000308 	andeq	r0, r0, r8, lsl #6
    12a4:	0000030c 	andeq	r0, r0, ip, lsl #6
    12a8:	0c530001 	mrrceq	0, 0, r0, r3, cr1
    12ac:	10000003 	andne	r0, r0, r3
    12b0:	03000003 	movweq	r0, #3
    12b4:	9f017300 	svcls	0x00017300
    12b8:	00000310 	andeq	r0, r0, r0, lsl r3
    12bc:	00000324 	andeq	r0, r0, r4, lsr #6
    12c0:	00530001 	subseq	r0, r3, r1
    12c4:	00000000 	andeq	r0, r0, r0
    12c8:	7c000000 	stcvc	0, cr0, [r0], {-0}
    12cc:	80000003 	andhi	r0, r0, r3
    12d0:	02000003 	andeq	r0, r0, #3
    12d4:	80007d00 	andhi	r7, r0, r0, lsl #26
    12d8:	08000003 	stmdaeq	r0, {r0, r1}
    12dc:	02000004 	andeq	r0, r0, #4
    12e0:	00107d00 	andseq	r7, r0, r0, lsl #26
    12e4:	00000000 	andeq	r0, r0, r0
    12e8:	7c000000 	stcvc	0, cr0, [r0], {-0}
    12ec:	94000003 	strls	r0, [r0], #-3
    12f0:	01000003 	tsteq	r0, r3
    12f4:	03945000 	orrseq	r5, r4, #0
    12f8:	039b0000 	orrseq	r0, fp, #0
    12fc:	00010000 	andeq	r0, r1, r0
    1300:	00000051 	andeq	r0, r0, r1, asr r0
    1304:	00000000 	andeq	r0, r0, r0
    1308:	00037c00 	andeq	r7, r3, r0, lsl #24
    130c:	0003a400 	andeq	sl, r3, r0, lsl #8
    1310:	30000200 	andcc	r0, r0, r0, lsl #4
    1314:	0003a49f 	muleq	r3, pc, r4	; <UNPREDICTABLE>
    1318:	0003ac00 	andeq	sl, r3, r0, lsl #24
    131c:	50000100 	andpl	r0, r0, r0, lsl #2
    1320:	000003ac 	andeq	r0, r0, ip, lsr #7
    1324:	000003c0 	andeq	r0, r0, r0, asr #7
    1328:	80700005 	rsbshi	r0, r0, r5
    132c:	009f47e0 	addseq	r4, pc, r0, ror #15
    1330:	00000000 	andeq	r0, r0, r0
    1334:	7c000000 	stcvc	0, cr0, [r0], {-0}
    1338:	b8000003 	stmdalt	r0, {r0, r1}
    133c:	02000003 	andeq	r0, r0, #3
    1340:	b89f3000 	ldmlt	pc, {ip, sp}	; <UNPREDICTABLE>
    1344:	d8000003 	stmdale	r0, {r0, r1}
    1348:	05000003 	streq	r0, [r0, #-3]
    134c:	44007300 	strmi	r7, [r0], #-768	; 0x300
    1350:	00009f25 	andeq	r9, r0, r5, lsr #30
    1354:	00000000 	andeq	r0, r0, r0
    1358:	037c0000 	cmneq	ip, #0
    135c:	03c00000 	biceq	r0, r0, #0
    1360:	00020000 	andeq	r0, r2, r0
    1364:	03c09f30 	biceq	r9, r0, #192	; 0xc0
    1368:	03d00000 	bicseq	r0, r0, #0
    136c:	00010000 	andeq	r0, r1, r0
    1370:	00000050 	andeq	r0, r0, r0, asr r0
    1374:	00000000 	andeq	r0, r0, r0
    1378:	00040800 	andeq	r0, r4, r0, lsl #16
    137c:	00041000 	andeq	r1, r4, r0
    1380:	7d000200 	sfmvc	f0, 4, [r0, #-0]
    1384:	00041000 	andeq	r1, r4, r0
    1388:	0004b800 	andeq	fp, r4, r0, lsl #16
    138c:	7d000200 	sfmvc	f0, 4, [r0, #-0]
    1390:	00000004 	andeq	r0, r0, r4
    1394:	00000000 	andeq	r0, r0, r0
    1398:	00040800 	andeq	r0, r4, r0, lsl #16
    139c:	00041c00 	andeq	r1, r4, r0, lsl #24
    13a0:	50000100 	andpl	r0, r0, r0, lsl #2
    13a4:	00000420 	andeq	r0, r0, r0, lsr #8
    13a8:	00000434 	andeq	r0, r0, r4, lsr r4
    13ac:	34500001 	ldrbcc	r0, [r0], #-1
    13b0:	3c000004 	stccc	0, cr0, [r0], {4}
    13b4:	03000004 	movweq	r0, #4
    13b8:	9f017000 	svcls	0x00017000
	...
    13c4:	00000448 	andeq	r0, r0, r8, asr #8
    13c8:	0000047c 	andeq	r0, r0, ip, ror r4
    13cc:	005c0001 	subseq	r0, ip, r1
    13d0:	00000000 	andeq	r0, r0, r0
    13d4:	b8000000 	stmdalt	r0, {}	; <UNPREDICTABLE>
    13d8:	c0000004 	andgt	r0, r0, r4
    13dc:	02000004 	andeq	r0, r0, #4
    13e0:	c0007d00 	andgt	r7, r0, r0, lsl #26
    13e4:	44000004 	strmi	r0, [r0], #-4
    13e8:	02000005 	andeq	r0, r0, #5
    13ec:	00047d00 	andeq	r7, r4, r0, lsl #26
    13f0:	00000000 	andeq	r0, r0, r0
    13f4:	b8000000 	stmdalt	r0, {}	; <UNPREDICTABLE>
    13f8:	cc000004 	stcgt	0, cr0, [r0], {4}
    13fc:	01000004 	tsteq	r0, r4
    1400:	00005000 	andeq	r5, r0, r0
    1404:	00000000 	andeq	r0, r0, r0
    1408:	04b80000 	ldrteq	r0, [r8], #0
    140c:	04d00000 	ldrbeq	r0, [r0], #0
    1410:	00020000 	andeq	r0, r2, r0
    1414:	04d89f30 	ldrbeq	r9, [r8], #3888	; 0xf30
    1418:	04f00000 	ldrbteq	r0, [r0], #0
    141c:	00020000 	andeq	r0, r2, r0
    1420:	05349f30 	ldreq	r9, [r4, #-3888]!	; 0xf30
    1424:	05440000 	strbeq	r0, [r4, #-0]
    1428:	00010000 	andeq	r0, r1, r0
    142c:	00000054 	andeq	r0, r0, r4, asr r0
    1430:	00000000 	andeq	r0, r0, r0
    1434:	0004b800 	andeq	fp, r4, r0, lsl #16
    1438:	0004d000 	andeq	sp, r4, r0
    143c:	30000200 	andcc	r0, r0, r0, lsl #4
    1440:	0004d89f 	muleq	r4, pc, r8	; <UNPREDICTABLE>
    1444:	0004f000 	andeq	pc, r4, r0
    1448:	30000200 	andcc	r0, r0, r0, lsl #4
    144c:	0000009f 	muleq	r0, pc, r0	; <UNPREDICTABLE>
    1450:	00000000 	andeq	r0, r0, r0
    1454:	0004f800 	andeq	pc, r4, r0, lsl #16
    1458:	0004fc00 	andeq	pc, r4, r0, lsl #24
    145c:	53000100 	movwpl	r0, #256	; 0x100
    1460:	000004fc 	strdeq	r0, [r0], -ip
    1464:	00000500 	andeq	r0, r0, r0, lsl #10
    1468:	01730003 	cmneq	r3, r3
    146c:	0005009f 	muleq	r5, pc, r0	; <UNPREDICTABLE>
    1470:	00051400 	andeq	r1, r5, r0, lsl #8
    1474:	53000100 	movwpl	r0, #256	; 0x100
	...
    1484:	00000004 	andeq	r0, r0, r4
    1488:	007d0002 	rsbseq	r0, sp, r2
    148c:	00000004 	andeq	r0, r0, r4
    1490:	0000001c 	andeq	r0, r0, ip, lsl r0
    1494:	1c7d0002 	ldclne	0, cr0, [sp], #-8
    1498:	0000001c 	andeq	r0, r0, ip, lsl r0
    149c:	000000bc 	strheq	r0, [r0], -ip
    14a0:	c87d0003 	ldmdagt	sp!, {r0, r1}^
	...
    14b0:	00002c00 	andeq	r2, r0, r0, lsl #24
    14b4:	50000100 	andpl	r0, r0, r0, lsl #2
    14b8:	0000002c 	andeq	r0, r0, ip, lsr #32
    14bc:	0000004c 	andeq	r0, r0, ip, asr #32
    14c0:	4c540001 	mrrcmi	0, 0, r0, r4, cr1
    14c4:	50000000 	andpl	r0, r0, r0
    14c8:	01000000 	mrseq	r0, (UNDEF: 0)
    14cc:	00785000 	rsbseq	r5, r8, r0
    14d0:	00ac0000 	adceq	r0, ip, r0
    14d4:	00010000 	andeq	r0, r1, r0
    14d8:	00000050 	andeq	r0, r0, r0, asr r0
	...
    14e4:	00002c00 	andeq	r2, r0, r0, lsl #24
    14e8:	51000100 	mrspl	r0, (UNDEF: 16)
    14ec:	0000002c 	andeq	r0, r0, ip, lsr #32
    14f0:	000000bc 	strheq	r0, [r0], -ip
    14f4:	00570001 	subseq	r0, r7, r1
	...
    1500:	2c000000 	stccs	0, cr0, [r0], {-0}
    1504:	01000000 	mrseq	r0, (UNDEF: 0)
    1508:	002c5200 	eoreq	r5, ip, r0, lsl #4
    150c:	00bc0000 	adcseq	r0, ip, r0
    1510:	00010000 	andeq	r0, r1, r0
    1514:	00000055 	andeq	r0, r0, r5, asr r0
    1518:	00000000 	andeq	r0, r0, r0
    151c:	00004c00 	andeq	r4, r0, r0, lsl #24
    1520:	00005000 	andeq	r5, r0, r0
    1524:	53000100 	movwpl	r0, #256	; 0x100
    1528:	00000080 	andeq	r0, r0, r0, lsl #1
    152c:	00000084 	andeq	r0, r0, r4, lsl #1
    1530:	84530001 	ldrbhi	r0, [r3], #-1
    1534:	90000000 	andls	r0, r0, r0
    1538:	01000000 	mrseq	r0, (UNDEF: 0)
    153c:	00005800 	andeq	r5, r0, r0, lsl #16
    1540:	00000000 	andeq	r0, r0, r0
    1544:	00840000 	addeq	r0, r4, r0
    1548:	00900000 	addseq	r0, r0, r0
    154c:	00020000 	andeq	r0, r2, r0
    1550:	00009f30 	andeq	r9, r0, r0, lsr pc
    1554:	00000000 	andeq	r0, r0, r0
    1558:	00bc0000 	adcseq	r0, ip, r0
    155c:	00c00000 	sbceq	r0, r0, r0
    1560:	00020000 	andeq	r0, r2, r0
    1564:	00c0007d 	sbceq	r0, r0, sp, ror r0
    1568:	00d80000 	sbcseq	r0, r8, r0
    156c:	00020000 	andeq	r0, r2, r0
    1570:	00d8107d 	sbcseq	r1, r8, sp, ror r0
    1574:	01640000 	cmneq	r4, r0
    1578:	00020000 	andeq	r0, r2, r0
    157c:	0000287d 	andeq	r2, r0, sp, ror r8
    1580:	00000000 	andeq	r0, r0, r0
    1584:	00bc0000 	adcseq	r0, ip, r0
    1588:	00e00000 	rsceq	r0, r0, r0
    158c:	00010000 	andeq	r0, r1, r0
    1590:	0000e050 	andeq	lr, r0, r0, asr r0
    1594:	00011400 	andeq	r1, r1, r0, lsl #8
    1598:	55000100 	strpl	r0, [r0, #-256]	; 0x100
	...
    15a4:	000000bc 	strheq	r0, [r0], -ip
    15a8:	000000e0 	andeq	r0, r0, r0, ror #1
    15ac:	e0510001 	subs	r0, r1, r1
    15b0:	64000000 	strvs	r0, [r0], #-0
    15b4:	01000001 	tsteq	r0, r1
    15b8:	00005700 	andeq	r5, r0, r0, lsl #14
    15bc:	00000000 	andeq	r0, r0, r0
    15c0:	00bc0000 	adcseq	r0, ip, r0
    15c4:	00e00000 	rsceq	r0, r0, r0
    15c8:	00010000 	andeq	r0, r1, r0
    15cc:	0000e052 	andeq	lr, r0, r2, asr r0
    15d0:	00016400 	andeq	r6, r1, r0, lsl #8
    15d4:	56000100 	strpl	r0, [r0], -r0, lsl #2
	...
    15e0:	00000100 	andeq	r0, r0, r0, lsl #2
    15e4:	00000130 	andeq	r0, r0, r0, lsr r1
    15e8:	30500001 	subscc	r0, r0, r1
    15ec:	48000001 	stmdami	r0, {r0}
    15f0:	01000001 	tsteq	r0, r1
    15f4:	01485100 	mrseq	r5, (UNDEF: 88)
    15f8:	014c0000 	mrseq	r0, (UNDEF: 76)
    15fc:	00030000 	andeq	r0, r3, r0
    1600:	4c9f7f71 	ldcmi	15, cr7, [pc], {113}	; 0x71
    1604:	54000001 	strpl	r0, [r0], #-1
    1608:	01000001 	tsteq	r0, r1
    160c:	00005100 	andeq	r5, r0, r0, lsl #2
    1610:	00000000 	andeq	r0, r0, r0
    1614:	01000000 	mrseq	r0, (UNDEF: 0)
    1618:	012c0000 	teqeq	ip, r0
    161c:	00030000 	andeq	r0, r3, r0
    1620:	2c9f707c 	ldccs	0, cr7, [pc], {124}	; 0x7c
    1624:	30000001 	andcc	r0, r0, r1
    1628:	03000001 	movweq	r0, #1
    162c:	9f549100 	svcls	0x00549100
	...
    1638:	00000100 	andeq	r0, r0, r0, lsl #2
    163c:	00000114 	andeq	r0, r0, r4, lsl r1
    1640:	14550001 	ldrbne	r0, [r5], #-1
    1644:	18000001 	stmdane	r0, {r0}
    1648:	01000001 	tsteq	r0, r1
    164c:	01185300 	tsteq	r8, r0, lsl #6
    1650:	01200000 	teqeq	r0, r0
    1654:	00010000 	andeq	r0, r1, r0
    1658:	00012055 	andeq	r2, r1, r5, asr r0
    165c:	00012800 	andeq	r2, r1, r0, lsl #16
    1660:	53000100 	movwpl	r0, #256	; 0x100
    1664:	00000128 	andeq	r0, r0, r8, lsr #2
    1668:	00000130 	andeq	r0, r0, r0, lsr r1
    166c:	30550001 	subscc	r0, r5, r1
    1670:	34000001 	strcc	r0, [r0], #-1
    1674:	01000001 	tsteq	r0, r1
    1678:	01345300 	teqeq	r4, r0, lsl #6
    167c:	01440000 	mrseq	r0, (UNDEF: 68)
    1680:	00010000 	andeq	r0, r1, r0
    1684:	00014455 	andeq	r4, r1, r5, asr r4
    1688:	00015400 	andeq	r5, r1, r0, lsl #8
    168c:	53000100 	movwpl	r0, #256	; 0x100
	...
    1698:	00000100 	andeq	r0, r0, r0, lsl #2
    169c:	00000114 	andeq	r0, r0, r4, lsl r1
    16a0:	00550001 	subseq	r0, r5, r1
    16a4:	00000000 	andeq	r0, r0, r0
    16a8:	64000000 	strvs	r0, [r0], #-0
    16ac:	68000001 	stmdavs	r0, {r0}
    16b0:	02000001 	andeq	r0, r0, #1
    16b4:	68007d00 	stmdavs	r0, {r8, sl, fp, ip, sp, lr}
    16b8:	7c000001 	stcvc	0, cr0, [r0], {1}
    16bc:	02000001 	andeq	r0, r0, #1
    16c0:	7c147d00 	ldcvc	13, cr7, [r4], {-0}
    16c4:	4c000001 	stcmi	0, cr0, [r0], {1}
    16c8:	03000002 	movweq	r0, #2
    16cc:	00c07d00 	sbceq	r7, r0, r0, lsl #26
	...
    16d8:	00000164 	andeq	r0, r0, r4, ror #2
    16dc:	00000184 	andeq	r0, r0, r4, lsl #3
    16e0:	84500001 	ldrbhi	r0, [r0], #-1
    16e4:	d8000001 	stmdale	r0, {r0}
    16e8:	01000001 	tsteq	r0, r1
    16ec:	01d85c00 	bicseq	r5, r8, r0, lsl #24
    16f0:	01e80000 	mvneq	r0, r0
    16f4:	00010000 	andeq	r0, r1, r0
    16f8:	0001e852 	andeq	lr, r1, r2, asr r8
    16fc:	0001fc00 	andeq	pc, r1, r0, lsl #24
    1700:	5c000100 	stfpls	f0, [r0], {-0}
	...
    170c:	00000164 	andeq	r0, r0, r4, ror #2
    1710:	00000184 	andeq	r0, r0, r4, lsl #3
    1714:	84510001 	ldrbhi	r0, [r1], #-1
    1718:	4c000001 	stcmi	0, cr0, [r0], {1}
    171c:	01000002 	tsteq	r0, r2
    1720:	00005600 	andeq	r5, r0, r0, lsl #12
    1724:	00000000 	andeq	r0, r0, r0
    1728:	01640000 	cmneq	r4, r0
    172c:	01a00000 	moveq	r0, r0
    1730:	00020000 	andeq	r0, r2, r0
    1734:	01a09f30 	lsreq	r9, r0, pc
    1738:	01b00000 	movseq	r0, r0
    173c:	00020000 	andeq	r0, r2, r0
    1740:	01b09f31 	lsrseq	r9, r1, pc
    1744:	02040000 	andeq	r0, r4, #0
    1748:	00010000 	andeq	r0, r1, r0
    174c:	00000057 	andeq	r0, r0, r7, asr r0
    1750:	00000000 	andeq	r0, r0, r0
    1754:	0001b000 	andeq	fp, r1, r0
    1758:	0001c000 	andeq	ip, r1, r0
    175c:	30000200 	andcc	r0, r0, r0, lsl #4
    1760:	0001c09f 	muleq	r1, pc, r0	; <UNPREDICTABLE>
    1764:	0001c400 	andeq	ip, r1, r0, lsl #8
    1768:	54000100 	strpl	r0, [r0], #-256	; 0x100
    176c:	000001d8 	ldrdeq	r0, [r0], -r8
    1770:	00000208 	andeq	r0, r0, r8, lsl #4
    1774:	08540001 	ldmdaeq	r4, {r0}^
    1778:	30000002 	andcc	r0, r0, r2
    177c:	01000002 	tsteq	r0, r2
    1780:	00005300 	andeq	r5, r0, r0, lsl #6
    1784:	00000000 	andeq	r0, r0, r0
    1788:	01fc0000 	mvnseq	r0, r0
    178c:	02080000 	andeq	r0, r8, #0
    1790:	00020000 	andeq	r0, r2, r0
    1794:	02089f30 	andeq	r9, r8, #192	; 0xc0
    1798:	02140000 	andseq	r0, r4, #0
    179c:	00010000 	andeq	r0, r1, r0
    17a0:	00000057 	andeq	r0, r0, r7, asr r0
    17a4:	00000000 	andeq	r0, r0, r0
    17a8:	00024c00 	andeq	r4, r2, r0, lsl #24
    17ac:	00025000 	andeq	r5, r2, r0
    17b0:	7d000200 	sfmvc	f0, 4, [r0, #-0]
    17b4:	00025000 	andeq	r5, r2, r0
    17b8:	00025400 	andeq	r5, r2, r0, lsl #8
    17bc:	7d000200 	sfmvc	f0, 4, [r0, #-0]
    17c0:	00025410 	andeq	r5, r2, r0, lsl r4
    17c4:	00025800 	andeq	r5, r2, r0, lsl #16
    17c8:	7d000200 	sfmvc	f0, 4, [r0, #-0]
    17cc:	00025830 	andeq	r5, r2, r0, lsr r8
    17d0:	00051c00 	andeq	r1, r5, r0, lsl #24
    17d4:	7d000300 	stcvc	3, cr0, [r0, #-0]
    17d8:	000000c8 	andeq	r0, r0, r8, asr #1
    17dc:	00000000 	andeq	r0, r0, r0
    17e0:	024c0000 	subeq	r0, ip, #0
    17e4:	02640000 	rsbeq	r0, r4, #0
    17e8:	00020000 	andeq	r0, r2, r0
    17ec:	02647091 	rsbeq	r7, r4, #145	; 0x91
    17f0:	02880000 	addeq	r0, r8, #0
    17f4:	00020000 	andeq	r0, r2, r0
    17f8:	02884891 	addeq	r4, r8, #9502720	; 0x910000
    17fc:	02a40000 	adceq	r0, r4, #0
    1800:	00010000 	andeq	r0, r1, r0
    1804:	0002a454 	andeq	sl, r2, r4, asr r4
    1808:	0002bc00 	andeq	fp, r2, r0, lsl #24
    180c:	74000300 	strvc	r0, [r0], #-768	; 0x300
    1810:	02c49f01 	sbceq	r9, r4, #4
    1814:	051c0000 	ldreq	r0, [ip, #-0]
    1818:	00010000 	andeq	r0, r1, r0
    181c:	00000054 	andeq	r0, r0, r4, asr r0
    1820:	00000000 	andeq	r0, r0, r0
    1824:	00024c00 	andeq	r4, r2, r0, lsl #24
    1828:	00028800 	andeq	r8, r2, r0, lsl #16
    182c:	03000600 	movweq	r0, #1536	; 0x600
    1830:	f0003d84 			; <UNDEFINED> instruction: 0xf0003d84
    1834:	0002889f 	muleq	r2, pc, r8	; <UNPREDICTABLE>
    1838:	00029800 	andeq	r9, r2, r0, lsl #16
    183c:	55000100 	strpl	r0, [r0, #-256]	; 0x100
    1840:	00000338 	andeq	r0, r0, r8, lsr r3
    1844:	00000350 	andeq	r0, r0, r0, asr r3
    1848:	bc550001 	mrrclt	0, 0, r0, r5, cr1
    184c:	c0000003 	andgt	r0, r0, r3
    1850:	01000003 	tsteq	r0, r3
    1854:	040c5500 	streq	r5, [ip], #-1280	; 0x500
    1858:	04100000 	ldreq	r0, [r0], #-0
    185c:	00010000 	andeq	r0, r1, r0
    1860:	00047c55 	andeq	r7, r4, r5, asr ip
    1864:	00048000 	andeq	r8, r4, r0
    1868:	55000100 	strpl	r0, [r0, #-256]	; 0x100
    186c:	0000049c 	muleq	r0, ip, r4
    1870:	000004a8 	andeq	r0, r0, r8, lsr #9
    1874:	01750003 	cmneq	r5, r3
    1878:	0004a89f 	muleq	r4, pc, r8	; <UNPREDICTABLE>
    187c:	0004ac00 	andeq	sl, r4, r0, lsl #24
    1880:	55000100 	strpl	r0, [r0, #-256]	; 0x100
    1884:	00000514 	andeq	r0, r0, r4, lsl r5
    1888:	0000051c 	andeq	r0, r0, ip, lsl r5
    188c:	00550001 	subseq	r0, r5, r1
    1890:	00000000 	andeq	r0, r0, r0
    1894:	d4000000 	strle	r0, [r0], #-0
    1898:	10000003 	andne	r0, r0, r3
    189c:	04000004 	streq	r0, [r0], #-4
    18a0:	7fa49100 	svcvc	0x00a49100
    18a4:	00000006 	andeq	r0, r0, r6
    18a8:	00000000 	andeq	r0, r0, r0
    18ac:	0002c000 	andeq	ip, r2, r0
    18b0:	00032c00 	andeq	r2, r3, r0, lsl #24
    18b4:	57000100 	strpl	r0, [r0, -r0, lsl #2]
    18b8:	00000350 	andeq	r0, r0, r0, asr r3
    18bc:	0000051c 	andeq	r0, r0, ip, lsl r5
    18c0:	00570001 	subseq	r0, r7, r1
    18c4:	00000000 	andeq	r0, r0, r0
    18c8:	4c000000 	stcmi	0, cr0, [r0], {-0}
    18cc:	88000002 	stmdahi	r0, {r1}
    18d0:	02000002 	andeq	r0, r0, #2
    18d4:	8c9f3000 	ldchi	0, cr3, [pc], {0}
    18d8:	a4000003 	strge	r0, [r0], #-3
    18dc:	01000003 	tsteq	r0, r3
    18e0:	03a45a00 			; <UNDEFINED> instruction: 0x03a45a00
    18e4:	03c00000 	biceq	r0, r0, #0
    18e8:	00010000 	andeq	r0, r1, r0
    18ec:	00044c50 	andeq	r4, r4, r0, asr ip
    18f0:	00046400 	andeq	r6, r4, r0, lsl #8
    18f4:	5a000100 	bpl	1cfc <__standby_start+0x1cfc>
    18f8:	00000464 	andeq	r0, r0, r4, ror #8
    18fc:	00000480 	andeq	r0, r0, r0, lsl #9
    1900:	e4500001 	ldrb	r0, [r0], #-1
    1904:	fc000004 	stc2	0, cr0, [r0], {4}
    1908:	01000004 	tsteq	r0, r4
    190c:	04fc5a00 	ldrbteq	r5, [ip], #2560	; 0xa00
    1910:	051c0000 	ldreq	r0, [ip, #-0]
    1914:	00010000 	andeq	r0, r1, r0
    1918:	00000050 	andeq	r0, r0, r0, asr r0
    191c:	00000000 	andeq	r0, r0, r0
    1920:	00036c00 	andeq	r6, r3, r0, lsl #24
    1924:	0003c000 	andeq	ip, r3, r0
    1928:	56000100 	strpl	r0, [r0], -r0, lsl #2
	...
    1934:	0000036c 	andeq	r0, r0, ip, ror #6
    1938:	0000037c 	andeq	r0, r0, ip, ror r3
    193c:	7c560001 	mrrcvc	0, 0, r0, r6, cr1
    1940:	80000003 	andhi	r0, r0, r3
    1944:	01000003 	tsteq	r0, r3
    1948:	03805a00 	orreq	r5, r0, #0
    194c:	038c0000 	orreq	r0, ip, #0
    1950:	00030000 	andeq	r0, r3, r0
    1954:	009f7f7a 	addseq	r7, pc, sl, ror pc	; <UNPREDICTABLE>
    1958:	00000000 	andeq	r0, r0, r0
    195c:	a4000000 	strge	r0, [r0], #-0
    1960:	a8000003 	stmdage	r0, {r0, r1}
    1964:	01000003 	tsteq	r0, r3
    1968:	00005600 	andeq	r5, r0, r0, lsl #12
    196c:	00000000 	andeq	r0, r0, r0
    1970:	03a40000 			; <UNDEFINED> instruction: 0x03a40000
    1974:	03a80000 			; <UNDEFINED> instruction: 0x03a80000
    1978:	00010000 	andeq	r0, r1, r0
    197c:	0003a855 	andeq	sl, r3, r5, asr r8
    1980:	0003c000 	andeq	ip, r3, r0
    1984:	51000100 	mrspl	r0, (UNDEF: 16)
	...
    1990:	000003a4 	andeq	r0, r0, r4, lsr #7
    1994:	000003bc 			; <UNDEFINED> instruction: 0x000003bc
    1998:	00550001 	subseq	r0, r5, r1
    199c:	00000000 	andeq	r0, r0, r0
    19a0:	d4000000 	strle	r0, [r0], #-0
    19a4:	d8000003 	stmdale	r0, {r0, r1}
    19a8:	04000003 	streq	r0, [r0], #-3
    19ac:	7fa49100 	svcvc	0x00a49100
    19b0:	00000006 	andeq	r0, r0, r6
    19b4:	00000000 	andeq	r0, r0, r0
    19b8:	0003d400 	andeq	sp, r3, r0, lsl #8
    19bc:	0003d800 	andeq	sp, r3, r0, lsl #16
    19c0:	55000100 	strpl	r0, [r0, #-256]	; 0x100
    19c4:	000003d8 	ldrdeq	r0, [r0], -r8
    19c8:	00000410 	andeq	r0, r0, r0, lsl r4
    19cc:	00510001 	subseq	r0, r1, r1
    19d0:	00000000 	andeq	r0, r0, r0
    19d4:	d4000000 	strle	r0, [r0], #-0
    19d8:	0c000003 	stceq	0, cr0, [r0], {3}
    19dc:	01000004 	tsteq	r0, r4
    19e0:	00005500 	andeq	r5, r0, r0, lsl #10
    19e4:	00000000 	andeq	r0, r0, r0
    19e8:	03e80000 	mvneq	r0, #0
    19ec:	03f80000 	mvnseq	r0, #0
    19f0:	00040000 	andeq	r0, r4, r0
    19f4:	067fa491 			; <UNDEFINED> instruction: 0x067fa491
    19f8:	000003f8 	strdeq	r0, [r0], -r8
    19fc:	000003fc 	strdeq	r0, [r0], -ip
    1a00:	fc530001 	mrrc2	0, 0, r0, r3, cr1
    1a04:	08000003 	stmdaeq	r0, {r0, r1}
    1a08:	03000004 	movweq	r0, #4
    1a0c:	9f7f7300 	svcls	0x007f7300
	...
    1a18:	0000042c 	andeq	r0, r0, ip, lsr #8
    1a1c:	00000480 	andeq	r0, r0, r0, lsl #9
    1a20:	00560001 	subseq	r0, r6, r1
    1a24:	00000000 	andeq	r0, r0, r0
    1a28:	2c000000 	stccs	0, cr0, [r0], {-0}
    1a2c:	3c000004 	stccc	0, cr0, [r0], {4}
    1a30:	01000004 	tsteq	r0, r4
    1a34:	043c5600 	ldrteq	r5, [ip], #-1536	; 0x600
    1a38:	04400000 	strbeq	r0, [r0], #-0
    1a3c:	00010000 	andeq	r0, r1, r0
    1a40:	0004405a 	andeq	r4, r4, sl, asr r0
    1a44:	00044c00 	andeq	r4, r4, r0, lsl #24
    1a48:	7a000300 	bvc	2650 <__standby_start+0x2650>
    1a4c:	00009f7f 	andeq	r9, r0, pc, ror pc
    1a50:	00000000 	andeq	r0, r0, r0
    1a54:	04640000 	strbteq	r0, [r4], #-0
    1a58:	04680000 	strbteq	r0, [r8], #-0
    1a5c:	00010000 	andeq	r0, r1, r0
    1a60:	00000056 	andeq	r0, r0, r6, asr r0
    1a64:	00000000 	andeq	r0, r0, r0
    1a68:	00046400 	andeq	r6, r4, r0, lsl #8
    1a6c:	00046800 	andeq	r6, r4, r0, lsl #16
    1a70:	55000100 	strpl	r0, [r0, #-256]	; 0x100
    1a74:	00000468 	andeq	r0, r0, r8, ror #8
    1a78:	00000480 	andeq	r0, r0, r0, lsl #9
    1a7c:	00510001 	subseq	r0, r1, r1
    1a80:	00000000 	andeq	r0, r0, r0
    1a84:	64000000 	strvs	r0, [r0], #-0
    1a88:	7c000004 	stcvc	0, cr0, [r0], {4}
    1a8c:	01000004 	tsteq	r0, r4
    1a90:	00005500 	andeq	r5, r0, r0, lsl #10
    1a94:	00000000 	andeq	r0, r0, r0
    1a98:	04c40000 	strbeq	r0, [r4], #0
    1a9c:	04d40000 	ldrbeq	r0, [r4], #0
    1aa0:	00010000 	andeq	r0, r1, r0
    1aa4:	0004d456 	andeq	sp, r4, r6, asr r4
    1aa8:	0004d800 	andeq	sp, r4, r0, lsl #16
    1aac:	5a000100 	bpl	1eb4 <__standby_start+0x1eb4>
    1ab0:	000004d8 	ldrdeq	r0, [r0], -r8
    1ab4:	000004e4 	andeq	r0, r0, r4, ror #9
    1ab8:	7f7a0003 	svcvc	0x007a0003
    1abc:	0000009f 	muleq	r0, pc, r0	; <UNPREDICTABLE>
    1ac0:	00000000 	andeq	r0, r0, r0
    1ac4:	0004fc00 	andeq	pc, r4, r0, lsl #24
    1ac8:	00050000 	andeq	r0, r5, r0
    1acc:	56000100 	strpl	r0, [r0], -r0, lsl #2
	...
    1ad8:	000004fc 	strdeq	r0, [r0], -ip
    1adc:	00000500 	andeq	r0, r0, r0, lsl #10
    1ae0:	00550001 	subseq	r0, r5, r1
    1ae4:	1c000005 	stcne	0, cr0, [r0], {5}
    1ae8:	01000005 	tsteq	r0, r5
    1aec:	00005100 	andeq	r5, r0, r0, lsl #2
    1af0:	00000000 	andeq	r0, r0, r0
    1af4:	04fc0000 	ldrbteq	r0, [ip], #0
    1af8:	05140000 	ldreq	r0, [r4, #-0]
    1afc:	00010000 	andeq	r0, r1, r0
    1b00:	00000055 	andeq	r0, r0, r5, asr r0
    1b04:	00000000 	andeq	r0, r0, r0
    1b08:	00051c00 	andeq	r1, r5, r0, lsl #24
    1b0c:	00052000 	andeq	r2, r5, r0
    1b10:	7d000200 	sfmvc	f0, 4, [r0, #-0]
    1b14:	00052000 	andeq	r2, r5, r0
    1b18:	00052400 	andeq	r2, r5, r0, lsl #8
    1b1c:	7d000200 	sfmvc	f0, 4, [r0, #-0]
    1b20:	00052410 	andeq	r2, r5, r0, lsl r4
    1b24:	00052800 	andeq	r2, r5, r0, lsl #16
    1b28:	7d000200 	sfmvc	f0, 4, [r0, #-0]
    1b2c:	00052830 	andeq	r2, r5, r0, lsr r8
    1b30:	0007ec00 	andeq	lr, r7, r0, lsl #24
    1b34:	7d000300 	stcvc	3, cr0, [r0, #-0]
    1b38:	000000c8 	andeq	r0, r0, r8, asr #1
    1b3c:	00000000 	andeq	r0, r0, r0
    1b40:	051c0000 	ldreq	r0, [ip, #-0]
    1b44:	05340000 	ldreq	r0, [r4, #-0]!
    1b48:	00020000 	andeq	r0, r2, r0
    1b4c:	05347091 	ldreq	r7, [r4, #-145]!	; 0x91
    1b50:	05580000 	ldrbeq	r0, [r8, #-0]
    1b54:	00020000 	andeq	r0, r2, r0
    1b58:	05584891 	ldrbeq	r4, [r8, #-2193]	; 0x891
    1b5c:	05740000 	ldrbeq	r0, [r4, #-0]!
    1b60:	00010000 	andeq	r0, r1, r0
    1b64:	00057454 	andeq	r7, r5, r4, asr r4
    1b68:	00058c00 	andeq	r8, r5, r0, lsl #24
    1b6c:	74000300 	strvc	r0, [r0], #-768	; 0x300
    1b70:	05949f01 	ldreq	r9, [r4, #3841]	; 0xf01
    1b74:	07ec0000 	strbeq	r0, [ip, r0]!
    1b78:	00010000 	andeq	r0, r1, r0
    1b7c:	00000054 	andeq	r0, r0, r4, asr r0
    1b80:	00000000 	andeq	r0, r0, r0
    1b84:	00051c00 	andeq	r1, r5, r0, lsl #24
    1b88:	00055800 	andeq	r5, r5, r0, lsl #16
    1b8c:	03000600 	movweq	r0, #1536	; 0x600
    1b90:	f0003d84 			; <UNDEFINED> instruction: 0xf0003d84
    1b94:	0005589f 	muleq	r5, pc, r8	; <UNPREDICTABLE>
    1b98:	00056800 	andeq	r6, r5, r0, lsl #16
    1b9c:	55000100 	strpl	r0, [r0, #-256]	; 0x100
    1ba0:	00000608 	andeq	r0, r0, r8, lsl #12
    1ba4:	00000620 	andeq	r0, r0, r0, lsr #12
    1ba8:	8c550001 	mrrchi	0, 0, r0, r5, cr1
    1bac:	90000006 	andls	r0, r0, r6
    1bb0:	01000006 	tsteq	r0, r6
    1bb4:	06dc5500 	ldrbeq	r5, [ip], r0, lsl #10
    1bb8:	06e00000 	strbteq	r0, [r0], r0
    1bbc:	00010000 	andeq	r0, r1, r0
    1bc0:	00074c55 	andeq	r4, r7, r5, asr ip
    1bc4:	00075000 	andeq	r5, r7, r0
    1bc8:	55000100 	strpl	r0, [r0, #-256]	; 0x100
    1bcc:	0000076c 	andeq	r0, r0, ip, ror #14
    1bd0:	00000778 	andeq	r0, r0, r8, ror r7
    1bd4:	01750003 	cmneq	r5, r3
    1bd8:	0007789f 	muleq	r7, pc, r8	; <UNPREDICTABLE>
    1bdc:	00077c00 	andeq	r7, r7, r0, lsl #24
    1be0:	55000100 	strpl	r0, [r0, #-256]	; 0x100
    1be4:	000007e4 	andeq	r0, r0, r4, ror #15
    1be8:	000007ec 	andeq	r0, r0, ip, ror #15
    1bec:	00550001 	subseq	r0, r5, r1
    1bf0:	00000000 	andeq	r0, r0, r0
    1bf4:	a4000000 	strge	r0, [r0], #-0
    1bf8:	e0000006 	and	r0, r0, r6
    1bfc:	04000006 	streq	r0, [r0], #-6
    1c00:	7fa49100 	svcvc	0x00a49100
    1c04:	00000006 	andeq	r0, r0, r6
    1c08:	00000000 	andeq	r0, r0, r0
    1c0c:	00059000 	andeq	r9, r5, r0
    1c10:	0005fc00 	andeq	pc, r5, r0, lsl #24
    1c14:	57000100 	strpl	r0, [r0, -r0, lsl #2]
    1c18:	00000620 	andeq	r0, r0, r0, lsr #12
    1c1c:	000007ec 	andeq	r0, r0, ip, ror #15
    1c20:	00570001 	subseq	r0, r7, r1
    1c24:	00000000 	andeq	r0, r0, r0
    1c28:	1c000000 	stcne	0, cr0, [r0], {-0}
    1c2c:	58000005 	stmdapl	r0, {r0, r2}
    1c30:	02000005 	andeq	r0, r0, #5
    1c34:	5c9f3000 	ldcpl	0, cr3, [pc], {0}
    1c38:	74000006 	strvc	r0, [r0], #-6
    1c3c:	01000006 	tsteq	r0, r6
    1c40:	06745a00 	ldrbteq	r5, [r4], -r0, lsl #20
    1c44:	06900000 	ldreq	r0, [r0], r0
    1c48:	00010000 	andeq	r0, r1, r0
    1c4c:	00071c50 	andeq	r1, r7, r0, asr ip
    1c50:	00073400 	andeq	r3, r7, r0, lsl #8
    1c54:	5a000100 	bpl	205c <__standby_start+0x205c>
    1c58:	00000734 	andeq	r0, r0, r4, lsr r7
    1c5c:	00000750 	andeq	r0, r0, r0, asr r7
    1c60:	b4500001 	ldrblt	r0, [r0], #-1
    1c64:	cc000007 	stcgt	0, cr0, [r0], {7}
    1c68:	01000007 	tsteq	r0, r7
    1c6c:	07cc5a00 	strbeq	r5, [ip, r0, lsl #20]
    1c70:	07ec0000 	strbeq	r0, [ip, r0]!
    1c74:	00010000 	andeq	r0, r1, r0
    1c78:	00000050 	andeq	r0, r0, r0, asr r0
    1c7c:	00000000 	andeq	r0, r0, r0
    1c80:	00063c00 	andeq	r3, r6, r0, lsl #24
    1c84:	00069000 	andeq	r9, r6, r0
    1c88:	56000100 	strpl	r0, [r0], -r0, lsl #2
	...
    1c94:	0000063c 	andeq	r0, r0, ip, lsr r6
    1c98:	0000064c 	andeq	r0, r0, ip, asr #12
    1c9c:	4c560001 	mrrcmi	0, 0, r0, r6, cr1
    1ca0:	50000006 	andpl	r0, r0, r6
    1ca4:	01000006 	tsteq	r0, r6
    1ca8:	06505a00 	ldrbeq	r5, [r0], -r0, lsl #20
    1cac:	065c0000 	ldrbeq	r0, [ip], -r0
    1cb0:	00030000 	andeq	r0, r3, r0
    1cb4:	009f7f7a 	addseq	r7, pc, sl, ror pc	; <UNPREDICTABLE>
    1cb8:	00000000 	andeq	r0, r0, r0
    1cbc:	74000000 	strvc	r0, [r0], #-0
    1cc0:	78000006 	stmdavc	r0, {r1, r2}
    1cc4:	01000006 	tsteq	r0, r6
    1cc8:	00005600 	andeq	r5, r0, r0, lsl #12
    1ccc:	00000000 	andeq	r0, r0, r0
    1cd0:	06740000 	ldrbteq	r0, [r4], -r0
    1cd4:	06780000 	ldrbteq	r0, [r8], -r0
    1cd8:	00010000 	andeq	r0, r1, r0
    1cdc:	00067855 	andeq	r7, r6, r5, asr r8
    1ce0:	00069000 	andeq	r9, r6, r0
    1ce4:	51000100 	mrspl	r0, (UNDEF: 16)
	...
    1cf0:	00000674 	andeq	r0, r0, r4, ror r6
    1cf4:	0000068c 	andeq	r0, r0, ip, lsl #13
    1cf8:	00550001 	subseq	r0, r5, r1
    1cfc:	00000000 	andeq	r0, r0, r0
    1d00:	a4000000 	strge	r0, [r0], #-0
    1d04:	a8000006 	stmdage	r0, {r1, r2}
    1d08:	04000006 	streq	r0, [r0], #-6
    1d0c:	7fa49100 	svcvc	0x00a49100
    1d10:	00000006 	andeq	r0, r0, r6
    1d14:	00000000 	andeq	r0, r0, r0
    1d18:	0006a400 	andeq	sl, r6, r0, lsl #8
    1d1c:	0006a800 	andeq	sl, r6, r0, lsl #16
    1d20:	55000100 	strpl	r0, [r0, #-256]	; 0x100
    1d24:	000006a8 	andeq	r0, r0, r8, lsr #13
    1d28:	000006e0 	andeq	r0, r0, r0, ror #13
    1d2c:	00510001 	subseq	r0, r1, r1
    1d30:	00000000 	andeq	r0, r0, r0
    1d34:	a4000000 	strge	r0, [r0], #-0
    1d38:	dc000006 	stcle	0, cr0, [r0], {6}
    1d3c:	01000006 	tsteq	r0, r6
    1d40:	00005500 	andeq	r5, r0, r0, lsl #10
    1d44:	00000000 	andeq	r0, r0, r0
    1d48:	06b80000 	ldrteq	r0, [r8], r0
    1d4c:	06c80000 	strbeq	r0, [r8], r0
    1d50:	00040000 	andeq	r0, r4, r0
    1d54:	067fa491 			; <UNDEFINED> instruction: 0x067fa491
    1d58:	000006c8 	andeq	r0, r0, r8, asr #13
    1d5c:	000006cc 	andeq	r0, r0, ip, asr #13
    1d60:	cc530001 	mrrcgt	0, 0, r0, r3, cr1
    1d64:	d8000006 	stmdale	r0, {r1, r2}
    1d68:	03000006 	movweq	r0, #6
    1d6c:	9f7f7300 	svcls	0x007f7300
	...
    1d78:	000006fc 	strdeq	r0, [r0], -ip
    1d7c:	00000750 	andeq	r0, r0, r0, asr r7
    1d80:	00560001 	subseq	r0, r6, r1
    1d84:	00000000 	andeq	r0, r0, r0
    1d88:	fc000000 	stc2	0, cr0, [r0], {-0}
    1d8c:	0c000006 	stceq	0, cr0, [r0], {6}
    1d90:	01000007 	tsteq	r0, r7
    1d94:	070c5600 	streq	r5, [ip, -r0, lsl #12]
    1d98:	07100000 	ldreq	r0, [r0, -r0]
    1d9c:	00010000 	andeq	r0, r1, r0
    1da0:	0007105a 	andeq	r1, r7, sl, asr r0
    1da4:	00071c00 	andeq	r1, r7, r0, lsl #24
    1da8:	7a000300 	bvc	29b0 <__standby_start+0x29b0>
    1dac:	00009f7f 	andeq	r9, r0, pc, ror pc
    1db0:	00000000 	andeq	r0, r0, r0
    1db4:	07340000 	ldreq	r0, [r4, -r0]!
    1db8:	07380000 	ldreq	r0, [r8, -r0]!
    1dbc:	00010000 	andeq	r0, r1, r0
    1dc0:	00000056 	andeq	r0, r0, r6, asr r0
    1dc4:	00000000 	andeq	r0, r0, r0
    1dc8:	00073400 	andeq	r3, r7, r0, lsl #8
    1dcc:	00073800 	andeq	r3, r7, r0, lsl #16
    1dd0:	55000100 	strpl	r0, [r0, #-256]	; 0x100
    1dd4:	00000738 	andeq	r0, r0, r8, lsr r7
    1dd8:	00000750 	andeq	r0, r0, r0, asr r7
    1ddc:	00510001 	subseq	r0, r1, r1
    1de0:	00000000 	andeq	r0, r0, r0
    1de4:	34000000 	strcc	r0, [r0], #-0
    1de8:	4c000007 	stcmi	0, cr0, [r0], {7}
    1dec:	01000007 	tsteq	r0, r7
    1df0:	00005500 	andeq	r5, r0, r0, lsl #10
    1df4:	00000000 	andeq	r0, r0, r0
    1df8:	07940000 	ldreq	r0, [r4, r0]
    1dfc:	07a40000 	streq	r0, [r4, r0]!
    1e00:	00010000 	andeq	r0, r1, r0
    1e04:	0007a456 	andeq	sl, r7, r6, asr r4
    1e08:	0007a800 	andeq	sl, r7, r0, lsl #16
    1e0c:	5a000100 	bpl	2214 <__standby_start+0x2214>
    1e10:	000007a8 	andeq	r0, r0, r8, lsr #15
    1e14:	000007b4 			; <UNDEFINED> instruction: 0x000007b4
    1e18:	7f7a0003 	svcvc	0x007a0003
    1e1c:	0000009f 	muleq	r0, pc, r0	; <UNPREDICTABLE>
    1e20:	00000000 	andeq	r0, r0, r0
    1e24:	0007cc00 	andeq	ip, r7, r0, lsl #24
    1e28:	0007d000 	andeq	sp, r7, r0
    1e2c:	56000100 	strpl	r0, [r0], -r0, lsl #2
	...
    1e38:	000007cc 	andeq	r0, r0, ip, asr #15
    1e3c:	000007d0 	ldrdeq	r0, [r0], -r0	; <UNPREDICTABLE>
    1e40:	d0550001 	subsle	r0, r5, r1
    1e44:	ec000007 	stc	0, cr0, [r0], {7}
    1e48:	01000007 	tsteq	r0, r7
    1e4c:	00005100 	andeq	r5, r0, r0, lsl #2
    1e50:	00000000 	andeq	r0, r0, r0
    1e54:	07cc0000 	strbeq	r0, [ip, r0]
    1e58:	07e40000 	strbeq	r0, [r4, r0]!
    1e5c:	00010000 	andeq	r0, r1, r0
    1e60:	00000055 	andeq	r0, r0, r5, asr r0
    1e64:	00000000 	andeq	r0, r0, r0
    1e68:	00000c00 	andeq	r0, r0, r0, lsl #24
    1e6c:	00005400 	andeq	r5, r0, r0, lsl #8
    1e70:	50000100 	andpl	r0, r0, r0, lsl #2
	...
    1e7c:	0000000c 	andeq	r0, r0, ip
    1e80:	00000020 	andeq	r0, r0, r0, lsr #32
    1e84:	00510001 	subseq	r0, r1, r1
    1e88:	00000000 	andeq	r0, r0, r0
    1e8c:	0c000000 	stceq	0, cr0, [r0], {-0}
    1e90:	20000000 	andcs	r0, r0, r0
    1e94:	01000000 	mrseq	r0, (UNDEF: 0)
    1e98:	00205100 	eoreq	r5, r0, r0, lsl #2
    1e9c:	00240000 	eoreq	r0, r4, r0
    1ea0:	00050000 	andeq	r0, r5, r0
    1ea4:	24310071 	ldrtcs	r0, [r1], #-113	; 0x71
    1ea8:	0000249f 	muleq	r0, pc, r4	; <UNPREDICTABLE>
    1eac:	00002800 	andeq	r2, r0, r0, lsl #16
    1eb0:	51000100 	mrspl	r0, (UNDEF: 16)
    1eb4:	00000030 	andeq	r0, r0, r0, lsr r0
    1eb8:	00000058 	andeq	r0, r0, r8, asr r0
    1ebc:	00510001 	subseq	r0, r1, r1
    1ec0:	00000000 	andeq	r0, r0, r0
    1ec4:	0c000000 	stceq	0, cr0, [r0], {-0}
    1ec8:	30000000 	andcc	r0, r0, r0
    1ecc:	02000000 	andeq	r0, r0, #0
    1ed0:	309f3000 	addscc	r3, pc, r0
    1ed4:	40000000 	andmi	r0, r0, r0
    1ed8:	01000000 	mrseq	r0, (UNDEF: 0)
    1edc:	00445200 	subeq	r5, r4, r0, lsl #4
    1ee0:	00500000 	subseq	r0, r0, r0
    1ee4:	00010000 	andeq	r0, r1, r0
    1ee8:	00000052 	andeq	r0, r0, r2, asr r0
    1eec:	00000000 	andeq	r0, r0, r0
    1ef0:	00000c00 	andeq	r0, r0, r0, lsl #24
    1ef4:	00002000 	andeq	r2, r0, r0
    1ef8:	30000200 	andcc	r0, r0, r0, lsl #4
    1efc:	0000289f 	muleq	r0, pc, r8	; <UNPREDICTABLE>
    1f00:	00002c00 	andeq	r2, r0, r0, lsl #24
    1f04:	53000100 	movwpl	r0, #256	; 0x100
    1f08:	00000030 	andeq	r0, r0, r0, lsr r0
    1f0c:	00000048 	andeq	r0, r0, r8, asr #32
    1f10:	00530001 	subseq	r0, r3, r1
	...
    1f1c:	10000000 	andne	r0, r0, r0
    1f20:	02000000 	andeq	r0, r0, #0
    1f24:	10007d00 	andne	r7, r0, r0, lsl #26
    1f28:	90000000 	andls	r0, r0, r0
    1f2c:	02000000 	andeq	r0, r0, #0
    1f30:	00087d00 	andeq	r7, r8, r0, lsl #26
	...
    1f3c:	30000000 	andcc	r0, r0, r0
    1f40:	02000000 	andeq	r0, r0, #0
    1f44:	6c9f3000 	ldcvs	0, cr3, [pc], {0}
    1f48:	7f000000 	svcvc	0x00000000
    1f4c:	01000000 	mrseq	r0, (UNDEF: 0)
    1f50:	00005100 	andeq	r5, r0, r0, lsl #2
    1f54:	00000000 	andeq	r0, r0, r0
    1f58:	00900000 	addseq	r0, r0, r0
    1f5c:	00980000 	addseq	r0, r8, r0
    1f60:	00020000 	andeq	r0, r2, r0
    1f64:	0098007d 	addseq	r0, r8, sp, ror r0
    1f68:	00e40000 	rsceq	r0, r4, r0
    1f6c:	00020000 	andeq	r0, r2, r0
    1f70:	0000087d 	andeq	r0, r0, sp, ror r8
    1f74:	00000000 	andeq	r0, r0, r0
    1f78:	00900000 	addseq	r0, r0, r0
    1f7c:	00b00000 	adcseq	r0, r0, r0
    1f80:	00020000 	andeq	r0, r2, r0
    1f84:	00cc9f30 	sbceq	r9, ip, r0, lsr pc
    1f88:	00e40000 	rsceq	r0, r4, r0
    1f8c:	00010000 	andeq	r0, r1, r0
    1f90:	00000053 	andeq	r0, r0, r3, asr r0
    1f94:	00000000 	andeq	r0, r0, r0
    1f98:	0000a000 	andeq	sl, r0, r0
    1f9c:	0000b400 	andeq	fp, r0, r0, lsl #8
    1fa0:	91000200 	mrsls	r0, R8_usr
    1fa4:	0000b474 	andeq	fp, r0, r4, ror r4
    1fa8:	0000bc00 	andeq	fp, r0, r0, lsl #24
    1fac:	51000100 	mrspl	r0, (UNDEF: 16)
    1fb0:	000000bc 	strheq	r0, [r0], -ip
    1fb4:	000000e4 	andeq	r0, r0, r4, ror #1
    1fb8:	74910002 	ldrvc	r0, [r1], #2
	...
    1fc4:	000000e4 	andeq	r0, r0, r4, ror #1
    1fc8:	000000f4 	strdeq	r0, [r0], -r4
    1fcc:	34500001 	ldrbcc	r0, [r0], #-1
    1fd0:	38000001 	stmdacc	r0, {r0}
    1fd4:	01000001 	tsteq	r0, r1
    1fd8:	00005000 	andeq	r5, r0, r0
    1fdc:	00000000 	andeq	r0, r0, r0
    1fe0:	00e40000 	rsceq	r0, r4, r0
    1fe4:	01180000 	tsteq	r8, r0
    1fe8:	00050000 	andeq	r0, r5, r0
    1fec:	25350070 	ldrcs	r0, [r5, #-112]!	; 0x70
    1ff0:	0001189f 	muleq	r1, pc, r8	; <UNPREDICTABLE>
    1ff4:	00011c00 	andeq	r1, r1, r0, lsl #24
    1ff8:	73000300 	movwvc	r0, #768	; 0x300
    1ffc:	01349f40 	teqeq	r4, r0, asr #30
    2000:	01380000 	teqeq	r8, r0
    2004:	00050000 	andeq	r0, r5, r0
    2008:	25350070 	ldrcs	r0, [r5, #-112]!	; 0x70
    200c:	0000009f 	muleq	r0, pc, r0	; <UNPREDICTABLE>
    2010:	00000000 	andeq	r0, r0, r0
    2014:	0000e400 	andeq	lr, r0, r0, lsl #8
    2018:	00011800 	andeq	r1, r1, r0, lsl #16
    201c:	70000500 	andvc	r0, r0, r0, lsl #10
    2020:	9f1a4f00 	svcls	0x001a4f00
    2024:	00000118 	andeq	r0, r0, r8, lsl r1
    2028:	0000012c 	andeq	r0, r0, ip, lsr #2
    202c:	34520001 	ldrbcc	r0, [r2], #-1
    2030:	38000001 	stmdacc	r0, {r0}
    2034:	05000001 	streq	r0, [r0, #-1]
    2038:	4f007000 	svcmi	0x00007000
    203c:	00009f1a 	andeq	r9, r0, sl, lsl pc
    2040:	00000000 	andeq	r0, r0, r0
    2044:	01400000 	mrseq	r0, (UNDEF: 64)
    2048:	016c0000 	cmneq	ip, r0
    204c:	00010000 	andeq	r0, r1, r0
    2050:	00019050 	andeq	r9, r1, r0, asr r0
    2054:	00019400 	andeq	r9, r1, r0, lsl #8
    2058:	50000100 	andpl	r0, r0, r0, lsl #2
	...
    2064:	00000140 	andeq	r0, r0, r0, asr #2
    2068:	00000180 	andeq	r0, r0, r0, lsl #3
    206c:	9f300002 	svcls	0x00300002
    2070:	00000190 	muleq	r0, r0, r1
    2074:	0000019c 	muleq	r0, ip, r1
    2078:	9f300002 	svcls	0x00300002
	...
    2084:	00000140 	andeq	r0, r0, r0, asr #2
    2088:	0000016c 	andeq	r0, r0, ip, ror #2
    208c:	00700005 	rsbseq	r0, r0, r5
    2090:	6c9f2535 	cfldr32vs	mvfx2, [pc], {53}	; 0x35
    2094:	70000001 	andvc	r0, r0, r1
    2098:	01000001 	tsteq	r0, r1
    209c:	01705300 	cmneq	r0, r0, lsl #6
    20a0:	01740000 	cmneq	r4, r0
    20a4:	00040000 	andeq	r0, r4, r0
    20a8:	9f7f8073 	svcls	0x007f8073
    20ac:	00000190 	muleq	r0, r0, r1
    20b0:	00000194 	muleq	r0, r4, r1
    20b4:	00700005 	rsbseq	r0, r0, r5
    20b8:	009f2535 	addseq	r2, pc, r5, lsr r5	; <UNPREDICTABLE>
    20bc:	00000000 	andeq	r0, r0, r0
    20c0:	40000000 	andmi	r0, r0, r0
    20c4:	6c000001 	stcvs	0, cr0, [r0], {1}
    20c8:	05000001 	streq	r0, [r0, #-1]
    20cc:	4f007000 	svcmi	0x00007000
    20d0:	016c9f1a 	cmneq	ip, sl, lsl pc
    20d4:	018c0000 	orreq	r0, ip, r0
    20d8:	00010000 	andeq	r0, r1, r0
    20dc:	00019050 	andeq	r9, r1, r0, asr r0
    20e0:	00019400 	andeq	r9, r1, r0, lsl #8
    20e4:	70000500 	andvc	r0, r0, r0, lsl #10
    20e8:	9f1a4f00 	svcls	0x001a4f00
	...
    20f8:	0000000c 	andeq	r0, r0, ip
    20fc:	0c500001 	mrrceq	0, 0, r0, r0, cr1	; <UNPREDICTABLE>
    2100:	14000000 	strne	r0, [r0], #-0
    2104:	03000000 	movweq	r0, #0
    2108:	9f047000 	svcls	0x00047000
	...
    2118:	00000014 	andeq	r0, r0, r4, lsl r0
    211c:	9f300002 	svcls	0x00300002
	...
    2128:	0000002c 	andeq	r0, r0, ip, lsr #32
    212c:	00000038 	andeq	r0, r0, r8, lsr r0
    2130:	38500001 	ldmdacc	r0, {r0}^
    2134:	40000000 	andmi	r0, r0, r0
    2138:	03000000 	movweq	r0, #0
    213c:	9f047000 	svcls	0x00047000
	...
    2148:	0000002c 	andeq	r0, r0, ip, lsr #32
    214c:	00000040 	andeq	r0, r0, r0, asr #32
    2150:	9f300002 	svcls	0x00300002
	...
    215c:	00000058 	andeq	r0, r0, r8, asr r0
    2160:	00000080 	andeq	r0, r0, r0, lsl #1
    2164:	00500001 	subseq	r0, r0, r1
    2168:	00000000 	andeq	r0, r0, r0
    216c:	58000000 	stmdapl	r0, {}	; <UNPREDICTABLE>
    2170:	84000000 	strhi	r0, [r0], #-0
    2174:	02000000 	andeq	r0, r0, #0
    2178:	009f3000 	addseq	r3, pc, r0
	...
    2184:	10000000 	andne	r0, r0, r0
    2188:	01000000 	mrseq	r0, (UNDEF: 0)
    218c:	00105000 	andseq	r5, r0, r0
    2190:	00600000 	rsbeq	r0, r0, r0
    2194:	00010000 	andeq	r0, r1, r0
    2198:	00000052 	andeq	r0, r0, r2, asr r0
    219c:	00000000 	andeq	r0, r0, r0
    21a0:	00006000 	andeq	r6, r0, r0
    21a4:	00007800 	andeq	r7, r0, r0, lsl #16
    21a8:	50000100 	andpl	r0, r0, r0, lsl #2
    21ac:	00000078 	andeq	r0, r0, r8, ror r0
    21b0:	000000a8 	andeq	r0, r0, r8, lsr #1
    21b4:	00520001 	subseq	r0, r2, r1
    21b8:	00000000 	andeq	r0, r0, r0
    21bc:	98000000 	stmdals	r0, {}	; <UNPREDICTABLE>
    21c0:	b4000001 	strlt	r0, [r0], #-1
    21c4:	01000001 	tsteq	r0, r1
    21c8:	00005000 	andeq	r5, r0, r0
	...
    21d4:	00100000 	andseq	r0, r0, r0
    21d8:	00010000 	andeq	r0, r1, r0
    21dc:	00001050 	andeq	r1, r0, r0, asr r0
    21e0:	00003000 	andeq	r3, r0, r0
    21e4:	52000100 	andpl	r0, r0, #0
	...
    21f0:	00000030 	andeq	r0, r0, r0, lsr r0
    21f4:	00000048 	andeq	r0, r0, r8, asr #32
    21f8:	48500001 	ldmdami	r0, {r0}^
    21fc:	50000000 	andpl	r0, r0, r0
    2200:	01000000 	mrseq	r0, (UNDEF: 0)
    2204:	00005200 	andeq	r5, r0, r0, lsl #4
	...
    2210:	001c0000 	andseq	r0, ip, r0
    2214:	00010000 	andeq	r0, r1, r0
    2218:	00000050 	andeq	r0, r0, r0, asr r0
    221c:	00000000 	andeq	r0, r0, r0
    2220:	00004000 	andeq	r4, r0, r0
    2224:	00005000 	andeq	r5, r0, r0
    2228:	50000100 	andpl	r0, r0, r0, lsl #2
    222c:	00000050 	andeq	r0, r0, r0, asr r0
    2230:	0000007c 	andeq	r0, r0, ip, ror r0
    2234:	00520001 	subseq	r0, r2, r1
    2238:	00000000 	andeq	r0, r0, r0
    223c:	7c000000 	stcvc	0, cr0, [r0], {-0}
    2240:	94000000 	strls	r0, [r0], #-0
    2244:	01000000 	mrseq	r0, (UNDEF: 0)
    2248:	00945000 	addseq	r5, r4, r0
    224c:	00a80000 	adceq	r0, r8, r0
    2250:	00010000 	andeq	r0, r1, r0
    2254:	00000052 	andeq	r0, r0, r2, asr r0
    2258:	00000000 	andeq	r0, r0, r0
    225c:	0000b000 	andeq	fp, r0, r0
    2260:	0000b400 	andeq	fp, r0, r0, lsl #8
    2264:	7d000200 	sfmvc	f0, 4, [r0, #-0]
    2268:	0000b400 	andeq	fp, r0, r0, lsl #8
    226c:	00012000 	andeq	r2, r1, r0
    2270:	7d000200 	sfmvc	f0, 4, [r0, #-0]
    2274:	00000010 	andeq	r0, r0, r0, lsl r0
    2278:	00000000 	andeq	r0, r0, r0
    227c:	0000b000 	andeq	fp, r0, r0
    2280:	0000d000 	andeq	sp, r0, r0
    2284:	50000100 	andpl	r0, r0, r0, lsl #2
    2288:	000000d0 	ldrdeq	r0, [r0], -r0	; <UNPREDICTABLE>
    228c:	00000120 	andeq	r0, r0, r0, lsr #2
    2290:	00540001 	subseq	r0, r4, r1
    2294:	00000000 	andeq	r0, r0, r0
    2298:	20000000 	andcs	r0, r0, r0
    229c:	28000001 	stmdacs	r0, {r0}
    22a0:	02000001 	andeq	r0, r0, #1
    22a4:	28007d00 	stmdacs	r0, {r8, sl, fp, ip, sp, lr}
    22a8:	68000001 	stmdavs	r0, {r0}
    22ac:	02000001 	andeq	r0, r0, #1
    22b0:	00047d00 	andeq	r7, r4, r0, lsl #26
    22b4:	00000000 	andeq	r0, r0, r0
    22b8:	20000000 	andcs	r0, r0, r0
    22bc:	2c000001 	stccs	0, cr0, [r0], {1}
    22c0:	01000001 	tsteq	r0, r1
    22c4:	012c5000 	teqeq	ip, r0
    22c8:	01680000 	cmneq	r8, r0
    22cc:	00010000 	andeq	r0, r1, r0
    22d0:	00000052 	andeq	r0, r0, r2, asr r0
    22d4:	00000000 	andeq	r0, r0, r0
    22d8:	00016800 	andeq	r6, r1, r0, lsl #16
    22dc:	00018000 	andeq	r8, r1, r0
    22e0:	7d000200 	sfmvc	f0, 4, [r0, #-0]
    22e4:	00018000 	andeq	r8, r1, r0
    22e8:	0001bc00 	andeq	fp, r1, r0, lsl #24
    22ec:	7d000200 	sfmvc	f0, 4, [r0, #-0]
    22f0:	00000004 	andeq	r0, r0, r4
    22f4:	00000000 	andeq	r0, r0, r0
    22f8:	00016800 	andeq	r6, r1, r0, lsl #16
    22fc:	00018800 	andeq	r8, r1, r0, lsl #16
    2300:	50000100 	andpl	r0, r0, r0, lsl #2
    2304:	00000188 	andeq	r0, r0, r8, lsl #3
    2308:	000001a8 	andeq	r0, r0, r8, lsr #3
    230c:	00510001 	subseq	r0, r1, r1
    2310:	00000000 	andeq	r0, r0, r0
    2314:	bc000000 	stclt	0, cr0, [r0], {-0}
    2318:	d0000001 	andle	r0, r0, r1
    231c:	02000001 	andeq	r0, r0, #1
    2320:	d0007d00 	andle	r7, r0, r0, lsl #26
    2324:	04000001 	streq	r0, [r0], #-1
    2328:	02000002 	andeq	r0, r0, #2
    232c:	00087d00 	andeq	r7, r8, r0, lsl #26
    2330:	00000000 	andeq	r0, r0, r0
    2334:	bc000000 	stclt	0, cr0, [r0], {-0}
    2338:	dc000001 	stcle	0, cr0, [r0], {1}
    233c:	01000001 	tsteq	r0, r1
    2340:	01dc5000 	bicseq	r5, ip, r0
    2344:	02040000 	andeq	r0, r4, #0
    2348:	00010000 	andeq	r0, r1, r0
    234c:	00000051 	andeq	r0, r0, r1, asr r0
    2350:	00000000 	andeq	r0, r0, r0
    2354:	00020400 	andeq	r0, r2, r0, lsl #8
    2358:	00020c00 	andeq	r0, r2, r0, lsl #24
    235c:	50000100 	andpl	r0, r0, r0, lsl #2
    2360:	0000020c 	andeq	r0, r0, ip, lsl #4
    2364:	0000028c 	andeq	r0, r0, ip, lsl #5
    2368:	00520001 	subseq	r0, r2, r1
    236c:	00000000 	andeq	r0, r0, r0
    2370:	b8000000 	stmdalt	r0, {}	; <UNPREDICTABLE>
    2374:	c8000002 	stmdagt	r0, {r1}
    2378:	01000002 	tsteq	r0, r2
    237c:	02c85000 	sbceq	r5, r8, #0
    2380:	03480000 	movteq	r0, #32768	; 0x8000
    2384:	00010000 	andeq	r0, r1, r0
    2388:	00000052 	andeq	r0, r0, r2, asr r0
    238c:	00000000 	andeq	r0, r0, r0
    2390:	00034800 	andeq	r4, r3, r0, lsl #16
    2394:	00035000 	andeq	r5, r3, r0
    2398:	7d000200 	sfmvc	f0, 4, [r0, #-0]
    239c:	00035000 	andeq	r5, r3, r0
    23a0:	0003a400 	andeq	sl, r3, r0, lsl #8
    23a4:	7d000200 	sfmvc	f0, 4, [r0, #-0]
    23a8:	00000004 	andeq	r0, r0, r4
    23ac:	00000000 	andeq	r0, r0, r0
    23b0:	00034800 	andeq	r4, r3, r0, lsl #16
    23b4:	00038000 	andeq	r8, r3, r0
    23b8:	31000200 	mrscc	r0, R8_usr
    23bc:	0003809f 	muleq	r3, pc, r0	; <UNPREDICTABLE>
    23c0:	00039000 	andeq	r9, r3, r0
    23c4:	50000100 	andpl	r0, r0, r0, lsl #2
	...
    23d0:	00000348 	andeq	r0, r0, r8, asr #6
    23d4:	00000384 	andeq	r0, r0, r4, lsl #7
    23d8:	9f310002 	svcls	0x00310002
    23dc:	00000384 	andeq	r0, r0, r4, lsl #7
    23e0:	0000039f 	muleq	r0, pc, r3	; <UNPREDICTABLE>
    23e4:	017c0003 	cmneq	ip, r3
    23e8:	0000009f 	muleq	r0, pc, r0	; <UNPREDICTABLE>
    23ec:	00000000 	andeq	r0, r0, r0
    23f0:	00034800 	andeq	r4, r3, r0, lsl #16
    23f4:	00038c00 	andeq	r8, r3, r0, lsl #24
    23f8:	31000200 	mrscc	r0, R8_usr
    23fc:	00038c9f 	muleq	r3, pc, ip	; <UNPREDICTABLE>
    2400:	00039800 	andeq	r9, r3, r0, lsl #16
    2404:	51000100 	mrspl	r0, (UNDEF: 16)
	...
    2410:	00000348 	andeq	r0, r0, r8, asr #6
    2414:	00000360 	andeq	r0, r0, r0, ror #6
    2418:	9f300002 	svcls	0x00300002
	...
    2424:	00000348 	andeq	r0, r0, r8, asr #6
    2428:	00000364 	andeq	r0, r0, r4, ror #6
    242c:	9f300002 	svcls	0x00300002
    2430:	00000364 	andeq	r0, r0, r4, ror #6
    2434:	00000370 	andeq	r0, r0, r0, ror r3
    2438:	c00a0004 	andgt	r0, sl, r4
    243c:	03709f5d 	cmneq	r0, #372	; 0x174
    2440:	03a40000 			; <UNDEFINED> instruction: 0x03a40000
    2444:	00020000 	andeq	r0, r2, r0
    2448:	00009f30 	andeq	r9, r0, r0, lsr pc
	...
    2454:	00080000 	andeq	r0, r8, r0
    2458:	00020000 	andeq	r0, r2, r0
    245c:	0008007d 	andeq	r0, r8, sp, ror r0
    2460:	002c0000 	eoreq	r0, ip, r0
    2464:	00020000 	andeq	r0, r2, r0
    2468:	0000087d 	andeq	r0, r0, sp, ror r8
    246c:	00000000 	andeq	r0, r0, r0
    2470:	002c0000 	eoreq	r0, ip, r0
    2474:	00300000 	eorseq	r0, r0, r0
    2478:	00020000 	andeq	r0, r2, r0
    247c:	0030007d 	eorseq	r0, r0, sp, ror r0
    2480:	00580000 	subseq	r0, r8, r0
    2484:	00020000 	andeq	r0, r2, r0
    2488:	0000087d 	andeq	r0, r0, sp, ror r8
    248c:	00000000 	andeq	r0, r0, r0
    2490:	00580000 	subseq	r0, r8, r0
    2494:	005c0000 	subseq	r0, ip, r0
    2498:	00020000 	andeq	r0, r2, r0
    249c:	005c007d 	subseq	r0, ip, sp, ror r0
    24a0:	00d00000 	sbcseq	r0, r0, r0
    24a4:	00020000 	andeq	r0, r2, r0
    24a8:	0000107d 	andeq	r1, r0, sp, ror r0
    24ac:	00000000 	andeq	r0, r0, r0
    24b0:	00580000 	subseq	r0, r8, r0
    24b4:	00640000 	rsbeq	r0, r4, r0
    24b8:	00010000 	andeq	r0, r1, r0
    24bc:	00006450 	andeq	r6, r0, r0, asr r4
    24c0:	00007400 	andeq	r7, r0, r0, lsl #8
    24c4:	55000100 	strpl	r0, [r0, #-256]	; 0x100
    24c8:	000000c8 	andeq	r0, r0, r8, asr #1
    24cc:	000000d0 	ldrdeq	r0, [r0], -r0	; <UNPREDICTABLE>
    24d0:	00550001 	subseq	r0, r5, r1
    24d4:	00000000 	andeq	r0, r0, r0
    24d8:	68000000 	stmdavs	r0, {}	; <UNPREDICTABLE>
    24dc:	93000000 	movwls	r0, #0
    24e0:	01000000 	mrseq	r0, (UNDEF: 0)
    24e4:	00935000 	addseq	r5, r3, r0
    24e8:	00d00000 	sbcseq	r0, r0, r0
    24ec:	00010000 	andeq	r0, r1, r0
    24f0:	00000054 	andeq	r0, r0, r4, asr r0
    24f4:	00000000 	andeq	r0, r0, r0
    24f8:	00007000 	andeq	r7, r0, r0
    24fc:	00007800 	andeq	r7, r0, r0, lsl #16
    2500:	30000200 	andcc	r0, r0, r0, lsl #4
    2504:	0000789f 	muleq	r0, pc, r8	; <UNPREDICTABLE>
    2508:	0000a400 	andeq	sl, r0, r0, lsl #8
    250c:	32000200 	andcc	r0, r0, #0
    2510:	0000a49f 	muleq	r0, pc, r4	; <UNPREDICTABLE>
    2514:	0000c800 	andeq	ip, r0, r0, lsl #16
    2518:	30000200 	andcc	r0, r0, r0, lsl #4
    251c:	0000009f 	muleq	r0, pc, r0	; <UNPREDICTABLE>
    2520:	00000000 	andeq	r0, r0, r0
    2524:	0000d000 	andeq	sp, r0, r0
    2528:	0000d400 	andeq	sp, r0, r0, lsl #8
    252c:	7d000200 	sfmvc	f0, 4, [r0, #-0]
    2530:	0000d400 	andeq	sp, r0, r0, lsl #8
    2534:	00015400 	andeq	r5, r1, r0, lsl #8
    2538:	7d000200 	sfmvc	f0, 4, [r0, #-0]
    253c:	00000008 	andeq	r0, r0, r8
    2540:	00000000 	andeq	r0, r0, r0
    2544:	0000ec00 	andeq	lr, r0, r0, lsl #24
    2548:	0000f400 	andeq	pc, r0, r0, lsl #8
    254c:	50000100 	andpl	r0, r0, r0, lsl #2
    2550:	000000f4 	strdeq	r0, [r0], -r4
    2554:	0000012f 	andeq	r0, r0, pc, lsr #2
    2558:	40530001 	subsmi	r0, r3, r1
    255c:	43000001 	movwmi	r0, #1
    2560:	01000001 	tsteq	r0, r1
    2564:	01485300 	mrseq	r5, (UNDEF: 120)
    2568:	01540000 	cmpeq	r4, r0
    256c:	00010000 	andeq	r0, r1, r0
    2570:	00000053 	andeq	r0, r0, r3, asr r0
    2574:	00000000 	andeq	r0, r0, r0
    2578:	00015400 	andeq	r5, r1, r0, lsl #8
    257c:	00015800 	andeq	r5, r1, r0, lsl #16
    2580:	7d000200 	sfmvc	f0, 4, [r0, #-0]
    2584:	00015800 	andeq	r5, r1, r0, lsl #16
    2588:	0001f000 	andeq	pc, r1, r0
    258c:	7d000200 	sfmvc	f0, 4, [r0, #-0]
    2590:	00000010 	andeq	r0, r0, r0, lsl r0
    2594:	00000000 	andeq	r0, r0, r0
    2598:	00015400 	andeq	r5, r1, r0, lsl #8
    259c:	00017400 	andeq	r7, r1, r0, lsl #8
    25a0:	50000100 	andpl	r0, r0, r0, lsl #2
    25a4:	00000174 	andeq	r0, r0, r4, ror r1
    25a8:	000001f0 	strdeq	r0, [r0], -r0	; <UNPREDICTABLE>
    25ac:	00550001 	subseq	r0, r5, r1
    25b0:	00000000 	andeq	r0, r0, r0
    25b4:	7c000000 	stcvc	0, cr0, [r0], {-0}
    25b8:	bc000001 	stclt	0, cr0, [r0], {1}
    25bc:	01000001 	tsteq	r0, r1
    25c0:	01bc5000 			; <UNDEFINED> instruction: 0x01bc5000
    25c4:	01c30000 	biceq	r0, r3, r0
    25c8:	00010000 	andeq	r0, r1, r0
    25cc:	0001d453 	andeq	sp, r1, r3, asr r4
    25d0:	0001d700 	andeq	sp, r1, r0, lsl #14
    25d4:	50000100 	andpl	r0, r0, r0, lsl #2
    25d8:	000001dc 	ldrdeq	r0, [r0], -ip
    25dc:	000001e0 	andeq	r0, r0, r0, ror #3
    25e0:	e0500001 	subs	r0, r0, r1
    25e4:	e4000001 	str	r0, [r0], #-1
    25e8:	01000001 	tsteq	r0, r1
    25ec:	00005300 	andeq	r5, r0, r0, lsl #6
    25f0:	00000000 	andeq	r0, r0, r0
    25f4:	01f00000 	mvnseq	r0, r0
    25f8:	01f40000 	mvnseq	r0, r0
    25fc:	00020000 	andeq	r0, r2, r0
    2600:	01f4007d 	mvnseq	r0, sp, ror r0
    2604:	02680000 	rsbeq	r0, r8, #0
    2608:	00020000 	andeq	r0, r2, r0
    260c:	0000107d 	andeq	r1, r0, sp, ror r0
    2610:	00000000 	andeq	r0, r0, r0
    2614:	01f00000 	mvnseq	r0, r0
    2618:	01fc0000 	mvnseq	r0, r0
    261c:	00010000 	andeq	r0, r1, r0
    2620:	0001fc50 	andeq	pc, r1, r0, asr ip	; <UNPREDICTABLE>
    2624:	00026800 	andeq	r6, r2, r0, lsl #16
    2628:	55000100 	strpl	r0, [r0, #-256]	; 0x100
	...
    2634:	00000200 	andeq	r0, r0, r0, lsl #4
    2638:	00000214 	andeq	r0, r0, r4, lsl r2
    263c:	00500001 	subseq	r0, r0, r1
    2640:	00000000 	andeq	r0, r0, r0
    2644:	f0000000 			; <UNDEFINED> instruction: 0xf0000000
    2648:	5c000001 	stcpl	0, cr0, [r0], {1}
    264c:	02000002 	andeq	r0, r0, #2
    2650:	5c9f3000 	ldcpl	0, cr3, [pc], {0}
    2654:	5f000002 	svcpl	0x00000002
    2658:	01000002 	tsteq	r0, r2
    265c:	025f5300 	subseq	r5, pc, #0
    2660:	02680000 	rsbeq	r0, r8, #0
    2664:	00010000 	andeq	r0, r1, r0
    2668:	00000054 	andeq	r0, r0, r4, asr r0
    266c:	00000000 	andeq	r0, r0, r0
    2670:	00001000 	andeq	r1, r0, r0
    2674:	00001800 	andeq	r1, r0, r0, lsl #16
    2678:	7d000200 	sfmvc	f0, 4, [r0, #-0]
    267c:	00001800 	andeq	r1, r0, r0, lsl #16
    2680:	0000d400 	andeq	sp, r0, r0, lsl #8
    2684:	7d000200 	sfmvc	f0, 4, [r0, #-0]
    2688:	00000008 	andeq	r0, r0, r8
    268c:	00000000 	andeq	r0, r0, r0
    2690:	00001000 	andeq	r1, r0, r0
    2694:	00001c00 	andeq	r1, r0, r0, lsl #24
    2698:	50000100 	andpl	r0, r0, r0, lsl #2
	...
    26a4:	00000010 	andeq	r0, r0, r0, lsl r0
    26a8:	00000028 	andeq	r0, r0, r8, lsr #32
    26ac:	00510001 	subseq	r0, r1, r1
    26b0:	00000000 	andeq	r0, r0, r0
    26b4:	5c000000 	stcpl	0, cr0, [r0], {-0}
    26b8:	94000000 	strls	r0, [r0], #-0
    26bc:	02000000 	andeq	r0, r0, #0
    26c0:	b8749100 	ldmdalt	r4!, {r8, ip, pc}^
    26c4:	d4000000 	strle	r0, [r0], #-0
    26c8:	02000000 	andeq	r0, r0, #0
    26cc:	00749100 	rsbseq	r9, r4, r0, lsl #2
    26d0:	00000000 	andeq	r0, r0, r0
    26d4:	d4000000 	strle	r0, [r0], #-0
    26d8:	dc000000 	stcle	0, cr0, [r0], {-0}
    26dc:	02000000 	andeq	r0, r0, #0
    26e0:	dc007d00 	stcle	13, cr7, [r0], {-0}
    26e4:	78000000 	stmdavc	r0, {}	; <UNPREDICTABLE>
    26e8:	02000001 	andeq	r0, r0, #1
    26ec:	00087d00 	andeq	r7, r8, r0, lsl #26
    26f0:	00000000 	andeq	r0, r0, r0
    26f4:	d4000000 	strle	r0, [r0], #-0
    26f8:	10000000 	andne	r0, r0, r0
    26fc:	01000001 	tsteq	r0, r1
    2700:	01285000 	teqeq	r8, r0
    2704:	01640000 	cmneq	r4, r0
    2708:	00010000 	andeq	r0, r1, r0
    270c:	00000050 	andeq	r0, r0, r0, asr r0
    2710:	00000000 	andeq	r0, r0, r0
    2714:	0000d400 	andeq	sp, r0, r0, lsl #8
    2718:	0000e800 	andeq	lr, r0, r0, lsl #16
    271c:	51000100 	mrspl	r0, (UNDEF: 16)
    2720:	00000128 	andeq	r0, r0, r8, lsr #2
    2724:	0000013c 	andeq	r0, r0, ip, lsr r1
    2728:	00510001 	subseq	r0, r1, r1
    272c:	00000000 	andeq	r0, r0, r0
    2730:	14000000 	strne	r0, [r0], #-0
    2734:	28000001 	stmdacs	r0, {r0}
    2738:	02000001 	andeq	r0, r0, #1
    273c:	68749100 	ldmdavs	r4!, {r8, ip, pc}^
    2740:	78000001 	stmdavc	r0, {r0}
    2744:	02000001 	andeq	r0, r0, #1
    2748:	00749100 	rsbseq	r9, r4, r0, lsl #2
    274c:	00000000 	andeq	r0, r0, r0
    2750:	78000000 	stmdavc	r0, {}	; <UNPREDICTABLE>
    2754:	80000001 	andhi	r0, r0, r1
    2758:	02000001 	andeq	r0, r0, #1
    275c:	80007d00 	andhi	r7, r0, r0, lsl #26
    2760:	cc000001 	stcgt	0, cr0, [r0], {1}
    2764:	02000001 	andeq	r0, r0, #1
    2768:	00087d00 	andeq	r7, r8, r0, lsl #26
    276c:	00000000 	andeq	r0, r0, r0
    2770:	78000000 	stmdavc	r0, {}	; <UNPREDICTABLE>
    2774:	88000001 	stmdahi	r0, {r0}
    2778:	01000001 	tsteq	r0, r1
    277c:	00005000 	andeq	r5, r0, r0
    2780:	00000000 	andeq	r0, r0, r0
    2784:	01780000 	cmneq	r8, r0
    2788:	01a00000 	moveq	r0, r0
    278c:	00010000 	andeq	r0, r1, r0
    2790:	00000051 	andeq	r0, r0, r1, asr r0
    2794:	00000000 	andeq	r0, r0, r0
    2798:	0001a000 	andeq	sl, r1, r0
    279c:	0001a800 	andeq	sl, r1, r0, lsl #16
    27a0:	51000100 	mrspl	r0, (UNDEF: 16)
    27a4:	000001a8 	andeq	r0, r0, r8, lsr #3
    27a8:	000001ac 	andeq	r0, r0, ip, lsr #3
    27ac:	74910002 	ldrvc	r0, [r1], #2
    27b0:	000001b0 			; <UNDEFINED> instruction: 0x000001b0
    27b4:	000001b4 			; <UNDEFINED> instruction: 0x000001b4
    27b8:	b4510001 	ldrblt	r0, [r1], #-1
    27bc:	b8000001 	stmdalt	r0, {r0}
    27c0:	02000001 	andeq	r0, r0, #1
    27c4:	bc749100 	ldfltp	f1, [r4], #-0
    27c8:	c0000001 	andgt	r0, r0, r1
    27cc:	01000001 	tsteq	r0, r1
    27d0:	01c05200 	biceq	r5, r0, r0, lsl #4
    27d4:	01cc0000 	biceq	r0, ip, r0
    27d8:	00020000 	andeq	r0, r2, r0
    27dc:	00007491 	muleq	r0, r1, r4
    27e0:	00000000 	andeq	r0, r0, r0
    27e4:	01cc0000 	biceq	r0, ip, r0
    27e8:	01d40000 	bicseq	r0, r4, r0
    27ec:	00020000 	andeq	r0, r2, r0
    27f0:	01d4007d 	bicseq	r0, r4, sp, ror r0
    27f4:	01f80000 	mvnseq	r0, r0
    27f8:	00020000 	andeq	r0, r2, r0
    27fc:	0000087d 	andeq	r0, r0, sp, ror r8
    2800:	00000000 	andeq	r0, r0, r0
    2804:	01cc0000 	biceq	r0, ip, r0
    2808:	01dc0000 	bicseq	r0, ip, r0
    280c:	00010000 	andeq	r0, r1, r0
    2810:	00000050 	andeq	r0, r0, r0, asr r0
    2814:	00000000 	andeq	r0, r0, r0
    2818:	0001e000 	andeq	lr, r1, r0
    281c:	0001ec00 	andeq	lr, r1, r0, lsl #24
    2820:	53000100 	movwpl	r0, #256	; 0x100
    2824:	000001ec 	andeq	r0, r0, ip, ror #3
    2828:	000001f8 	strdeq	r0, [r0], -r8
    282c:	74910002 	ldrvc	r0, [r1], #2
	...
    2838:	000001f8 	strdeq	r0, [r0], -r8
    283c:	000001fc 	strdeq	r0, [r0], -ip
    2840:	00500001 	subseq	r0, r0, r1
    2844:	00000000 	andeq	r0, r0, r0
    2848:	18000000 	stmdane	r0, {}	; <UNPREDICTABLE>
    284c:	20000002 	andcs	r0, r0, r2
    2850:	02000002 	andeq	r0, r0, #2
    2854:	20007d00 	andcs	r7, r0, r0, lsl #26
    2858:	04000002 	streq	r0, [r0], #-2
    285c:	02000003 	andeq	r0, r0, #3
    2860:	00087d00 	andeq	r7, r8, r0, lsl #26
    2864:	00000000 	andeq	r0, r0, r0
    2868:	18000000 	stmdane	r0, {}	; <UNPREDICTABLE>
    286c:	4c000002 	stcmi	0, cr0, [r0], {2}
    2870:	02000002 	andeq	r0, r0, #2
    2874:	4c9f3000 	ldcmi	0, cr3, [pc], {0}
    2878:	84000002 	strhi	r0, [r0], #-2
    287c:	01000002 	tsteq	r0, r2
    2880:	028c5000 	addeq	r5, ip, #0
    2884:	02b80000 	adcseq	r0, r8, #0
    2888:	00020000 	andeq	r0, r2, r0
    288c:	02b89f30 	adcseq	r9, r8, #192	; 0xc0
    2890:	02dc0000 	sbcseq	r0, ip, #0
    2894:	00010000 	andeq	r0, r1, r0
    2898:	0002dc51 	andeq	sp, r2, r1, asr ip
    289c:	0002fc00 	andeq	pc, r2, r0, lsl #24
    28a0:	50000100 	andpl	r0, r0, r0, lsl #2
	...
    28ac:	00000234 	andeq	r0, r0, r4, lsr r2
    28b0:	0000023c 	andeq	r0, r0, ip, lsr r2
    28b4:	3c530001 	mrrccc	0, 0, r0, r3, cr1
    28b8:	8c000002 	stchi	0, cr0, [r0], {2}
    28bc:	02000002 	andeq	r0, r0, #2
    28c0:	f8749100 			; <UNDEFINED> instruction: 0xf8749100
    28c4:	04000002 	streq	r0, [r0], #-2
    28c8:	02000003 	andeq	r0, r0, #3
    28cc:	00749100 	rsbseq	r9, r4, r0, lsl #2
    28d0:	00000000 	andeq	r0, r0, r0
    28d4:	4c000000 	stcmi	0, cr0, [r0], {-0}
    28d8:	84000002 	strhi	r0, [r0], #-2
    28dc:	01000002 	tsteq	r0, r2
    28e0:	02f85000 	rscseq	r5, r8, #0
    28e4:	02fc0000 	rscseq	r0, ip, #0
    28e8:	00010000 	andeq	r0, r1, r0
    28ec:	00000050 	andeq	r0, r0, r0, asr r0
    28f0:	00000000 	andeq	r0, r0, r0
    28f4:	00027400 	andeq	r7, r2, r0, lsl #8
    28f8:	00028400 	andeq	r8, r2, r0, lsl #8
    28fc:	31000200 	mrscc	r0, R8_usr
    2900:	0000009f 	muleq	r0, pc, r0	; <UNPREDICTABLE>
    2904:	00000000 	andeq	r0, r0, r0
    2908:	00027400 	andeq	r7, r2, r0, lsl #8
    290c:	00028400 	andeq	r8, r2, r0, lsl #8
    2910:	30000200 	andcc	r0, r0, r0, lsl #4
    2914:	0000009f 	muleq	r0, pc, r0	; <UNPREDICTABLE>
    2918:	00000000 	andeq	r0, r0, r0
    291c:	00028400 	andeq	r8, r2, r0, lsl #8
    2920:	00028c00 	andeq	r8, r2, r0, lsl #24
    2924:	91000200 	mrsls	r0, R8_usr
    2928:	0002a074 	andeq	sl, r2, r4, ror r0
    292c:	0002a800 	andeq	sl, r2, r0, lsl #16
    2930:	53000100 	movwpl	r0, #256	; 0x100
    2934:	000002a8 	andeq	r0, r0, r8, lsr #5
    2938:	000002f8 	strdeq	r0, [r0], -r8
    293c:	74910002 	ldrvc	r0, [r1], #2
	...
    2948:	000002b8 			; <UNDEFINED> instruction: 0x000002b8
    294c:	000002dc 	ldrdeq	r0, [r0], -ip
    2950:	dc510001 	mrrcle	0, 0, r0, r1, cr1
    2954:	f8000002 			; <UNDEFINED> instruction: 0xf8000002
    2958:	01000002 	tsteq	r0, r2
    295c:	00005000 	andeq	r5, r0, r0
    2960:	00000000 	andeq	r0, r0, r0
    2964:	02e40000 	rsceq	r0, r4, #0
    2968:	02f80000 	rscseq	r0, r8, #0
    296c:	00020000 	andeq	r0, r2, r0
    2970:	00009f31 	andeq	r9, r0, r1, lsr pc
    2974:	00000000 	andeq	r0, r0, r0
    2978:	02e40000 	rsceq	r0, r4, #0
    297c:	02f80000 	rscseq	r0, r8, #0
    2980:	00020000 	andeq	r0, r2, r0
    2984:	00009f32 	andeq	r9, r0, r2, lsr pc
    2988:	00000000 	andeq	r0, r0, r0
    298c:	03040000 	movweq	r0, #16384	; 0x4000
    2990:	03240000 	teqeq	r4, #0
    2994:	00010000 	andeq	r0, r1, r0
    2998:	00032c50 	andeq	r2, r3, r0, asr ip
    299c:	00033000 	andeq	r3, r3, r0
    29a0:	50000100 	andpl	r0, r0, r0, lsl #2
	...
    29ac:	00000010 	andeq	r0, r0, r0, lsl r0
    29b0:	00000030 	andeq	r0, r0, r0, lsr r0
    29b4:	00500001 	subseq	r0, r0, r1
    29b8:	00000000 	andeq	r0, r0, r0
    29bc:	34000000 	strcc	r0, [r0], #-0
    29c0:	48000000 	stmdami	r0, {}	; <UNPREDICTABLE>
    29c4:	01000000 	mrseq	r0, (UNDEF: 0)
    29c8:	00005000 	andeq	r5, r0, r0
    29cc:	00000000 	andeq	r0, r0, r0
    29d0:	00300000 	eorseq	r0, r0, r0
    29d4:	00340000 	eorseq	r0, r4, r0
    29d8:	00020000 	andeq	r0, r2, r0
    29dc:	0034007d 	eorseq	r0, r4, sp, ror r0
    29e0:	00c40000 	sbceq	r0, r4, r0
    29e4:	00020000 	andeq	r0, r2, r0
    29e8:	0000107d 	andeq	r1, r0, sp, ror r0
    29ec:	00000000 	andeq	r0, r0, r0
    29f0:	00300000 	eorseq	r0, r0, r0
    29f4:	00400000 	subeq	r0, r0, r0
    29f8:	00010000 	andeq	r0, r1, r0
    29fc:	00004050 	andeq	r4, r0, r0, asr r0
    2a00:	0000a800 	andeq	sl, r0, r0, lsl #16
    2a04:	54000100 	strpl	r0, [r0], #-256	; 0x100
	...
    2a10:	00000030 	andeq	r0, r0, r0, lsr r0
    2a14:	0000004c 	andeq	r0, r0, ip, asr #32
    2a18:	9f300002 	svcls	0x00300002
    2a1c:	0000004c 	andeq	r0, r0, ip, asr #32
    2a20:	00000068 	andeq	r0, r0, r8, rrx
    2a24:	b8030005 	stmdalt	r3, {r0, r2}
    2a28:	68f0003e 	ldmvs	r0!, {r1, r2, r3, r4, r5}^
    2a2c:	78000000 	stmdavc	r0, {}	; <UNPREDICTABLE>
    2a30:	01000000 	mrseq	r0, (UNDEF: 0)
    2a34:	00785500 	rsbseq	r5, r8, r0, lsl #10
    2a38:	007c0000 	rsbseq	r0, ip, r0
    2a3c:	00010000 	andeq	r0, r1, r0
    2a40:	00007c53 	andeq	r7, r0, r3, asr ip
    2a44:	00008400 	andeq	r8, r0, r0, lsl #8
    2a48:	55000100 	strpl	r0, [r0, #-256]	; 0x100
    2a4c:	00000094 	muleq	r0, r4, r0
    2a50:	0000009c 	muleq	r0, ip, r0
    2a54:	9c530001 	mrrcls	0, 0, r0, r3, cr1
    2a58:	c4000000 	strgt	r0, [r0], #-0
    2a5c:	01000000 	mrseq	r0, (UNDEF: 0)
    2a60:	00005500 	andeq	r5, r0, r0, lsl #10
    2a64:	00000000 	andeq	r0, r0, r0
    2a68:	00300000 	eorseq	r0, r0, r0
    2a6c:	00980000 	addseq	r0, r8, r0
    2a70:	00020000 	andeq	r0, r2, r0
    2a74:	00989f30 	addseq	r9, r8, r0, lsr pc
    2a78:	009c0000 	addseq	r0, ip, r0
    2a7c:	00010000 	andeq	r0, r1, r0
    2a80:	00009c53 	andeq	r9, r0, r3, asr ip
    2a84:	0000c400 	andeq	ip, r0, r0, lsl #8
    2a88:	55000100 	strpl	r0, [r0, #-256]	; 0x100
	...
    2a94:	000000c4 	andeq	r0, r0, r4, asr #1
    2a98:	000000c8 	andeq	r0, r0, r8, asr #1
    2a9c:	007d0002 	rsbseq	r0, sp, r2
    2aa0:	000000c8 	andeq	r0, r0, r8, asr #1
    2aa4:	000000f0 	strdeq	r0, [r0], -r0	; <UNPREDICTABLE>
    2aa8:	087d0002 	ldmdaeq	sp!, {r1}^
	...
    2ab4:	000000c4 	andeq	r0, r0, r4, asr #1
    2ab8:	000000d4 	ldrdeq	r0, [r0], -r4
    2abc:	d4500001 	ldrble	r0, [r0], #-1
    2ac0:	f0000000 			; <UNDEFINED> instruction: 0xf0000000
    2ac4:	01000000 	mrseq	r0, (UNDEF: 0)
    2ac8:	00005400 	andeq	r5, r0, r0, lsl #8
	...
    2ad4:	00180000 	andseq	r0, r8, r0
    2ad8:	00010000 	andeq	r0, r1, r0
    2adc:	00000050 	andeq	r0, r0, r0, asr r0
    2ae0:	00000000 	andeq	r0, r0, r0
    2ae4:	00003000 	andeq	r3, r0, r0
    2ae8:	00003400 	andeq	r3, r0, r0, lsl #8
    2aec:	7d000200 	sfmvc	f0, 4, [r0, #-0]
    2af0:	00003400 	andeq	r3, r0, r0, lsl #8
    2af4:	0000ac00 	andeq	sl, r0, r0, lsl #24
    2af8:	7d000200 	sfmvc	f0, 4, [r0, #-0]
    2afc:	00000008 	andeq	r0, r0, r8
    2b00:	00000000 	andeq	r0, r0, r0
    2b04:	00003000 	andeq	r3, r0, r0
    2b08:	00008400 	andeq	r8, r0, r0, lsl #8
    2b0c:	50000100 	andpl	r0, r0, r0, lsl #2
    2b10:	00000088 	andeq	r0, r0, r8, lsl #1
    2b14:	00000090 	muleq	r0, r0, r0
    2b18:	9c500001 	mrrcls	0, 0, r0, r0, cr1	; <UNPREDICTABLE>
    2b1c:	a0000000 	andge	r0, r0, r0
    2b20:	01000000 	mrseq	r0, (UNDEF: 0)
    2b24:	00005000 	andeq	r5, r0, r0
    2b28:	00000000 	andeq	r0, r0, r0
    2b2c:	00300000 	eorseq	r0, r0, r0
    2b30:	00640000 	rsbeq	r0, r4, r0
    2b34:	00010000 	andeq	r0, r1, r0
    2b38:	00009c51 	andeq	r9, r0, r1, asr ip
    2b3c:	0000ac00 	andeq	sl, r0, r0, lsl #24
    2b40:	51000100 	mrspl	r0, (UNDEF: 16)
	...
    2b4c:	00000030 	andeq	r0, r0, r0, lsr r0
    2b50:	00000064 	andeq	r0, r0, r4, rrx
    2b54:	00710005 	rsbseq	r0, r1, r5
    2b58:	649f243a 	ldrvs	r2, [pc], #1082	; 2b60 <__standby_start+0x2b60>
    2b5c:	6c000000 	stcvs	0, cr0, [r0], {-0}
    2b60:	01000000 	mrseq	r0, (UNDEF: 0)
    2b64:	006c5100 	rsbeq	r5, ip, r0, lsl #2
    2b68:	00700000 	rsbseq	r0, r0, r0
    2b6c:	00030000 	andeq	r0, r3, r0
    2b70:	709f7f71 	addsvc	r7, pc, r1, ror pc	; <UNPREDICTABLE>
    2b74:	74000000 	strvc	r0, [r0], #-0
    2b78:	01000000 	mrseq	r0, (UNDEF: 0)
    2b7c:	00745100 	rsbseq	r5, r4, r0, lsl #2
    2b80:	00880000 	addeq	r0, r8, r0
    2b84:	00030000 	andeq	r0, r3, r0
    2b88:	9c9f7f71 	ldcls	15, cr7, [pc], {113}	; 0x71
    2b8c:	ac000000 	stcge	0, cr0, [r0], {-0}
    2b90:	05000000 	streq	r0, [r0, #-0]
    2b94:	3a007100 	bcc	1ef9c <__standby_start+0x1ef9c>
    2b98:	00009f24 	andeq	r9, r0, r4, lsr #30
    2b9c:	00000000 	andeq	r0, r0, r0
    2ba0:	003c0000 	eorseq	r0, ip, r0
    2ba4:	00930000 	addseq	r0, r3, r0
    2ba8:	00010000 	andeq	r0, r1, r0
    2bac:	00009c5c 	andeq	r9, r0, ip, asr ip
    2bb0:	0000ac00 	andeq	sl, r0, r0, lsl #24
    2bb4:	5c000100 	stfpls	f0, [r0], {-0}
	...
    2bc0:	00000088 	andeq	r0, r0, r8, lsl #1
    2bc4:	00000093 	muleq	r0, r3, r0
    2bc8:	005c0001 	subseq	r0, ip, r1
    2bcc:	00000000 	andeq	r0, r0, r0
    2bd0:	ac000000 	stcge	0, cr0, [r0], {-0}
    2bd4:	d8000000 	stmdale	r0, {}	; <UNPREDICTABLE>
    2bd8:	01000000 	mrseq	r0, (UNDEF: 0)
    2bdc:	00005000 	andeq	r5, r0, r0
    2be0:	00000000 	andeq	r0, r0, r0
    2be4:	00dc0000 	sbcseq	r0, ip, r0
    2be8:	012c0000 	teqeq	ip, r0
    2bec:	00010000 	andeq	r0, r1, r0
    2bf0:	00013050 	andeq	r3, r1, r0, asr r0
    2bf4:	00013800 	andeq	r3, r1, r0, lsl #16
    2bf8:	50000100 	andpl	r0, r0, r0, lsl #2
    2bfc:	0000013c 	andeq	r0, r0, ip, lsr r1
    2c00:	00000140 	andeq	r0, r0, r0, asr #2
    2c04:	00500001 	subseq	r0, r0, r1
    2c08:	00000000 	andeq	r0, r0, r0
    2c0c:	dc000000 	stcle	0, cr0, [r0], {-0}
    2c10:	0c000000 	stceq	0, cr0, [r0], {-0}
    2c14:	01000001 	tsteq	r0, r1
    2c18:	013c5100 	teqeq	ip, r0, lsl #2
    2c1c:	01480000 	mrseq	r0, (UNDEF: 72)
    2c20:	00010000 	andeq	r0, r1, r0
    2c24:	00000051 	andeq	r0, r0, r1, asr r0
    2c28:	00000000 	andeq	r0, r0, r0
    2c2c:	0000dc00 	andeq	sp, r0, r0, lsl #24
    2c30:	00010c00 	andeq	r0, r1, r0, lsl #24
    2c34:	71000500 	tstvc	r0, r0, lsl #10
    2c38:	9f243a00 	svcls	0x00243a00
    2c3c:	0000010c 	andeq	r0, r0, ip, lsl #2
    2c40:	00000114 	andeq	r0, r0, r4, lsl r1
    2c44:	14510001 	ldrbne	r0, [r1], #-1
    2c48:	18000001 	stmdane	r0, {r0}
    2c4c:	03000001 	movweq	r0, #1
    2c50:	9f7f7100 	svcls	0x007f7100
    2c54:	00000118 	andeq	r0, r0, r8, lsl r1
    2c58:	0000011c 	andeq	r0, r0, ip, lsl r1
    2c5c:	1c510001 	mrrcne	0, 0, r0, r1, cr1
    2c60:	30000001 	andcc	r0, r0, r1
    2c64:	03000001 	movweq	r0, #1
    2c68:	9f7f7100 	svcls	0x007f7100
    2c6c:	0000013c 	andeq	r0, r0, ip, lsr r1
    2c70:	00000148 	andeq	r0, r0, r8, asr #2
    2c74:	00710005 	rsbseq	r0, r1, r5
    2c78:	009f243a 	addseq	r2, pc, sl, lsr r4	; <UNPREDICTABLE>
    2c7c:	00000000 	andeq	r0, r0, r0
    2c80:	30000000 	andcc	r0, r0, r0
    2c84:	3c000001 	stccc	0, cr0, [r0], {1}
    2c88:	01000001 	tsteq	r0, r1
    2c8c:	00005c00 	andeq	r5, r0, r0, lsl #24
    2c90:	00000000 	andeq	r0, r0, r0
    2c94:	01480000 	mrseq	r0, (UNDEF: 72)
    2c98:	01740000 	cmneq	r4, r0
    2c9c:	00010000 	andeq	r0, r1, r0
    2ca0:	00000050 	andeq	r0, r0, r0, asr r0
    2ca4:	00000000 	andeq	r0, r0, r0
	...

Disassembly of section .debug_aranges:

00000000 <.debug_aranges>:
   0:	0000001c 	andeq	r0, r0, ip, lsl r0
   4:	00000002 	andeq	r0, r0, r2
   8:	00040000 	andeq	r0, r4, r0
   c:	00000000 	andeq	r0, r0, r0
  10:	f0000000 			; <UNDEFINED> instruction: 0xf0000000
  14:	000003dc 	ldrdeq	r0, [r0], -ip
	...
  20:	0000001c 	andeq	r0, r0, ip, lsl r0
  24:	08a70002 	stmiaeq	r7!, {r1}
  28:	00040000 	andeq	r0, r4, r0
  2c:	00000000 	andeq	r0, r0, r0
  30:	f00003dc 			; <UNDEFINED> instruction: 0xf00003dc
  34:	00000030 	andeq	r0, r0, r0, lsr r0
	...
  40:	0000001c 	andeq	r0, r0, ip, lsl r0
  44:	097b0002 	ldmdbeq	fp!, {r1}^
  48:	00040000 	andeq	r0, r4, r0
  4c:	00000000 	andeq	r0, r0, r0
  50:	f000040c 			; <UNDEFINED> instruction: 0xf000040c
  54:	000000a8 	andeq	r0, r0, r8, lsr #1
	...
  60:	0000001c 	andeq	r0, r0, ip, lsl r0
  64:	16ff0002 	ldrbtne	r0, [pc], r2
  68:	00040000 	andeq	r0, r4, r0
  6c:	00000000 	andeq	r0, r0, r0
  70:	f00004b4 			; <UNDEFINED> instruction: 0xf00004b4
  74:	00000020 	andeq	r0, r0, r0, lsr #32
	...
  80:	0000001c 	andeq	r0, r0, ip, lsl r0
  84:	17d60002 	ldrbne	r0, [r6, r2]
  88:	00040000 	andeq	r0, r4, r0
  8c:	00000000 	andeq	r0, r0, r0
  90:	f00004d4 			; <UNDEFINED> instruction: 0xf00004d4
  94:	000000a0 	andeq	r0, r0, r0, lsr #1
	...
  a0:	0000001c 	andeq	r0, r0, ip, lsl r0
  a4:	19cb0002 	stmibne	fp, {r1}^
  a8:	00040000 	andeq	r0, r4, r0
  ac:	00000000 	andeq	r0, r0, r0
  b0:	f0000574 			; <UNDEFINED> instruction: 0xf0000574
  b4:	00000468 	andeq	r0, r0, r8, ror #8
	...
  c0:	0000001c 	andeq	r0, r0, ip, lsl r0
  c4:	1e420002 	cdpne	0, 4, cr0, cr2, cr2, {0}
  c8:	00040000 	andeq	r0, r4, r0
  cc:	00000000 	andeq	r0, r0, r0
  d0:	f00009dc 			; <UNDEFINED> instruction: 0xf00009dc
  d4:	000000d4 	ldrdeq	r0, [r0], -r4
	...
  e0:	0000001c 	andeq	r0, r0, ip, lsl r0
  e4:	202e0002 	eorcs	r0, lr, r2
  e8:	00040000 	andeq	r0, r4, r0
  ec:	00000000 	andeq	r0, r0, r0
  f0:	f0000ab0 			; <UNDEFINED> instruction: 0xf0000ab0
  f4:	00000338 	andeq	r0, r0, r8, lsr r3
	...
 100:	0000001c 	andeq	r0, r0, ip, lsl r0
 104:	23660002 	cmncs	r6, #2
 108:	00040000 	andeq	r0, r4, r0
 10c:	00000000 	andeq	r0, r0, r0
 110:	f0000de8 			; <UNDEFINED> instruction: 0xf0000de8
 114:	00000020 	andeq	r0, r0, r0, lsr #32
	...
 120:	0000001c 	andeq	r0, r0, ip, lsl r0
 124:	245c0002 	ldrbcs	r0, [ip], #-2
 128:	00040000 	andeq	r0, r4, r0
 12c:	00000000 	andeq	r0, r0, r0
 130:	f0000e08 			; <UNDEFINED> instruction: 0xf0000e08
 134:	00000378 	andeq	r0, r0, r8, ror r3
	...
 140:	0000001c 	andeq	r0, r0, ip, lsl r0
 144:	283d0002 	ldmdacs	sp!, {r1}
 148:	00040000 	andeq	r0, r4, r0
 14c:	00000000 	andeq	r0, r0, r0
 150:	f0001180 			; <UNDEFINED> instruction: 0xf0001180
 154:	00000200 	andeq	r0, r0, r0, lsl #4
	...
 160:	0000001c 	andeq	r0, r0, ip, lsl r0
 164:	2d370002 	ldccs	0, cr0, [r7, #-8]!
 168:	00040000 	andeq	r0, r4, r0
 16c:	00000000 	andeq	r0, r0, r0
 170:	f0001380 			; <UNDEFINED> instruction: 0xf0001380
 174:	000000a0 	andeq	r0, r0, r0, lsr #1
	...
 180:	0000001c 	andeq	r0, r0, ip, lsl r0
 184:	2e860002 	cdpcs	0, 8, cr0, cr6, cr2, {0}
 188:	00040000 	andeq	r0, r4, r0
 18c:	00000000 	andeq	r0, r0, r0
 190:	f0001980 			; <UNDEFINED> instruction: 0xf0001980
 194:	00000544 	andeq	r0, r0, r4, asr #10
	...
 1a0:	0000001c 	andeq	r0, r0, ip, lsl r0
 1a4:	40430002 	submi	r0, r3, r2
 1a8:	00040000 	andeq	r0, r4, r0
 1ac:	00000000 	andeq	r0, r0, r0
 1b0:	f0001ec4 			; <UNDEFINED> instruction: 0xf0001ec4
 1b4:	000007ec 	andeq	r0, r0, ip, ror #15
	...
 1c0:	0000001c 	andeq	r0, r0, ip, lsl r0
 1c4:	48870002 	stmmi	r7, {r1}
 1c8:	00040000 	andeq	r0, r4, r0
 1cc:	00000000 	andeq	r0, r0, r0
 1d0:	f000288c 			; <UNDEFINED> instruction: 0xf000288c
 1d4:	00000058 	andeq	r0, r0, r8, asr r0
	...
 1e0:	0000001c 	andeq	r0, r0, ip, lsl r0
 1e4:	49810002 	stmibmi	r1, {r1}
 1e8:	00040000 	andeq	r0, r4, r0
 1ec:	00000000 	andeq	r0, r0, r0
 1f0:	f00028e4 			; <UNDEFINED> instruction: 0xf00028e4
 1f4:	0000019c 	muleq	r0, ip, r1
	...
 200:	0000001c 	andeq	r0, r0, ip, lsl r0
 204:	4c520002 	mrrcmi	0, 0, r0, r2, cr2
 208:	00040000 	andeq	r0, r4, r0
 20c:	00000000 	andeq	r0, r0, r0
 210:	f0002a80 			; <UNDEFINED> instruction: 0xf0002a80
 214:	000000a0 	andeq	r0, r0, r0, lsr #1
	...
 220:	0000001c 	andeq	r0, r0, ip, lsl r0
 224:	4dbc0002 	ldcmi	0, cr0, [ip, #8]!
 228:	00040000 	andeq	r0, r4, r0
 22c:	00000000 	andeq	r0, r0, r0
 230:	f0002b20 			; <UNDEFINED> instruction: 0xf0002b20
 234:	000001e8 	andeq	r0, r0, r8, ror #3
	...
 240:	0000001c 	andeq	r0, r0, ip, lsl r0
 244:	52480002 	subpl	r0, r8, #2
 248:	00040000 	andeq	r0, r4, r0
 24c:	00000000 	andeq	r0, r0, r0
 250:	f0002d08 			; <UNDEFINED> instruction: 0xf0002d08
 254:	00000058 	andeq	r0, r0, r8, asr r0
	...
 260:	0000001c 	andeq	r0, r0, ip, lsl r0
 264:	54020002 	strpl	r0, [r2], #-2
 268:	00040000 	andeq	r0, r4, r0
 26c:	00000000 	andeq	r0, r0, r0
 270:	f0002d60 			; <UNDEFINED> instruction: 0xf0002d60
 274:	000003a4 	andeq	r0, r0, r4, lsr #7
	...
 280:	0000001c 	andeq	r0, r0, ip, lsl r0
 284:	64850002 	strvs	r0, [r5], #2
 288:	00040000 	andeq	r0, r4, r0
 28c:	00000000 	andeq	r0, r0, r0
 290:	f0003104 			; <UNDEFINED> instruction: 0xf0003104
 294:	00000268 	andeq	r0, r0, r8, ror #4
	...
 2a0:	0000001c 	andeq	r0, r0, ip, lsl r0
 2a4:	6b2d0002 	blvs	b402b4 <__standby_start+0xb402b4>
 2a8:	00040000 	andeq	r0, r4, r0
 2ac:	00000000 	andeq	r0, r0, r0
 2b0:	f000336c 			; <UNDEFINED> instruction: 0xf000336c
 2b4:	00000338 	andeq	r0, r0, r8, lsr r3
	...
 2c0:	0000001c 	andeq	r0, r0, ip, lsl r0
 2c4:	6f9a0002 	svcvs	0x009a0002
 2c8:	00040000 	andeq	r0, r4, r0
 2cc:	00000000 	andeq	r0, r0, r0
 2d0:	f00036a4 			; <UNDEFINED> instruction: 0xf00036a4
 2d4:	00000054 	andeq	r0, r0, r4, asr r0
	...
 2e0:	0000001c 	andeq	r0, r0, ip, lsl r0
 2e4:	70970002 	addsvc	r0, r7, r2
 2e8:	00040000 	andeq	r0, r4, r0
 2ec:	00000000 	andeq	r0, r0, r0
 2f0:	f00036f8 			; <UNDEFINED> instruction: 0xf00036f8
 2f4:	000000f0 	strdeq	r0, [r0], -r0	; <UNPREDICTABLE>
	...
 300:	0000001c 	andeq	r0, r0, ip, lsl r0
 304:	73420002 	movtvc	r0, #8194	; 0x2002
 308:	00040000 	andeq	r0, r4, r0
 30c:	00000000 	andeq	r0, r0, r0
 310:	f00037e8 			; <UNDEFINED> instruction: 0xf00037e8
 314:	00000178 	andeq	r0, r0, r8, ror r1
	...

Disassembly of section .debug_ranges:

00000000 <.debug_ranges>:
   0:	000000e4 	andeq	r0, r0, r4, ror #1
   4:	000001cc 	andeq	r0, r0, ip, asr #3
   8:	00000224 	andeq	r0, r0, r4, lsr #4
   c:	00000240 	andeq	r0, r0, r0, asr #4
  10:	000002cc 	andeq	r0, r0, ip, asr #5
  14:	000003dc 	ldrdeq	r0, [r0], -ip
	...
  20:	000000e4 	andeq	r0, r0, r4, ror #1
  24:	000001cc 	andeq	r0, r0, ip, asr #3
  28:	00000224 	andeq	r0, r0, r4, lsr #4
  2c:	00000240 	andeq	r0, r0, r0, asr #4
  30:	000002cc 	andeq	r0, r0, ip, asr #5
  34:	000003dc 	ldrdeq	r0, [r0], -ip
	...
  40:	00000108 	andeq	r0, r0, r8, lsl #2
  44:	00000114 	andeq	r0, r0, r4, lsl r1
  48:	00000118 	andeq	r0, r0, r8, lsl r1
  4c:	00000120 	andeq	r0, r0, r0, lsr #2
	...
  58:	00000108 	andeq	r0, r0, r8, lsl #2
  5c:	00000114 	andeq	r0, r0, r4, lsl r1
  60:	00000118 	andeq	r0, r0, r8, lsl r1
  64:	00000120 	andeq	r0, r0, r0, lsr #2
	...
  70:	000002d8 	ldrdeq	r0, [r0], -r8
  74:	00000308 	andeq	r0, r0, r8, lsl #6
  78:	0000030c 	andeq	r0, r0, ip, lsl #6
  7c:	00000310 	andeq	r0, r0, r0, lsl r3
	...
  8c:	00000004 	andeq	r0, r0, r4
  90:	0000000c 	andeq	r0, r0, ip
  94:	00000044 	andeq	r0, r0, r4, asr #32
  98:	0000004c 	andeq	r0, r0, ip, asr #32
  9c:	00000050 	andeq	r0, r0, r0, asr r0
	...
  ac:	00000004 	andeq	r0, r0, r4
  b0:	0000000c 	andeq	r0, r0, ip
  b4:	00000044 	andeq	r0, r0, r4, asr #32
  b8:	0000004c 	andeq	r0, r0, ip, asr #32
  bc:	00000050 	andeq	r0, r0, r0, asr r0
	...
  c8:	00000198 	muleq	r0, r8, r1
  cc:	0000019c 	muleq	r0, ip, r1
  d0:	000001a8 	andeq	r0, r0, r8, lsr #3
  d4:	000001e4 	andeq	r0, r0, r4, ror #3
  d8:	000001ec 	andeq	r0, r0, ip, ror #3
  dc:	000001f0 	strdeq	r0, [r0], -r0	; <UNPREDICTABLE>
	...
  e8:	00000198 	muleq	r0, r8, r1
  ec:	0000019c 	muleq	r0, ip, r1
  f0:	000001a8 	andeq	r0, r0, r8, lsr #3
  f4:	000001e4 	andeq	r0, r0, r4, ror #3
  f8:	000001ec 	andeq	r0, r0, ip, ror #3
  fc:	000001f0 	strdeq	r0, [r0], -r0	; <UNPREDICTABLE>
	...
 108:	0000025c 	andeq	r0, r0, ip, asr r2
 10c:	00000298 	muleq	r0, r8, r2
 110:	000002a0 	andeq	r0, r0, r0, lsr #5
 114:	000002dc 	ldrdeq	r0, [r0], -ip
 118:	0000032c 	andeq	r0, r0, ip, lsr #6
 11c:	00000338 	andeq	r0, r0, r8, lsr r3
	...
 128:	0000025c 	andeq	r0, r0, ip, asr r2
 12c:	00000298 	muleq	r0, r8, r2
 130:	000002a0 	andeq	r0, r0, r0, lsr #5
 134:	000002dc 	ldrdeq	r0, [r0], -ip
 138:	0000032c 	andeq	r0, r0, ip, lsr #6
 13c:	00000338 	andeq	r0, r0, r8, lsr r3
	...
 148:	000000e4 	andeq	r0, r0, r4, ror #1
 14c:	000000f4 	strdeq	r0, [r0], -r4
 150:	000000fc 	strdeq	r0, [r0], -ip
 154:	00000108 	andeq	r0, r0, r8, lsl #2
	...
 160:	000000e4 	andeq	r0, r0, r4, ror #1
 164:	000000f4 	strdeq	r0, [r0], -r4
 168:	000000fc 	strdeq	r0, [r0], -ip
 16c:	00000108 	andeq	r0, r0, r8, lsl #2
	...
 178:	000001d0 	ldrdeq	r0, [r0], -r0	; <UNPREDICTABLE>
 17c:	000001d8 	ldrdeq	r0, [r0], -r8
 180:	00000210 	andeq	r0, r0, r0, lsl r2
 184:	00000214 	andeq	r0, r0, r4, lsl r2
	...
 190:	0000023c 	andeq	r0, r0, ip, lsr r2
 194:	00000240 	andeq	r0, r0, r0, asr #4
 198:	00000244 	andeq	r0, r0, r4, asr #4
 19c:	0000024c 	andeq	r0, r0, ip, asr #4
 1a0:	00000298 	muleq	r0, r8, r2
 1a4:	000002c8 	andeq	r0, r0, r8, asr #5
	...
 1b0:	000002f4 	strdeq	r0, [r0], -r4
 1b4:	000002f8 	strdeq	r0, [r0], -r8
 1b8:	000002fc 	strdeq	r0, [r0], -ip
 1bc:	00000300 	andeq	r0, r0, r0, lsl #6
 1c0:	00000308 	andeq	r0, r0, r8, lsl #6
 1c4:	00000324 	andeq	r0, r0, r4, lsr #6
 1c8:	0000032c 	andeq	r0, r0, ip, lsr #6
 1cc:	00000334 	andeq	r0, r0, r4, lsr r3
	...
 1d8:	000002f4 	strdeq	r0, [r0], -r4
 1dc:	000002f8 	strdeq	r0, [r0], -r8
 1e0:	000002fc 	strdeq	r0, [r0], -ip
 1e4:	00000300 	andeq	r0, r0, r0, lsl #6
 1e8:	00000308 	andeq	r0, r0, r8, lsl #6
 1ec:	00000324 	andeq	r0, r0, r4, lsr #6
 1f0:	0000032c 	andeq	r0, r0, ip, lsr #6
 1f4:	00000334 	andeq	r0, r0, r4, lsr r3
	...
 200:	0000042c 	andeq	r0, r0, ip, lsr #8
 204:	00000430 	andeq	r0, r0, r0, lsr r4
 208:	00000434 	andeq	r0, r0, r4, lsr r4
 20c:	0000043c 	andeq	r0, r0, ip, lsr r4
 210:	00000488 	andeq	r0, r0, r8, lsl #9
 214:	000004b8 			; <UNDEFINED> instruction: 0x000004b8
	...
 220:	000004e4 	andeq	r0, r0, r4, ror #9
 224:	000004e8 	andeq	r0, r0, r8, ror #9
 228:	000004ec 	andeq	r0, r0, ip, ror #9
 22c:	000004f0 	strdeq	r0, [r0], -r0	; <UNPREDICTABLE>
 230:	000004f8 	strdeq	r0, [r0], -r8
 234:	00000514 	andeq	r0, r0, r4, lsl r5
 238:	0000051c 	andeq	r0, r0, ip, lsl r5
 23c:	00000524 	andeq	r0, r0, r4, lsr #10
	...
 248:	000004e4 	andeq	r0, r0, r4, ror #9
 24c:	000004e8 	andeq	r0, r0, r8, ror #9
 250:	000004ec 	andeq	r0, r0, ip, ror #9
 254:	000004f0 	strdeq	r0, [r0], -r0	; <UNPREDICTABLE>
 258:	000004f8 	strdeq	r0, [r0], -r8
 25c:	00000514 	andeq	r0, r0, r4, lsl r5
 260:	0000051c 	andeq	r0, r0, ip, lsl r5
 264:	00000524 	andeq	r0, r0, r4, lsr #10
	...
 270:	000000f8 	strdeq	r0, [r0], -r8
 274:	000000fc 	strdeq	r0, [r0], -ip
 278:	00000100 	andeq	r0, r0, r0, lsl #2
 27c:	00000154 	andeq	r0, r0, r4, asr r1
	...
 288:	000000f8 	strdeq	r0, [r0], -r8
 28c:	000000fc 	strdeq	r0, [r0], -ip
 290:	00000100 	andeq	r0, r0, r0, lsl #2
 294:	00000154 	andeq	r0, r0, r4, asr r1
	...
 2a0:	00000230 	andeq	r0, r0, r0, lsr r2
 2a4:	00000284 	andeq	r0, r0, r4, lsl #5
 2a8:	000002f8 	strdeq	r0, [r0], -r8
 2ac:	00000304 	andeq	r0, r0, r4, lsl #6
	...
 2b8:	00000244 	andeq	r0, r0, r4, asr #4
 2bc:	00000248 	andeq	r0, r0, r8, asr #4
 2c0:	0000024c 	andeq	r0, r0, ip, asr #4
 2c4:	00000260 	andeq	r0, r0, r0, ror #4
 2c8:	000002f8 	strdeq	r0, [r0], -r8
 2cc:	00000304 	andeq	r0, r0, r4, lsl #6
	...
 2d8:	000002b0 			; <UNDEFINED> instruction: 0x000002b0
 2dc:	000002b4 			; <UNDEFINED> instruction: 0x000002b4
 2e0:	000002b8 			; <UNDEFINED> instruction: 0x000002b8
 2e4:	000002cc 	andeq	r0, r0, ip, asr #5
	...
 2f0:	000000b0 	strheq	r0, [r0], -r0	; <UNPREDICTABLE>
 2f4:	000000b4 	strheq	r0, [r0], -r4
 2f8:	000000c0 	andeq	r0, r0, r0, asr #1
 2fc:	000000c4 	andeq	r0, r0, r4, asr #1
 300:	000000c8 	andeq	r0, r0, r8, asr #1
 304:	000000cc 	andeq	r0, r0, ip, asr #1
 308:	000000d0 	ldrdeq	r0, [r0], -r0	; <UNPREDICTABLE>
 30c:	000000d4 	ldrdeq	r0, [r0], -r4
	...
 318:	0000014c 	andeq	r0, r0, ip, asr #2
 31c:	00000150 	andeq	r0, r0, r0, asr r1
 320:	0000015c 	andeq	r0, r0, ip, asr r1
 324:	00000160 	andeq	r0, r0, r0, ror #2
 328:	00000164 	andeq	r0, r0, r4, ror #2
 32c:	00000168 	andeq	r0, r0, r8, ror #2
 330:	0000016c 	andeq	r0, r0, ip, ror #2
 334:	00000170 	andeq	r0, r0, r0, ror r1
	...

Disassembly of section .debug_line:

00000000 <.debug_line>:
       0:	0000018a 	andeq	r0, r0, sl, lsl #3
       4:	00c10002 	sbceq	r0, r1, r2
       8:	01020000 	mrseq	r0, (UNDEF: 2)
       c:	000d0efb 	strdeq	r0, [sp], -fp
      10:	01010101 	tsteq	r1, r1, lsl #2
      14:	01000000 	mrseq	r0, (UNDEF: 0)
      18:	61010000 	mrsvs	r0, (UNDEF: 1)
      1c:	2f686372 	svccs	0x00686372
      20:	2f6d7261 	svccs	0x006d7261
      24:	6863616d 	stmdavs	r3!, {r0, r2, r3, r5, r6, r8, sp, lr}^
      28:	6e75732d 	cdpvs	3, 7, cr7, cr5, cr13, {1}
      2c:	702f6978 	eorvc	r6, pc, r8, ror r9	; <UNPREDICTABLE>
      30:	74732f6d 	ldrbtvc	r2, [r3], #-3949	; 0xf6d
      34:	62646e61 	rsbvs	r6, r4, #1552	; 0x610
      38:	72610079 	rsbvc	r0, r1, #121	; 0x79
      3c:	612f6863 	teqvs	pc, r3, ror #16
      40:	6d2f6d72 	stcvs	13, cr6, [pc, #-456]!	; fffffe80 <__bss_end+0xfffbd80>
      44:	2d686361 	stclcs	3, cr6, [r8, #-388]!	; 0xfffffe7c
      48:	786e7573 	stmdavc	lr!, {r0, r1, r4, r5, r6, r8, sl, ip, sp, lr}^
      4c:	6d702f69 	ldclvs	15, cr2, [r0, #-420]!	; 0xfffffe5c
      50:	6174732f 	cmnvs	r4, pc, lsr #6
      54:	7962646e 	stmdbvc	r2!, {r1, r2, r3, r5, r6, sl, sp, lr}^
      58:	002e2e2f 	eoreq	r2, lr, pc, lsr #28
      5c:	6c636e69 	stclvs	14, cr6, [r3], #-420	; 0xfffffe5c
      60:	2f656475 	svccs	0x00656475
      64:	756e696c 	strbvc	r6, [lr, #-2412]!	; 0x96c
      68:	6f702f78 	svcvs	0x00702f78
      6c:	00726577 	rsbseq	r6, r2, r7, ror r5
      70:	61747300 	cmnvs	r4, r0, lsl #6
      74:	7962646e 	stmdbvc	r2!, {r1, r2, r3, r5, r6, sl, sp, lr}^
      78:	0100632e 	tsteq	r0, lr, lsr #6
      7c:	6d700000 	ldclvs	0, cr0, [r0, #-0]
      80:	6265645f 	rsbvs	r6, r5, #1593835520	; 0x5f000000
      84:	682e6775 	stmdavs	lr!, {r0, r2, r4, r5, r6, r8, r9, sl, sp, lr}
      88:	00000200 	andeq	r0, r0, r0, lsl #4
      8c:	5f6d656d 	svcpl	0x006d656d
      90:	2e746e69 	cdpcs	14, 7, cr6, cr4, cr9, {3}
      94:	00020068 	andeq	r0, r2, r8, rrx
      98:	70786100 	rsbsvc	r6, r8, r0, lsl #2
      9c:	7065645f 	rsbvc	r6, r5, pc, asr r4
      a0:	2e646e65 	cdpcs	14, 6, cr6, cr4, cr5, {3}
      a4:	00030068 	andeq	r0, r3, r8, rrx
      a8:	5f776100 	svcpl	0x00776100
      ac:	682e6d70 	stmdavs	lr!, {r4, r5, r6, r8, sl, fp, sp, lr}
      b0:	00000300 	andeq	r0, r0, r0, lsl #6
      b4:	745f6d70 	ldrbvc	r6, [pc], #-3440	; bc <__standby_start+0xbc>
      b8:	73657079 	cmnvc	r5, #121	; 0x79
      bc:	0200682e 	andeq	r6, r0, #3014656	; 0x2e0000
      c0:	6d700000 	ldclvs	0, cr0, [r0, #-0]
      c4:	0200682e 	andeq	r6, r0, #3014656	; 0x2e0000
      c8:	00000000 	andeq	r0, r0, r0
      cc:	00000205 	andeq	r0, r0, r5, lsl #4
      d0:	d503f000 	strle	pc, [r3, #-0]
      d4:	30310100 	eorscc	r0, r1, r0, lsl #2
      d8:	7703352c 	strvc	r3, [r3, -ip, lsr #10]
      dc:	2e0c032e 	cdpcs	3, 0, cr0, cr12, cr14, {1}
      e0:	01040200 	mrseq	r0, R12_usr
      e4:	69064a06 	stmdbvs	r6, {r1, r2, r9, fp, lr}
      e8:	4d4c2933 	stclmi	9, cr2, [ip, #-204]	; 0xffffff34
      ec:	67348583 	ldrvs	r8, [r4, -r3, lsl #11]!
      f0:	4c314c2f 	ldcmi	12, cr4, [r1], #-188	; 0xffffff44
      f4:	9f4b676e 	svcls	0x004b676e
      f8:	036a4f4c 	cmneq	sl, #304	; 0x130
      fc:	4b4a028e 	blmi	1280b3c <__standby_start+0x1280b3c>
     100:	3029312f 	eorcc	r3, r9, pc, lsr #2
     104:	3f033131 	svccc	0x00033131
     108:	03302f2e 	teqeq	r0, #184	; 0xb8
     10c:	29032e57 	stmdbcs	r3, {r0, r1, r2, r4, r6, r9, sl, fp, sp}
     110:	4203302e 	andmi	r3, r3, #46	; 0x2e
     114:	2e13032e 	cdpcs	3, 1, cr0, cr3, cr14, {1}
     118:	2f2e6d03 	svccs	0x002e6d03
     11c:	4c4c2f4c 	mcrrmi	15, 4, r2, ip, cr12
     120:	302c304c 	eorcc	r3, ip, ip, asr #32
     124:	4d4b2d4b 	stclmi	13, cr2, [fp, #-300]	; 0xfffffed4
     128:	494c852b 	stmdbmi	ip, {r0, r1, r3, r5, r8, sl, pc}^
     12c:	03362d4b 	teqeq	r6, #4800	; 0x12c0
     130:	2f4c4a0b 	svccs	0x004c4a0b
     134:	667dc203 	ldrbtvs	ip, [sp], -r3, lsl #4
     138:	31336b4c 	teqcc	r3, ip, asr #22
     13c:	03312f2a 	teqeq	r1, #168	; 0xa8
     140:	67672e16 			; <UNDEFINED> instruction: 0x67672e16
     144:	80034c2f 	andhi	r4, r3, pc, lsr #24
     148:	03674a02 	cmneq	r7, #8192	; 0x2000
     14c:	4b8200ed 	blmi	fe080508 <__bss_end+0xe07c408>
     150:	674b4b4b 	strbvs	r4, [fp, -fp, asr #22]
     154:	03676767 	cmneq	r7, #27000832	; 0x19c0000
     158:	2f827cc7 	svccs	0x00827cc7
     15c:	00c10367 	sbceq	r0, r1, r7, ror #6
     160:	59032f66 	stmdbpl	r3, {r1, r2, r5, r6, r8, r9, sl, fp, sp}
     164:	02bb032e 	adcseq	r0, fp, #-1207959552	; 0xb8000000
     168:	00e8034a 	rsceq	r0, r8, sl, asr #6
     16c:	67678366 	strbvs	r8, [r7, -r6, ror #6]!
     170:	4a7f8803 	bmi	1fe2184 <__standby_start+0x1fe2184>
     174:	2e00f803 	cdpcs	8, 0, cr15, cr0, cr3, {0}
     178:	2e7f8803 	cdpcs	8, 7, cr8, cr15, cr3, {0}
     17c:	fe033d08 	cdp2	13, 0, cr3, cr3, cr8, {0}
     180:	83834a00 	orrhi	r4, r3, #0
     184:	7f820383 	svcvc	0x00820383
     188:	002c029e 	mlaeq	ip, lr, r2, r0
     18c:	00680101 	rsbeq	r0, r8, r1, lsl #2
     190:	00020000 	andeq	r0, r2, r0
     194:	0000003e 	andeq	r0, r0, lr, lsr r0
     198:	0efb0102 	cdpeq	1, 15, cr0, cr11, cr2, {0}
     19c:	0101000d 	tsteq	r1, sp
     1a0:	00000101 	andeq	r0, r0, r1, lsl #2
     1a4:	00000100 	andeq	r0, r0, r0, lsl #2
     1a8:	63726101 	cmnvs	r2, #1073741824	; 0x40000000
     1ac:	72612f68 	rsbvc	r2, r1, #416	; 0x1a0
     1b0:	616d2f6d 	cmnvs	sp, sp, ror #30
     1b4:	732d6863 	teqvc	sp, #6488064	; 0x630000
     1b8:	69786e75 	ldmdbvs	r8!, {r0, r2, r4, r5, r6, r9, sl, fp, sp, lr}^
     1bc:	2f6d702f 	svccs	0x006d702f
     1c0:	6e617473 	mcrvs	4, 3, r7, cr1, cr3, {3}
     1c4:	00796264 	rsbseq	r6, r9, r4, ror #4
     1c8:	6d6f6300 	stclvs	3, cr6, [pc, #-0]	; 1d0 <__standby_start+0x1d0>
     1cc:	2e6e6f6d 	cdpcs	15, 6, cr6, cr14, cr13, {3}
     1d0:	00010063 	andeq	r0, r1, r3, rrx
     1d4:	05000000 	streq	r0, [r0, #-0]
     1d8:	0003dc02 	andeq	sp, r3, r2, lsl #24
     1dc:	012303f0 	strdeq	r0, [r3, -r0]!	; <UNPREDICTABLE>
     1e0:	04020016 	streq	r0, [r2], #-22
     1e4:	76036b01 	strvc	r6, [r3], -r1, lsl #22
     1e8:	0402004a 	streq	r0, [r2], #-74	; 0x4a
     1ec:	4a0b0302 	bmi	2c0dfc <__standby_start+0x2c0dfc>
     1f0:	02040200 	andeq	r0, r4, #0
     1f4:	00060249 	andeq	r0, r6, r9, asr #4
     1f8:	00f30101 	rscseq	r0, r3, r1, lsl #2
     1fc:	00020000 	andeq	r0, r2, r0
     200:	000000b1 	strheq	r0, [r0], -r1
     204:	0efb0102 	cdpeq	1, 15, cr0, cr11, cr2, {0}
     208:	0101000d 	tsteq	r1, sp
     20c:	00000101 	andeq	r0, r0, r1, lsl #2
     210:	00000100 	andeq	r0, r0, r0, lsl #2
     214:	63726101 	cmnvs	r2, #1073741824	; 0x40000000
     218:	72612f68 	rsbvc	r2, r1, #416	; 0x1a0
     21c:	616d2f6d 	cmnvs	sp, sp, ror #30
     220:	732d6863 	teqvc	sp, #6488064	; 0x630000
     224:	69786e75 	ldmdbvs	r8!, {r0, r2, r4, r5, r6, r9, sl, fp, sp, lr}^
     228:	2f6d702f 	svccs	0x006d702f
     22c:	6e617473 	mcrvs	4, 3, r7, cr1, cr3, {3}
     230:	00796264 	rsbseq	r6, r9, r4, ror #4
     234:	68637261 	stmdavs	r3!, {r0, r5, r6, r9, ip, sp, lr}^
     238:	6d72612f 	ldfvse	f6, [r2, #-188]!	; 0xffffff44
     23c:	63616d2f 	cmnvs	r1, #3008	; 0xbc0
     240:	75732d68 	ldrbvc	r2, [r3, #-3432]!	; 0xd68
     244:	2f69786e 	svccs	0x0069786e
     248:	732f6d70 	teqvc	pc, #7168	; 0x1c00
     24c:	646e6174 	strbtvs	r6, [lr], #-372	; 0x174
     250:	2e2f7962 	cdpcs	9, 2, cr7, cr15, cr2, {3}
     254:	6e69002e 	cdpvs	0, 6, cr0, cr9, cr14, {1}
     258:	64756c63 	ldrbtvs	r6, [r5], #-3171	; 0xc63
     25c:	696c2f65 	stmdbvs	ip!, {r0, r2, r5, r6, r8, r9, sl, fp, sp}^
     260:	2f78756e 	svccs	0x0078756e
     264:	65776f70 	ldrbvs	r6, [r7, #-3952]!	; 0xf70
     268:	73000072 	movwvc	r0, #114	; 0x72
     26c:	646e6174 	strbtvs	r6, [lr], #-372	; 0x174
     270:	635f7962 	cmpvs	pc, #1605632	; 0x188000
     274:	6b636f6c 	blvs	18dc02c <__standby_start+0x18dc02c>
     278:	0100632e 	tsteq	r0, lr, lsr #6
     27c:	6d700000 	ldclvs	0, cr0, [r0, #-0]
     280:	7079745f 	rsbsvc	r7, r9, pc, asr r4
     284:	682e7365 	stmdavs	lr!, {r0, r2, r5, r6, r8, r9, ip, sp, lr}
     288:	00000200 	andeq	r0, r0, r0, lsl #4
     28c:	5f6d656d 	svcpl	0x006d656d
     290:	756d6363 	strbvc	r6, [sp, #-867]!	; 0x363
     294:	6e75732d 	cdpvs	3, 7, cr7, cr5, cr13, {1}
     298:	36776938 			; <UNDEFINED> instruction: 0x36776938
     29c:	682e3170 	stmdavs	lr!, {r4, r5, r6, r8, ip, sp}
     2a0:	00000200 	andeq	r0, r0, r0, lsl #4
     2a4:	5f707861 	svcpl	0x00707861
     2a8:	65706564 	ldrbvs	r6, [r0, #-1380]!	; 0x564
     2ac:	682e646e 	stmdavs	lr!, {r1, r2, r3, r5, r6, sl, sp, lr}
     2b0:	00000300 	andeq	r0, r0, r0, lsl #6
     2b4:	02050000 	andeq	r0, r5, #0
     2b8:	f000040c 			; <UNDEFINED> instruction: 0xf000040c
     2bc:	01068503 	tsteq	r6, r3, lsl #10
     2c0:	4d2b4d15 	stcmi	13, cr4, [fp, #-84]!	; 0xffffffac
     2c4:	322a352b 	eorcc	r3, sl, #180355072	; 0xac00000
     2c8:	152e1203 	strne	r1, [lr, #-515]!	; 0x203
     2cc:	134a0d03 	movtne	r0, #44291	; 0xad03
     2d0:	03304b83 	teqeq	r0, #134144	; 0x20c00
     2d4:	6b032e29 	blvs	cbb80 <__standby_start+0xcbb80>
     2d8:	2f2f8301 	svccs	0x002f8301
     2dc:	312f3031 	teqcc	pc, r1, lsr r0	; <UNPREDICTABLE>
     2e0:	0c032f2f 	stceq	15, cr2, [r3], {47}	; 0x2f
     2e4:	2e0c032e 	cdpcs	3, 0, cr0, cr12, cr14, {1}
     2e8:	304b8313 	subcc	r8, fp, r3, lsl r3
     2ec:	01000202 	tsteq	r0, r2, lsl #4
     2f0:	00009401 	andeq	r9, r0, r1, lsl #8
     2f4:	72000200 	andvc	r0, r0, #0
     2f8:	02000000 	andeq	r0, r0, #0
     2fc:	0d0efb01 	vstreq	d15, [lr, #-4]
     300:	01010100 	mrseq	r0, (UNDEF: 17)
     304:	00000001 	andeq	r0, r0, r1
     308:	01000001 	tsteq	r0, r1
     30c:	68637261 	stmdavs	r3!, {r0, r5, r6, r9, ip, sp, lr}^
     310:	6d72612f 	ldfvse	f6, [r2, #-188]!	; 0xffffff44
     314:	63616d2f 	cmnvs	r1, #3008	; 0xbc0
     318:	75732d68 	ldrbvc	r2, [r3, #-3432]!	; 0xd68
     31c:	2f69786e 	svccs	0x0069786e
     320:	732f6d70 	teqvc	pc, #7168	; 0x1c00
     324:	646e6174 	strbtvs	r6, [lr], #-372	; 0x174
     328:	61007962 	tstvs	r0, r2, ror #18
     32c:	2f686372 	svccs	0x00686372
     330:	2f6d7261 	svccs	0x006d7261
     334:	6863616d 	stmdavs	r3!, {r0, r2, r3, r5, r6, r8, sp, lr}^
     338:	6e75732d 	cdpvs	3, 7, cr7, cr5, cr13, {1}
     33c:	702f6978 	eorvc	r6, pc, r8, ror r9	; <UNPREDICTABLE>
     340:	74732f6d 	ldrbtvc	r2, [r3], #-3949	; 0xf6d
     344:	62646e61 	rsbvs	r6, r4, #1552	; 0x610
     348:	2e2e2f79 	mcrcs	15, 1, r2, cr14, cr9, {3}
     34c:	74730000 	ldrbtvc	r0, [r3], #-0
     350:	62646e61 	rsbvs	r6, r4, #1552	; 0x610
     354:	72695f79 	rsbvc	r5, r9, #484	; 0x1e4
     358:	0100632e 	tsteq	r0, lr, lsr #6
     35c:	6d700000 	ldclvs	0, cr0, [r0, #-0]
     360:	7079745f 	rsbsvc	r7, r9, pc, asr r4
     364:	682e7365 	stmdavs	lr!, {r0, r2, r5, r6, r8, r9, ip, sp, lr}
     368:	00000200 	andeq	r0, r0, r0, lsl #4
     36c:	02050000 	andeq	r0, r5, #0
     370:	f00004b4 			; <UNDEFINED> instruction: 0xf00004b4
     374:	14012303 	strne	r2, [r1], #-771	; 0x303
     378:	144a1103 	strbne	r1, [sl], #-259	; 0x103
     37c:	144a1103 	strbne	r1, [sl], #-259	; 0x103
     380:	144a1003 	strbne	r1, [sl], #-3
     384:	01000402 	tsteq	r0, r2, lsl #8
     388:	0000e201 	andeq	lr, r0, r1, lsl #4
     38c:	a8000200 	stmdage	r0, {r9}
     390:	02000000 	andeq	r0, r0, #0
     394:	0d0efb01 	vstreq	d15, [lr, #-4]
     398:	01010100 	mrseq	r0, (UNDEF: 17)
     39c:	00000001 	andeq	r0, r0, r1
     3a0:	01000001 	tsteq	r0, r1
     3a4:	68637261 	stmdavs	r3!, {r0, r5, r6, r9, ip, sp, lr}^
     3a8:	6d72612f 	ldfvse	f6, [r2, #-188]!	; 0xffffff44
     3ac:	63616d2f 	cmnvs	r1, #3008	; 0xbc0
     3b0:	75732d68 	ldrbvc	r2, [r3, #-3432]!	; 0xd68
     3b4:	2f69786e 	svccs	0x0069786e
     3b8:	732f6d70 	teqvc	pc, #7168	; 0x1c00
     3bc:	646e6174 	strbtvs	r6, [lr], #-372	; 0x174
     3c0:	61007962 	tstvs	r0, r2, ror #18
     3c4:	2f686372 	svccs	0x00686372
     3c8:	2f6d7261 	svccs	0x006d7261
     3cc:	6863616d 	stmdavs	r3!, {r0, r2, r3, r5, r6, r8, sp, lr}^
     3d0:	6e75732d 	cdpvs	3, 7, cr7, cr5, cr13, {1}
     3d4:	702f6978 	eorvc	r6, pc, r8, ror r9	; <UNPREDICTABLE>
     3d8:	74732f6d 	ldrbtvc	r2, [r3], #-3949	; 0xf6d
     3dc:	62646e61 	rsbvs	r6, r4, #1552	; 0x610
     3e0:	2e2e2f79 	mcrcs	15, 1, r2, cr14, cr9, {3}
     3e4:	636e6900 	cmnvs	lr, #0
     3e8:	6564756c 	strbvs	r7, [r4, #-1388]!	; 0x56c
     3ec:	6e696c2f 	cdpvs	12, 6, cr6, cr9, cr15, {1}
     3f0:	702f7875 	eorvc	r7, pc, r5, ror r8	; <UNPREDICTABLE>
     3f4:	7265776f 	rsbvc	r7, r5, #29097984	; 0x1bc0000
     3f8:	74730000 	ldrbtvc	r0, [r3], #-0
     3fc:	62646e61 	rsbvs	r6, r4, #1552	; 0x610
     400:	656b5f79 	strbvs	r5, [fp, #-3961]!	; 0xf79
     404:	00632e79 	rsbeq	r2, r3, r9, ror lr
     408:	70000001 	andvc	r0, r0, r1
     40c:	79745f6d 	ldmdbvc	r4!, {r0, r2, r3, r5, r6, r8, r9, sl, fp, ip, lr}^
     410:	2e736570 	mrccs	5, 3, r6, cr3, cr0, {3}
     414:	00020068 	andeq	r0, r2, r8, rrx
     418:	61747300 	cmnvs	r4, r0, lsl #6
     41c:	7962646e 	stmdbvc	r2!, {r1, r2, r3, r5, r6, sl, sp, lr}^
     420:	79656b5f 	stmdbvc	r5!, {r0, r1, r2, r3, r4, r6, r8, r9, fp, sp, lr}^
     424:	0100682e 	tsteq	r0, lr, lsr #16
     428:	78610000 	stmdavc	r1!, {}^	; <UNPREDICTABLE>
     42c:	65645f70 	strbvs	r5, [r4, #-3952]!	; 0xf70
     430:	646e6570 	strbtvs	r6, [lr], #-1392	; 0x570
     434:	0300682e 	movweq	r6, #2094	; 0x82e
     438:	00000000 	andeq	r0, r0, r0
     43c:	04d40205 	ldrbeq	r0, [r4], #517	; 0x205
     440:	2703f000 	strcs	pc, [r3, -r0]
     444:	2b313001 	blcs	c4c450 <__standby_start+0xc4c450>
     448:	2f31294f 	svccs	0x0031294f
     44c:	4b2f2f4b 	blmi	bcc180 <__standby_start+0xbcc180>
     450:	29332d2f 	ldmdbcs	r3!, {r0, r1, r2, r3, r5, r8, sl, fp, sp}
     454:	03312f2f 	teqeq	r1, #188	; 0xbc
     458:	31132e0f 	tstcc	r3, pc, lsl #28
     45c:	2f2d4b2b 	svccs	0x002d4b2b
     460:	2e0f0330 	mcrcs	3, 0, r0, cr15, cr0, {1}
     464:	2d2f8413 	cfstrscs	mvf8, [pc, #-76]!	; 420 <__standby_start+0x420>
     468:	04022f31 	streq	r2, [r2], #-3889	; 0xf31
     46c:	8c010100 	stfhis	f0, [r1], {-0}
     470:	02000001 	andeq	r0, r0, #1
     474:	0000bb00 	andeq	fp, r0, r0, lsl #22
     478:	fb010200 	blx	40c82 <__standby_start+0x40c82>
     47c:	01000d0e 	tsteq	r0, lr, lsl #26
     480:	00010101 	andeq	r0, r1, r1, lsl #2
     484:	00010000 	andeq	r0, r1, r0
     488:	72610100 	rsbvc	r0, r1, #0
     48c:	612f6863 	teqvs	pc, r3, ror #16
     490:	6d2f6d72 	stcvs	13, cr6, [pc, #-456]!	; 2d0 <__standby_start+0x2d0>
     494:	2d686361 	stclcs	3, cr6, [r8, #-388]!	; 0xfffffe7c
     498:	786e7573 	stmdavc	lr!, {r0, r1, r4, r5, r6, r8, sl, ip, sp, lr}^
     49c:	6d702f69 	ldclvs	15, cr2, [r0, #-420]!	; 0xfffffe5c
     4a0:	6174732f 	cmnvs	r4, pc, lsr #6
     4a4:	7962646e 	stmdbvc	r2!, {r1, r2, r3, r5, r6, sl, sp, lr}^
     4a8:	63726100 	cmnvs	r2, #0
     4ac:	72612f68 	rsbvc	r2, r1, #416	; 0x1a0
     4b0:	616d2f6d 	cmnvs	sp, sp, ror #30
     4b4:	732d6863 	teqvc	sp, #6488064	; 0x630000
     4b8:	69786e75 	ldmdbvs	r8!, {r0, r2, r4, r5, r6, r9, sl, fp, sp, lr}^
     4bc:	2f6d702f 	svccs	0x006d702f
     4c0:	6e617473 	mcrvs	4, 3, r7, cr1, cr3, {3}
     4c4:	2f796264 	svccs	0x00796264
     4c8:	69002e2e 	stmdbvs	r0, {r1, r2, r3, r5, r9, sl, fp, sp}
     4cc:	756c636e 	strbvc	r6, [ip, #-878]!	; 0x36e
     4d0:	6c2f6564 	cfstr32vs	mvfx6, [pc], #-400	; 348 <__standby_start+0x348>
     4d4:	78756e69 	ldmdavc	r5!, {r0, r3, r5, r6, r9, sl, fp, sp, lr}^
     4d8:	776f702f 	strbvc	r7, [pc, -pc, lsr #32]!
     4dc:	00007265 	andeq	r7, r0, r5, ror #4
     4e0:	32707861 	rsbscc	r7, r0, #6356992	; 0x610000
     4e4:	705f3930 	subsvc	r3, pc, r0, lsr r9	; <UNPREDICTABLE>
     4e8:	7265776f 	rsbvc	r7, r5, #29097984	; 0x1bc0000
     4ec:	0100632e 	tsteq	r0, lr, lsr #6
     4f0:	6d700000 	ldclvs	0, cr0, [r0, #-0]
     4f4:	7079745f 	rsbsvc	r7, r9, pc, asr r4
     4f8:	682e7365 	stmdavs	lr!, {r0, r2, r5, r6, r8, r9, ip, sp, lr}
     4fc:	00000200 	andeq	r0, r0, r0, lsl #4
     500:	5f707861 	svcpl	0x00707861
     504:	65706564 	ldrbvs	r6, [r0, #-1380]!	; 0x564
     508:	682e646e 	stmdavs	lr!, {r1, r2, r3, r5, r6, sl, sp, lr}
     50c:	00000300 	andeq	r0, r0, r0, lsl #6
     510:	6e617473 	mcrvs	4, 3, r7, cr1, cr3, {3}
     514:	5f796264 	svcpl	0x00796264
     518:	2e697774 	mcrcs	7, 3, r7, cr9, cr4, {3}
     51c:	00010068 	andeq	r0, r1, r8, rrx
     520:	70786100 	rsbsvc	r6, r8, r0, lsl #2
     524:	5f393032 	svcpl	0x00393032
     528:	65776f70 	ldrbvs	r6, [r7, #-3952]!	; 0xf70
     52c:	00682e72 	rsbeq	r2, r8, r2, ror lr
     530:	00000001 	andeq	r0, r0, r1
     534:	74020500 	strvc	r0, [r2], #-1280	; 0x500
     538:	03f00005 	mvnseq	r0, #5
     53c:	030100ca 	movweq	r0, #4298	; 0x10ca
     540:	1603016a 	strne	r0, [r3], -sl, ror #2
     544:	4a6a032e 	bmi	1a81204 <__standby_start+0x1a81204>
     548:	2d4c2d9d 	stclcs	13, cr2, [ip, #-628]	; 0xfffffd8c
     54c:	c603482f 	strgt	r4, [r3], -pc, lsr #16
     550:	bb034a00 	bllt	d2d58 <__standby_start+0xd2d58>
     554:	65034a7f 	strvs	r4, [r3, #-2687]	; 0xa7f
     558:	ba3f032e 	blt	fc1218 <__standby_start+0xfc1218>
     55c:	0816034b 	ldmdaeq	r6, {r0, r1, r3, r6, r8, r9}
     560:	68804c3c 	stmvs	r0, {r2, r3, r4, r5, sl, fp, lr}
     564:	67322a30 			; <UNDEFINED> instruction: 0x67322a30
     568:	652f2d2f 	strvs	r2, [pc, #-3375]!	; fffff841 <__bss_end+0xfffb741>
     56c:	4a66032f 	bmi	1981230 <__standby_start+0x1981230>
     570:	2d67d76a 	stclcs	7, cr13, [r7, #-424]!	; 0xfffffe58
     574:	854d6e7d 	strbhi	r6, [sp, #-3709]	; 0xe7d
     578:	28032dd1 	stmdacs	r3, {r0, r4, r6, r7, r8, sl, fp, sp}
     57c:	7faa039e 	svcvc	0x00aa039e
     580:	00d60301 	sbcseq	r0, r6, r1, lsl #6
     584:	7faa032e 	svcvc	0x00aa032e
     588:	4c2d9d66 	stcmi	13, cr9, [sp], #-408	; 0xfffffe68
     58c:	03482f2d 	movteq	r2, #36653	; 0x8f2d
     590:	034a00de 	movteq	r0, #41182	; 0xa0de
     594:	98032e0b 	stmdals	r3, {r0, r1, r3, r9, sl, fp, sp}
     598:	e0034a7f 	and	r4, r3, pc, ror sl
     59c:	68a02e00 	stmiavs	r0!, {r9, sl, fp, sp}
     5a0:	2c312d2d 	ldccs	13, cr2, [r1], #-180	; 0xffffff4c
     5a4:	302a304c 	eorcc	r3, sl, ip, asr #32
     5a8:	82130330 	andshi	r0, r3, #-1073741824	; 0xc0000000
     5ac:	2d2d302e 	stccs	0, cr3, [sp, #-184]!	; 0xffffff48
     5b0:	1c032f2f 	stcne	15, cr2, [r3], {47}	; 0x2f
     5b4:	84014602 	strhi	r4, [r1], #-1538	; 0x602
     5b8:	3230296c 	eorscc	r2, r0, #1769472	; 0x1b0000
     5bc:	832e5e03 	teqhi	lr, #48	; 0x30
     5c0:	661f034b 	ldrvs	r0, [pc], -fp, asr #6
     5c4:	302e6203 	eorcc	r6, lr, r3, lsl #4
     5c8:	1a036783 	bne	da3dc <__standby_start+0xda3dc>
     5cc:	2e670366 	cdpcs	3, 6, cr0, cr7, cr6, {3}
     5d0:	03678330 	cmneq	r7, #-1073741824	; 0xc0000000
     5d4:	6c036615 	stcvs	6, cr6, [r3], {21}
     5d8:	6783302e 	strvs	r3, [r3, lr, lsr #32]
     5dc:	03661003 	cmneq	r6, #3
     5e0:	83302e71 	teqhi	r0, #1808	; 0x710
     5e4:	660b0367 	strvs	r0, [fp], -r7, ror #6
     5e8:	312e7603 	teqcc	lr, r3, lsl #12
     5ec:	319e1903 	orrscc	r1, lr, r3, lsl #18
     5f0:	6767474d 	strbvs	r4, [r7, -sp, asr #14]!
     5f4:	312c302c 	teqcc	ip, ip, lsr #32
     5f8:	0602362b 	streq	r3, [r2], -fp, lsr #12
     5fc:	ad010100 	stfges	f0, [r1, #-0]
     600:	02000000 	andeq	r0, r0, #0
     604:	00006900 	andeq	r6, r0, r0, lsl #18
     608:	fb010200 	blx	40e12 <__standby_start+0x40e12>
     60c:	01000d0e 	tsteq	r0, lr, lsl #26
     610:	00010101 	andeq	r0, r1, r1, lsl #2
     614:	00010000 	andeq	r0, r1, r0
     618:	72610100 	rsbvc	r0, r1, #0
     61c:	612f6863 	teqvs	pc, r3, ror #16
     620:	6d2f6d72 	stcvs	13, cr6, [pc, #-456]!	; 460 <__standby_start+0x460>
     624:	2d686361 	stclcs	3, cr6, [r8, #-388]!	; 0xfffffe7c
     628:	786e7573 	stmdavc	lr!, {r0, r1, r4, r5, r6, r8, sl, ip, sp, lr}^
     62c:	6d702f69 	ldclvs	15, cr2, [r0, #-420]!	; 0xfffffe5c
     630:	6174732f 	cmnvs	r4, pc, lsr #6
     634:	7962646e 	stmdbvc	r2!, {r1, r2, r3, r5, r6, sl, sp, lr}^
     638:	636e6900 	cmnvs	lr, #0
     63c:	6564756c 	strbvs	r7, [r4, #-1388]!	; 0x56c
     640:	6e696c2f 	cdpvs	12, 6, cr6, cr9, cr15, {1}
     644:	702f7875 	eorvc	r7, pc, r5, ror r8	; <UNPREDICTABLE>
     648:	7265776f 	rsbvc	r7, r5, #29097984	; 0x1bc0000
     64c:	74730000 	ldrbtvc	r0, [r3], #-0
     650:	62646e61 	rsbvs	r6, r4, #1552	; 0x610
     654:	6f705f79 	svcvs	0x00705f79
     658:	2e726577 	mrccs	5, 3, r6, cr2, cr7, {3}
     65c:	00010063 	andeq	r0, r1, r3, rrx
     660:	70786100 	rsbsvc	r6, r8, r0, lsl #2
     664:	7065645f 	rsbvc	r6, r5, pc, asr r4
     668:	2e646e65 	cdpcs	14, 6, cr6, cr4, cr5, {3}
     66c:	00020068 	andeq	r0, r2, r8, rrx
     670:	05000000 	streq	r0, [r0, #-0]
     674:	0009dc02 	andeq	sp, r9, r2, lsl #24
     678:	012703f0 	strdeq	r0, [r7, -r0]!	; <UNPREDICTABLE>
     67c:	332a322e 	teqcc	sl, #-536870910	; 0xe0000002
     680:	4b4b694f 	blmi	12dabc4 <__standby_start+0x12dabc4>
     684:	339e1403 	orrscc	r1, lr, #50331648	; 0x3000000
     688:	672e6c03 	strvs	r6, [lr, -r3, lsl #24]!
     68c:	032e7703 	teqeq	lr, #786432	; 0xc0000
     690:	5f034a1b 	svcpl	0x00034a1b
     694:	35034b4a 	strcc	r4, [r3, #-2890]	; 0xb4a
     698:	4b4f2e66 	blmi	13cc038 <__standby_start+0x13cc038>
     69c:	9e14034b 	cdpls	3, 1, cr0, cr4, cr11, {2}
     6a0:	2e6c0333 	mcrcs	3, 3, r0, cr12, cr3, {1}
     6a4:	2e77032f 	cdpcs	3, 7, cr0, cr7, cr15, {1}
     6a8:	024a1b03 	subeq	r1, sl, #3072	; 0xc00
     6ac:	01010004 	tsteq	r1, r4
     6b0:	00000197 	muleq	r0, r7, r1
     6b4:	00a80002 	adceq	r0, r8, r2
     6b8:	01020000 	mrseq	r0, (UNDEF: 2)
     6bc:	000d0efb 	strdeq	r0, [sp], -fp
     6c0:	01010101 	tsteq	r1, r1, lsl #2
     6c4:	01000000 	mrseq	r0, (UNDEF: 0)
     6c8:	61010000 	mrsvs	r0, (UNDEF: 1)
     6cc:	2f686372 	svccs	0x00686372
     6d0:	2f6d7261 	svccs	0x006d7261
     6d4:	6863616d 	stmdavs	r3!, {r0, r2, r3, r5, r6, r8, sp, lr}^
     6d8:	6e75732d 	cdpvs	3, 7, cr7, cr5, cr13, {1}
     6dc:	702f6978 	eorvc	r6, pc, r8, ror r9	; <UNPREDICTABLE>
     6e0:	74732f6d 	ldrbtvc	r2, [r3], #-3949	; 0xf6d
     6e4:	62646e61 	rsbvs	r6, r4, #1552	; 0x610
     6e8:	72610079 	rsbvc	r0, r1, #121	; 0x79
     6ec:	612f6863 	teqvs	pc, r3, ror #16
     6f0:	6d2f6d72 	stcvs	13, cr6, [pc, #-456]!	; 530 <__standby_start+0x530>
     6f4:	2d686361 	stclcs	3, cr6, [r8, #-388]!	; 0xfffffe7c
     6f8:	786e7573 	stmdavc	lr!, {r0, r1, r4, r5, r6, r8, sl, ip, sp, lr}^
     6fc:	6d702f69 	ldclvs	15, cr2, [r0, #-420]!	; 0xfffffe5c
     700:	6174732f 	cmnvs	r4, pc, lsr #6
     704:	7962646e 	stmdbvc	r2!, {r1, r2, r3, r5, r6, sl, sp, lr}^
     708:	002e2e2f 	eoreq	r2, lr, pc, lsr #28
     70c:	6c636e69 	stclvs	14, cr6, [r3], #-420	; 0xfffffe5c
     710:	2f656475 	svccs	0x00656475
     714:	756e696c 	strbvc	r6, [lr, #-2412]!	; 0x96c
     718:	6f702f78 	svcvs	0x00702f78
     71c:	00726577 	rsbseq	r6, r2, r7, ror r5
     720:	61747300 	cmnvs	r4, r0, lsl #6
     724:	7962646e 	stmdbvc	r2!, {r1, r2, r3, r5, r6, sl, sp, lr}^
     728:	6977745f 	ldmdbvs	r7!, {r0, r1, r2, r3, r4, r6, sl, ip, sp, lr}^
     72c:	0100632e 	tsteq	r0, lr, lsr #6
     730:	6d700000 	ldclvs	0, cr0, [r0, #-0]
     734:	7079745f 	rsbsvc	r7, r9, pc, asr r4
     738:	682e7365 	stmdavs	lr!, {r0, r2, r5, r6, r8, r9, ip, sp, lr}
     73c:	00000200 	andeq	r0, r0, r0, lsl #4
     740:	6e617473 	mcrvs	4, 3, r7, cr1, cr3, {3}
     744:	5f796264 	svcpl	0x00796264
     748:	2e697774 	mcrcs	7, 3, r7, cr9, cr4, {3}
     74c:	00010068 	andeq	r0, r1, r8, rrx
     750:	70786100 	rsbsvc	r6, r8, r0, lsl #2
     754:	7065645f 	rsbvc	r6, r5, pc, asr r4
     758:	2e646e65 	cdpcs	14, 6, cr6, cr4, cr5, {3}
     75c:	00030068 	andeq	r0, r3, r8, rrx
     760:	05000000 	streq	r0, [r0, #-0]
     764:	000ab002 	andeq	fp, sl, r2
     768:	012e03f0 	strdeq	r0, [lr, -r0]!	; <UNPREDICTABLE>
     76c:	4b2a3213 	blmi	a8cfc0 <__standby_start+0xa8cfc0>
     770:	2a30302f 	bcs	c0c834 <__standby_start+0xc0c834>
     774:	00322f2d 	eorseq	r2, r2, sp, lsr #30
     778:	4b010402 	blmi	41788 <__standby_start+0x41788>
     77c:	66100369 	ldrvs	r0, [r0], -r9, ror #6
     780:	2e0a0314 	mcrcs	3, 0, r0, cr10, cr4, {0}
     784:	522e7603 	eorpl	r7, lr, #3145728	; 0x300000
     788:	6c2e7803 	stcvs	8, cr7, [lr], #-12
     78c:	c2036830 	andgt	r6, r3, #3145728	; 0x300000
     790:	29172e00 	ldmdbcs	r7, {r9, sl, fp, sp}
     794:	032f6833 	teqeq	pc, #3342336	; 0x330000
     798:	2d2f660b 	stccs	6, cr6, [pc, #-44]!	; 774 <__standby_start+0x774>
     79c:	0402004c 	streq	r0, [r2], #-76	; 0x4c
     7a0:	002e0602 	eoreq	r0, lr, r2, lsl #12
     7a4:	4a010402 	bmi	417b4 <__standby_start+0x417b4>
     7a8:	2f4e6706 	svccs	0x004e6706
     7ac:	4b2c306c 	blmi	b0c964 <__standby_start+0xb0c964>
     7b0:	04020068 	streq	r0, [r2], #-104	; 0x68
     7b4:	002e0602 	eoreq	r0, lr, r2, lsl #12
     7b8:	4a010402 	bmi	417c8 <__standby_start+0x417c8>
     7bc:	2f4e6706 	svccs	0x004e6706
     7c0:	682d306c 	stmdavs	sp!, {r2, r3, r5, r6, ip, sp}
     7c4:	02040200 	andeq	r0, r4, #0
     7c8:	02002e06 	andeq	r2, r0, #96	; 0x60
     7cc:	064a0104 	strbeq	r0, [sl], -r4, lsl #2
     7d0:	6b2f4e67 	blvs	bd4174 <__standby_start+0xbd4174>
     7d4:	2f4a1403 	svccs	0x004a1403
     7d8:	0200682d 	andeq	r6, r0, #2949120	; 0x2d0000
     7dc:	2e060204 	cdpcs	2, 0, cr0, cr6, cr4, {0}
     7e0:	01040200 	mrseq	r0, R12_usr
     7e4:	4e67064a 	cdpmi	6, 6, cr0, cr7, cr10, {2}
     7e8:	2c306c2f 	ldccs	12, cr6, [r0], #-188	; 0xffffff44
     7ec:	0200682f 	andeq	r6, r0, #3080192	; 0x2f0000
     7f0:	2e060204 	cdpcs	2, 0, cr0, cr6, cr4, {0}
     7f4:	01040200 	mrseq	r0, R12_usr
     7f8:	4e67064a 	cdpmi	6, 6, cr0, cr7, cr10, {2}
     7fc:	2d2f6c2f 	stccs	12, cr6, [pc, #-188]!	; 748 <__standby_start+0x748>
     800:	0402004c 	streq	r0, [r2], #-76	; 0x4c
     804:	002e0602 	eoreq	r0, lr, r2, lsl #12
     808:	4a010402 	bmi	41818 <__standby_start+0x41818>
     80c:	4b4e6706 	blmi	139a42c <__standby_start+0x139a42c>
     810:	7f8b032f 	svcvc	0x008b032f
     814:	9e4f032e 	cdpls	3, 4, cr0, cr15, cr14, {1}
     818:	4d68302c 	stclmi	0, cr3, [r8, #-176]!	; 0xffffff50
     81c:	01ae039f 			; <UNDEFINED> instruction: 0x01ae039f
     820:	7ed80366 	cdpvc	3, 13, cr0, cr8, cr6, {3}
     824:	51499f4a 	cmppl	r9, sl, asr #30
     828:	ba00dc03 	blt	3783c <__standby_start+0x3783c>
     82c:	682f2c30 	stmdavs	pc!, {r4, r5, sl, fp, sp}	; <UNPREDICTABLE>
     830:	02040200 	andeq	r0, r4, #0
     834:	02002e06 	andeq	r2, r0, #96	; 0x60
     838:	064a0104 	strbeq	r0, [sl], -r4, lsl #2
     83c:	032f4e67 	teqeq	pc, #1648	; 0x670
     840:	032e7fb9 	teqeq	lr, #740	; 0x2e4
     844:	06028254 			; <UNDEFINED> instruction: 0x06028254
     848:	95010100 	strls	r0, [r1, #-256]	; 0x100
     84c:	02000000 	andeq	r0, r0, #0
     850:	00007300 	andeq	r7, r0, r0, lsl #6
     854:	fb010200 	blx	4105e <__standby_start+0x4105e>
     858:	01000d0e 	tsteq	r0, lr, lsl #26
     85c:	00010101 	andeq	r0, r1, r1, lsl #2
     860:	00010000 	andeq	r0, r1, r0
     864:	72610100 	rsbvc	r0, r1, #0
     868:	612f6863 	teqvs	pc, r3, ror #16
     86c:	6d2f6d72 	stcvs	13, cr6, [pc, #-456]!	; 6ac <__standby_start+0x6ac>
     870:	2d686361 	stclcs	3, cr6, [r8, #-388]!	; 0xfffffe7c
     874:	786e7573 	stmdavc	lr!, {r0, r1, r4, r5, r6, r8, sl, ip, sp, lr}^
     878:	6d702f69 	ldclvs	15, cr2, [r0, #-420]!	; 0xfffffe5c
     87c:	6174732f 	cmnvs	r4, pc, lsr #6
     880:	7962646e 	stmdbvc	r2!, {r1, r2, r3, r5, r6, sl, sp, lr}^
     884:	63726100 	cmnvs	r2, #0
     888:	72612f68 	rsbvc	r2, r1, #416	; 0x1a0
     88c:	616d2f6d 	cmnvs	sp, sp, ror #30
     890:	732d6863 	teqvc	sp, #6488064	; 0x630000
     894:	69786e75 	ldmdbvs	r8!, {r0, r2, r4, r5, r6, r9, sl, fp, sp, lr}^
     898:	2f6d702f 	svccs	0x006d702f
     89c:	6e617473 	mcrvs	4, 3, r7, cr1, cr3, {3}
     8a0:	2f796264 	svccs	0x00796264
     8a4:	00002e2e 	andeq	r2, r0, lr, lsr #28
     8a8:	6e617473 	mcrvs	4, 3, r7, cr1, cr3, {3}
     8ac:	5f796264 	svcpl	0x00796264
     8b0:	2e627375 	mcrcs	3, 3, r7, cr2, cr5, {3}
     8b4:	00010063 	andeq	r0, r1, r3, rrx
     8b8:	5f6d7000 	svcpl	0x006d7000
     8bc:	65707974 	ldrbvs	r7, [r0, #-2420]!	; 0x974
     8c0:	00682e73 	rsbeq	r2, r8, r3, ror lr
     8c4:	00000002 	andeq	r0, r0, r2
     8c8:	e8020500 	stmda	r2, {r8, sl}
     8cc:	03f0000d 	mvnseq	r0, #13
     8d0:	03140126 	tsteq	r4, #-2147483639	; 0x80000009
     8d4:	03144a0f 	tsteq	r4, #61440	; 0xf000
     8d8:	03144a12 	tsteq	r4, #73728	; 0x12000
     8dc:	02144a11 	andseq	r4, r4, #69632	; 0x11000
     8e0:	01010004 	tsteq	r1, r4
     8e4:	0000014b 	andeq	r0, r0, fp, asr #2
     8e8:	00850002 	addeq	r0, r5, r2
     8ec:	01020000 	mrseq	r0, (UNDEF: 2)
     8f0:	000d0efb 	strdeq	r0, [sp], -fp
     8f4:	01010101 	tsteq	r1, r1, lsl #2
     8f8:	01000000 	mrseq	r0, (UNDEF: 0)
     8fc:	61010000 	mrsvs	r0, (UNDEF: 1)
     900:	2f686372 	svccs	0x00686372
     904:	2f6d7261 	svccs	0x006d7261
     908:	6863616d 	stmdavs	r3!, {r0, r2, r3, r5, r6, r8, sp, lr}^
     90c:	6e75732d 	cdpvs	3, 7, cr7, cr5, cr13, {1}
     910:	702f6978 	eorvc	r6, pc, r8, ror r9	; <UNPREDICTABLE>
     914:	74732f6d 	ldrbtvc	r2, [r3], #-3949	; 0xf6d
     918:	62646e61 	rsbvs	r6, r4, #1552	; 0x610
     91c:	2f2e2f79 	svccs	0x002e2f79
     920:	69002e2e 	stmdbvs	r0, {r1, r2, r3, r5, r9, sl, fp, sp}
     924:	756c636e 	strbvc	r6, [ip, #-878]!	; 0x36e
     928:	6c2f6564 	cfstr32vs	mvfx6, [pc], #-400	; 7a0 <__standby_start+0x7a0>
     92c:	78756e69 	ldmdavc	r5!, {r0, r3, r5, r6, r9, sl, fp, sp, lr}^
     930:	776f702f 	strbvc	r7, [pc, -pc, lsr #32]!
     934:	00007265 	andeq	r7, r0, r5, ror #4
     938:	645f6d70 	ldrbvs	r6, [pc], #-3440	; 940 <__standby_start+0x940>
     93c:	67756265 	ldrbvs	r6, [r5, -r5, ror #4]!
     940:	0100632e 	tsteq	r0, lr, lsr #6
     944:	6d700000 	ldclvs	0, cr0, [r0, #-0]
     948:	6265645f 	rsbvs	r6, r5, #1593835520	; 0x5f000000
     94c:	682e6775 	stmdavs	lr!, {r0, r2, r4, r5, r6, r8, r9, sl, sp, lr}
     950:	00000100 	andeq	r0, r0, r0, lsl #2
     954:	745f6d70 	ldrbvc	r6, [pc], #-3440	; 95c <__standby_start+0x95c>
     958:	73657079 	cmnvc	r5, #121	; 0x79
     95c:	0100682e 	tsteq	r0, lr, lsr #16
     960:	78610000 	stmdavc	r1!, {}^	; <UNPREDICTABLE>
     964:	65645f70 	strbvs	r5, [r4, #-3952]!	; 0xf70
     968:	646e6570 	strbtvs	r6, [lr], #-1392	; 0x570
     96c:	0200682e 	andeq	r6, r0, #3014656	; 0x2e0000
     970:	00000000 	andeq	r0, r0, r0
     974:	0e080205 	cdpeq	2, 0, cr0, cr8, cr5, {0}
     978:	0b03f000 	bleq	fc980 <__standby_start+0xfc980>
     97c:	02003001 	andeq	r3, r0, #1
     980:	6a4b0104 	bvs	12c0d98 <__standby_start+0x12c0d98>
     984:	19361a51 	ldmdbne	r6!, {r0, r4, r6, r9, fp, ip}
     988:	2d4b1336 	stclcs	3, cr1, [fp, #-216]	; 0xffffff28
     98c:	322b314b 	eorcc	r3, fp, #-1073741806	; 0xc0000012
     990:	4b133211 	blmi	4cd1dc <__standby_start+0x4cd1dc>
     994:	2b314b2d 	blcs	c53650 <__standby_start+0xc53650>
     998:	32321132 	eorscc	r1, r2, #-2147483636	; 0x8000000c
     99c:	672d2f2d 	strvs	r2, [sp, -sp, lsr #30]!
     9a0:	780336a0 	stmdavc	r3, {r5, r7, r9, sl, ip, sp}
     9a4:	2f2f2d2e 	svccs	0x002f2d2e
     9a8:	2f2d2f2f 	svccs	0x002d2f2f
     9ac:	2f672f4b 	svccs	0x00672f4b
     9b0:	2e770367 	cdpcs	3, 7, cr0, cr7, cr7, {3}
     9b4:	302e0c03 	eorcc	r0, lr, r3, lsl #24
     9b8:	31144f2c 	tstcc	r4, ip, lsr #30
     9bc:	4b9f2f4a 	blmi	fe7cc6ec <__bss_end+0xe7c85ec>
     9c0:	2e770336 	mrccs	3, 3, r0, cr7, cr6, {1}
     9c4:	2f4b2c30 	svccs	0x004b2c30
     9c8:	4b2f2d2f 	blmi	bcbe8c <__standby_start+0xbcbe8c>
     9cc:	672f672f 	strvs	r6, [pc, -pc, lsr #14]!
     9d0:	302f312f 	eorcc	r3, pc, pc, lsr #2
     9d4:	484c3069 	stmdami	ip, {r0, r3, r5, r6, ip, sp}^
     9d8:	2b316768 	blcs	c5a780 <__standby_start+0xc5a780>
     9dc:	69334b4c 	ldmdbvs	r3!, {r2, r3, r6, r8, r9, fp, lr}
     9e0:	474d4d2f 	strbmi	r4, [sp, -pc, lsr #26]
     9e4:	2c686e4d 	stclcs	14, cr6, [r8], #-308	; 0xfffffecc
     9e8:	032e7403 	teqeq	lr, #50331648	; 0x3000000
     9ec:	75034a10 	strvc	r4, [r3, #-2576]	; 0xa10
     9f0:	4c2b312e 	stfmis	f3, [fp], #-184	; 0xffffff48
     9f4:	820b034b 	andhi	r0, fp, #738197505	; 0x2c000001
     9f8:	0e032f4a 	cdpeq	15, 0, cr2, cr3, cr10, {2}
     9fc:	4a73039e 	bmi	1cc187c <__standby_start+0x1cc187c>
     a00:	7703364b 	strvc	r3, [r3, -fp, asr #12]
     a04:	4b2c302e 	blmi	b0cac4 <__standby_start+0xb0cac4>
     a08:	2f2d2f2f 	svccs	0x002d2f2f
     a0c:	2f672f4b 	svccs	0x00672f4b
     a10:	03463367 	movteq	r3, #25447	; 0x6367
     a14:	144a00cd 	strbne	r0, [sl], #-205	; 0xcd
     a18:	671631a1 	ldrvs	r3, [r6, -r1, lsr #3]
     a1c:	1531312f 	ldrne	r3, [r1, #-303]!	; 0x12f
     a20:	34312f68 	ldrtcc	r2, [r1], #-3944	; 0xf68
     a24:	2a4c4c30 	bcs	1313aec <__standby_start+0x1313aec>
     a28:	2c312f30 	ldccs	15, cr2, [r1], #-192	; 0xffffff40
     a2c:	02023131 	andeq	r3, r2, #1073741836	; 0x4000000c
     a30:	33010100 	movwcc	r0, #4352	; 0x1100
     a34:	02000001 	andeq	r0, r0, #1
     a38:	0000ad00 	andeq	sl, r0, r0, lsl #26
     a3c:	fb010200 	blx	41246 <__standby_start+0x41246>
     a40:	01000d0e 	tsteq	r0, lr, lsl #26
     a44:	00010101 	andeq	r0, r1, r1, lsl #2
     a48:	00010000 	andeq	r0, r1, r0
     a4c:	72610100 	rsbvc	r0, r1, #0
     a50:	612f6863 	teqvs	pc, r3, ror #16
     a54:	6d2f6d72 	stcvs	13, cr6, [pc, #-456]!	; 894 <__standby_start+0x894>
     a58:	2d686361 	stclcs	3, cr6, [r8, #-388]!	; 0xfffffe7c
     a5c:	786e7573 	stmdavc	lr!, {r0, r1, r4, r5, r6, r8, sl, ip, sp, lr}^
     a60:	6d702f69 	ldclvs	15, cr2, [r0, #-420]!	; 0xfffffe5c
     a64:	6174732f 	cmnvs	r4, pc, lsr #6
     a68:	7962646e 	stmdbvc	r2!, {r1, r2, r3, r5, r6, sl, sp, lr}^
     a6c:	2e2f2e2f 	cdpcs	14, 2, cr2, cr15, cr15, {1}
     a70:	7261002e 	rsbvc	r0, r1, #46	; 0x2e
     a74:	612f6863 	teqvs	pc, r3, ror #16
     a78:	6d2f6d72 	stcvs	13, cr6, [pc, #-456]!	; 8b8 <__standby_start+0x8b8>
     a7c:	2d686361 	stclcs	3, cr6, [r8, #-388]!	; 0xfffffe7c
     a80:	786e7573 	stmdavc	lr!, {r0, r1, r4, r5, r6, r8, sl, ip, sp, lr}^
     a84:	6d702f69 	ldclvs	15, cr2, [r0, #-420]!	; 0xfffffe5c
     a88:	6174732f 	cmnvs	r4, pc, lsr #6
     a8c:	7962646e 	stmdbvc	r2!, {r1, r2, r3, r5, r6, sl, sp, lr}^
     a90:	2e2f2e2f 	cdpcs	14, 2, cr2, cr15, cr15, {1}
     a94:	002e2f2e 	eoreq	r2, lr, lr, lsr #30
     a98:	6c636e69 	stclvs	14, cr6, [r3], #-420	; 0xfffffe5c
     a9c:	2f656475 	svccs	0x00656475
     aa0:	756e696c 	strbvc	r6, [lr, #-2412]!	; 0x96c
     aa4:	6f702f78 	svcvs	0x00702f78
     aa8:	00726577 	rsbseq	r6, r2, r7, ror r5
     aac:	6d656d00 	stclvs	13, cr6, [r5, #-0]
     ab0:	6d69745f 	cfstrdvs	mvd7, [r9, #-380]!	; 0xfffffe84
     ab4:	2e676e69 	cdpcs	14, 6, cr6, cr7, cr9, {3}
     ab8:	00010063 	andeq	r0, r1, r3, rrx
     abc:	5f6d7000 	svcpl	0x006d7000
     ac0:	65707974 	ldrbvs	r7, [r0, #-2420]!	; 0x974
     ac4:	00682e73 	rsbeq	r2, r8, r3, ror lr
     ac8:	70000001 	andvc	r0, r0, r1
     acc:	65645f6d 	strbvs	r5, [r4, #-3949]!	; 0xf6d
     ad0:	2e677562 	cdpcs	5, 6, cr7, cr7, cr2, {3}
     ad4:	00020068 	andeq	r0, r2, r8, rrx
     ad8:	70786100 	rsbsvc	r6, r8, r0, lsl #2
     adc:	7065645f 	rsbvc	r6, r5, pc, asr r4
     ae0:	2e646e65 	cdpcs	14, 6, cr6, cr4, cr5, {3}
     ae4:	00030068 	andeq	r0, r3, r8, rrx
     ae8:	05000000 	streq	r0, [r0, #-0]
     aec:	00118002 	andseq	r8, r1, r2
     af0:	010c03f0 	strdeq	r0, [ip, -r0]
     af4:	66090314 			; <UNDEFINED> instruction: 0x66090314
     af8:	3231302f 	eorscc	r3, r1, #47	; 0x2f
     afc:	312f2f4d 	teqcc	pc, sp, asr #30
     b00:	4c851431 	cfstrsmi	mvf1, [r5], {49}	; 0x31
     b04:	84851531 	strhi	r1, [r5], #1329	; 0x531
     b08:	31301531 	teqcc	r0, r1, lsr r5
     b0c:	2f312f15 	svccs	0x00312f15
     b10:	2e700331 	mrccs	3, 3, r0, cr0, cr1, {1}
     b14:	bc4a1903 	mcrrlt	9, 0, r1, sl, cr3
     b18:	362e504b 	strtcc	r5, [lr], -fp, asr #32
     b1c:	2f823203 	svccs	0x00823203
     b20:	2e4c0330 	mcrcs	3, 2, r0, cr12, cr0, {1}
     b24:	034a5503 	movteq	r5, #42243	; 0xa503
     b28:	79032e32 	stmdbvc	r3, {r1, r4, r5, r9, sl, fp, sp}
     b2c:	2f4d352e 	svccs	0x004d352e
     b30:	667fa303 	ldrbtvs	sl, [pc], -r3, lsl #6
     b34:	2f2f4d4e 	svccs	0x002f4d4e
     b38:	034a1e03 	movteq	r1, #44547	; 0xae03
     b3c:	2b032e3a 	blcs	cc42c <__standby_start+0xcc42c>
     b40:	2e2d139e 	mcrcs	3, 1, r1, cr13, cr14, {4}
     b44:	2d2f2f2f 	stccs	15, cr2, [pc, #-188]!	; a90 <__standby_start+0xa90>
     b48:	2c4c4f2d 	mcrrcs	15, 2, r4, ip, cr13
     b4c:	142e2003 	strtne	r2, [lr], #-3
     b50:	2f660903 	svccs	0x00660903
     b54:	4d323130 	ldfmis	f3, [r2, #-192]!	; 0xffffff40
     b58:	31a43131 			; <UNDEFINED> instruction: 0x31a43131
     b5c:	4e312f30 	mrcmi	15, 1, r2, cr1, cr0, {1}
     b60:	2f3031a4 	svccs	0x003031a4
     b64:	00040231 	andeq	r0, r4, r1, lsr r2
     b68:	00b00101 	adcseq	r0, r0, r1, lsl #2
     b6c:	00020000 	andeq	r0, r2, r0
     b70:	00000083 	andeq	r0, r0, r3, lsl #1
     b74:	0efb0102 	cdpeq	1, 15, cr0, cr11, cr2, {0}
     b78:	0101000d 	tsteq	r1, sp
     b7c:	00000101 	andeq	r0, r0, r1, lsl #2
     b80:	00000100 	andeq	r0, r0, r0, lsl #2
     b84:	63726101 	cmnvs	r2, #1073741824	; 0x40000000
     b88:	72612f68 	rsbvc	r2, r1, #416	; 0x1a0
     b8c:	616d2f6d 	cmnvs	sp, sp, ror #30
     b90:	732d6863 	teqvc	sp, #6488064	; 0x630000
     b94:	69786e75 	ldmdbvs	r8!, {r0, r2, r4, r5, r6, r9, sl, fp, sp, lr}^
     b98:	2f6d702f 	svccs	0x006d702f
     b9c:	6e617473 	mcrvs	4, 3, r7, cr1, cr3, {3}
     ba0:	2f796264 	svccs	0x00796264
     ba4:	2e2e2f2e 	cdpcs	15, 2, cr2, cr14, cr14, {1}
     ba8:	63726100 	cmnvs	r2, #0
     bac:	72612f68 	rsbvc	r2, r1, #416	; 0x1a0
     bb0:	616d2f6d 	cmnvs	sp, sp, ror #30
     bb4:	732d6863 	teqvc	sp, #6488064	; 0x630000
     bb8:	69786e75 	ldmdbvs	r8!, {r0, r2, r4, r5, r6, r9, sl, fp, sp, lr}^
     bbc:	2f6d702f 	svccs	0x006d702f
     bc0:	6e617473 	mcrvs	4, 3, r7, cr1, cr3, {3}
     bc4:	2f796264 	svccs	0x00796264
     bc8:	2e2e2f2e 	cdpcs	15, 2, cr2, cr14, cr14, {1}
     bcc:	00002e2f 	andeq	r2, r0, pc, lsr #28
     bd0:	5f6d656d 	svcpl	0x006d656d
     bd4:	5f756d6d 	svcpl	0x00756d6d
     bd8:	632e6370 	teqvs	lr, #-1073741823	; 0xc0000001
     bdc:	00000100 	andeq	r0, r0, r0, lsl #2
     be0:	682e6d70 	stmdavs	lr!, {r4, r5, r6, r8, sl, fp, sp, lr}
     be4:	00000200 	andeq	r0, r0, r0, lsl #4
     be8:	745f6d70 	ldrbvc	r6, [pc], #-3440	; bf0 <__standby_start+0xbf0>
     bec:	73657079 	cmnvc	r5, #121	; 0x79
     bf0:	0100682e 	tsteq	r0, lr, lsr #16
     bf4:	00000000 	andeq	r0, r0, r0
     bf8:	13800205 	orrne	r0, r0, #1342177280	; 0x50000000
     bfc:	1419f000 	ldrne	pc, [r9], #-0
     c00:	4b4f4d4c 	blmi	13d4138 <__standby_start+0x13d4138>
     c04:	314d4d4b 	cmpcc	sp, fp, asr #26
     c08:	4e4c4c16 	mcrmi	12, 2, r4, cr12, cr6, {0}
     c0c:	bb4b2f4b 	bllt	12cc940 <__standby_start+0x12cc940>
     c10:	32131313 	andscc	r1, r3, #1275068416	; 0x4c000000
     c14:	2f2f2f4c 	svccs	0x002f2f4c
     c18:	00020231 	andeq	r0, r2, r1, lsr r2
     c1c:	02090101 	andeq	r0, r9, #1073741824	; 0x40000000
     c20:	00020000 	andeq	r0, r2, r0
     c24:	00000091 	muleq	r0, r1, r0
     c28:	0efb0102 	cdpeq	1, 15, cr0, cr11, cr2, {0}
     c2c:	0101000d 	tsteq	r1, sp
     c30:	00000101 	andeq	r0, r0, r1, lsl #2
     c34:	00000100 	andeq	r0, r0, r0, lsl #2
     c38:	63726101 	cmnvs	r2, #1073741824	; 0x40000000
     c3c:	72612f68 	rsbvc	r2, r1, #416	; 0x1a0
     c40:	616d2f6d 	cmnvs	sp, sp, ror #30
     c44:	732d6863 	teqvc	sp, #6488064	; 0x630000
     c48:	69786e75 	ldmdbvs	r8!, {r0, r2, r4, r5, r6, r9, sl, fp, sp, lr}^
     c4c:	2f6d702f 	svccs	0x006d702f
     c50:	6e617473 	mcrvs	4, 3, r7, cr1, cr3, {3}
     c54:	2f796264 	svccs	0x00796264
     c58:	2e2e2f2e 	cdpcs	15, 2, cr2, cr14, cr14, {1}
     c5c:	636e6900 	cmnvs	lr, #0
     c60:	6564756c 	strbvs	r7, [r4, #-1388]!	; 0x56c
     c64:	6e696c2f 	cdpvs	12, 6, cr6, cr9, cr15, {1}
     c68:	702f7875 	eorvc	r7, pc, r5, ror r8	; <UNPREDICTABLE>
     c6c:	7265776f 	rsbvc	r7, r5, #29097984	; 0x1bc0000
     c70:	656d0000 	strbvs	r0, [sp, #-0]!
     c74:	65735f6d 	ldrbvs	r5, [r3, #-3949]!	; 0xf6d
     c78:	6c616972 	stclvs	9, cr6, [r1], #-456	; 0xfffffe38
     c7c:	0100632e 	tsteq	r0, lr, lsr #6
     c80:	6d700000 	ldclvs	0, cr0, [r0, #-0]
     c84:	7079745f 	rsbsvc	r7, r9, pc, asr r4
     c88:	682e7365 	stmdavs	lr!, {r0, r2, r5, r6, r8, r9, ip, sp, lr}
     c8c:	00000100 	andeq	r0, r0, r0, lsl #2
     c90:	5f6d656d 	svcpl	0x006d656d
     c94:	756d6363 	strbvc	r6, [sp, #-867]!	; 0x363
     c98:	6e75732d 	cdpvs	3, 7, cr7, cr5, cr13, {1}
     c9c:	36776938 			; <UNDEFINED> instruction: 0x36776938
     ca0:	682e3170 	stmdavs	lr!, {r4, r5, r6, r8, ip, sp}
     ca4:	00000100 	andeq	r0, r0, r0, lsl #2
     ca8:	5f707861 	svcpl	0x00707861
     cac:	65706564 	ldrbvs	r6, [r0, #-1380]!	; 0x564
     cb0:	682e646e 	stmdavs	lr!, {r1, r2, r3, r5, r6, sl, sp, lr}
     cb4:	00000200 	andeq	r0, r0, r0, lsl #4
     cb8:	02050000 	andeq	r0, r5, #0
     cbc:	f0001980 			; <UNDEFINED> instruction: 0xf0001980
     cc0:	0101d903 	tsteq	r1, r3, lsl #18
     cc4:	4f34512e 	svcmi	0x0034512e
     cc8:	74080c03 	strvc	r0, [r8], #-3075	; 0xc03
     ccc:	2f312f67 	svccs	0x00312f67
     cd0:	312f6730 	teqcc	pc, r0, lsr r7	; <UNPREDICTABLE>
     cd4:	672e6403 	strvs	r6, [lr, -r3, lsl #8]!
     cd8:	4a75032d 	bmi	1d41994 <__standby_start+0x1d41994>
     cdc:	2d2e0c03 	stccs	12, cr0, [lr, #-12]!
     ce0:	667ea903 	ldrbtvs	sl, [lr], -r3, lsl #18
     ce4:	2e0b032e 	cdpcs	3, 0, cr0, cr11, cr14, {1}
     ce8:	4e2a322f 	cdpmi	2, 2, cr3, cr10, cr15, {1}
     cec:	2e17032a 	cdpcs	3, 1, cr0, cr7, cr10, {1}
     cf0:	140330a5 	strne	r3, [r3], #-165	; 0xa5
     cf4:	2e630382 	cdpcs	3, 6, cr0, cr3, cr2, {4}
     cf8:	302e0903 	eorcc	r0, lr, r3, lsl #18
     cfc:	684a1203 	stmdavs	sl, {r0, r1, r9, ip}^
     d00:	364d2f67 	strbcc	r2, [sp], -r7, ror #30
     d04:	4c2e7803 	stcmi	8, cr7, [lr], #-12
     d08:	01a7036c 			; <UNDEFINED> instruction: 0x01a7036c
     d0c:	4ca01466 	cfstrsmi	mvf1, [r0], #408	; 0x198
     d10:	91034c4b 	tstls	r3, fp, asr #24
     d14:	f4032e01 			; <UNDEFINED> instruction: 0xf4032e01
     d18:	2a034a7e 	bcs	d3718 <__standby_start+0xd3718>
     d1c:	4b332e4a 	blmi	ccc64c <__standby_start+0xccc64c>
     d20:	2f2d674d 	svccs	0x002d674d
     d24:	00d0034b 	sbcseq	r0, r0, fp, asr #6
     d28:	7fb1034a 	svcvc	0x00b1034a
     d2c:	2f2c314a 	svccs	0x002c314a
     d30:	302f2f2c 	eorcc	r2, pc, ip, lsr #30
     d34:	4c312f2d 	ldcmi	15, cr2, [r1], #-180	; 0xffffff4c
     d38:	4a00c603 	bmi	3254c <__standby_start+0x3254c>
     d3c:	2e7fbe03 	cdpcs	14, 7, cr11, cr15, cr3, {0}
     d40:	152e1803 	strne	r1, [lr, #-2051]!	; 0x803
     d44:	2d4b312b 	stfcse	f3, [fp, #-172]	; 0xffffff54
     d48:	01040200 	mrseq	r0, R12_usr
     d4c:	66650332 			; <UNDEFINED> instruction: 0x66650332
     d50:	032e1303 	teqeq	lr, #201326592	; 0xc000000
     d54:	03312e6d 	teqeq	r1, #1744	; 0x6d0
     d58:	03502e1a 	cmpeq	r0, #416	; 0x1a0
     d5c:	2f9f2e5d 	svccs	0x009f2e5d
     d60:	032f2f2f 	teqeq	pc, #188	; 0xbc
     d64:	0b032e16 	bleq	cc5c4 <__standby_start+0xcc5c4>
     d68:	59032f66 	stmdbpl	r3, {r1, r2, r5, r6, r8, r9, sl, fp, sp}
     d6c:	2f2f9f4a 	svccs	0x002f9f4a
     d70:	25032f2f 	strcs	r2, [r3, #-3887]	; 0xf2f
     d74:	322a1666 	eorcc	r1, sl, #106954752	; 0x6600000
     d78:	0b032d4b 	bleq	cc2ac <__standby_start+0xcc2ac>
     d7c:	0402002e 	streq	r0, [r2], #-46	; 0x2e
     d80:	4a790301 	bmi	1e4198c <__standby_start+0x1e4198c>
     d84:	03665b03 	cmneq	r6, #3072	; 0xc00
     d88:	5b032e25 	blpl	cc624 <__standby_start+0xcc624>
     d8c:	2e25032e 	cdpcs	3, 2, cr0, cr5, cr14, {1}
     d90:	9f4a5b03 	svcls	0x004a5b03
     d94:	034a2403 	movteq	r2, #41987	; 0xa403
     d98:	24034a5e 	strcs	r4, [r3], #-2654	; 0xa5e
     d9c:	032a4c4a 	teqeq	sl, #18944	; 0x4a00
     da0:	84149e0a 	ldrhi	r9, [r4], #-3594	; 0xe0a
     da4:	30841431 	addcc	r1, r4, r1, lsr r4
     da8:	2c30332e 	ldccs	3, cr3, [r0], #-184	; 0xffffff48
     dac:	2f302c30 	svccs	0x00302c30
     db0:	2f2d674d 	svccs	0x002d674d
     db4:	2c314b4b 	ldccs	11, cr4, [r1], #-300	; 0xfffffed4
     db8:	2f2f2c2f 	svccs	0x002f2c2f
     dbc:	312f2d30 	teqcc	pc, r0, lsr sp	; <UNPREDICTABLE>
     dc0:	4a5e034c 	bmi	1781af8 <__standby_start+0x1781af8>
     dc4:	032e2603 	teqeq	lr, #3145728	; 0x300000
     dc8:	2b152e26 	blcs	54c668 <__standby_start+0x54c668>
     dcc:	002d4b31 	eoreq	r4, sp, r1, lsr fp
     dd0:	32010402 	andcc	r0, r1, #33554432	; 0x2000000
     dd4:	03665903 	cmneq	r6, #49152	; 0xc000
     dd8:	61032e1f 	tstvs	r3, pc, lsl lr
     ddc:	2603312e 	strcs	r3, [r3], -lr, lsr #2
     de0:	5103502e 	tstpl	r3, lr, lsr #32
     de4:	2f2f9f2e 	svccs	0x002f9f2e
     de8:	22032f2f 	andcs	r2, r3, #188	; 0xbc
     dec:	660b032e 	strvs	r0, [fp], -lr, lsr #6
     df0:	4a4d032f 	bmi	1341ab4 <__standby_start+0x1341ab4>
     df4:	2f2f2f9f 	svccs	0x002f2f9f
     df8:	6632032f 	ldrtvs	r0, [r2], -pc, lsr #6
     dfc:	4b322a16 	blmi	c8b65c <__standby_start+0xc8b65c>
     e00:	2e0b032d 	cdpcs	3, 0, cr0, cr11, cr13, {1}
     e04:	01040200 	mrseq	r0, R12_usr
     e08:	034a7903 	movteq	r7, #43267	; 0xa903
     e0c:	3203664e 	andcc	r6, r3, #81788928	; 0x4e00000
     e10:	2e4e032e 	cdpcs	3, 4, cr0, cr14, cr14, {1}
     e14:	032e3203 	teqeq	lr, #805306368	; 0x30000000
     e18:	039f4a4e 	orrseq	r4, pc, #319488	; 0x4e000
     e1c:	51034a31 	tstpl	r3, r1, lsr sl
     e20:	4a31034a 	bmi	c41b50 <__standby_start+0xc41b50>
     e24:	0a022a4c 	beq	8b75c <__standby_start+0x8b75c>
     e28:	48010100 	stmdami	r1, {r8}
     e2c:	02000003 	andeq	r0, r0, #3
     e30:	00011400 	andeq	r1, r1, r0, lsl #8
     e34:	fb010200 	blx	4163e <__standby_start+0x4163e>
     e38:	01000d0e 	tsteq	r0, lr, lsl #26
     e3c:	00010101 	andeq	r0, r1, r1, lsl #2
     e40:	00010000 	andeq	r0, r1, r0
     e44:	72610100 	rsbvc	r0, r1, #0
     e48:	612f6863 	teqvs	pc, r3, ror #16
     e4c:	6d2f6d72 	stcvs	13, cr6, [pc, #-456]!	; c8c <__standby_start+0xc8c>
     e50:	2d686361 	stclcs	3, cr6, [r8, #-388]!	; 0xfffffe7c
     e54:	786e7573 	stmdavc	lr!, {r0, r1, r4, r5, r6, r8, sl, ip, sp, lr}^
     e58:	6d702f69 	ldclvs	15, cr2, [r0, #-420]!	; 0xfffffe5c
     e5c:	6174732f 	cmnvs	r4, pc, lsr #6
     e60:	7962646e 	stmdbvc	r2!, {r1, r2, r3, r5, r6, sl, sp, lr}^
     e64:	2e2f2e2f 	cdpcs	14, 2, cr2, cr15, cr15, {1}
     e68:	682f002e 	stmdavs	pc!, {r1, r2, r3, r5}	; <UNPREDICTABLE>
     e6c:	2f656d6f 	svccs	0x00656d6f
     e70:	676e6164 	strbvs	r6, [lr, -r4, ror #2]!
     e74:	6d2f756b 	cfstr32vs	mvfx7, [pc, #-428]!	; cd0 <__standby_start+0xcd0>
     e78:	6f726479 	svcvs	0x00726479
     e7c:	622f6469 	eorvs	r6, pc, #1761607680	; 0x69000000
     e80:	6e616e61 	cdpvs	14, 6, cr6, cr1, cr1, {3}
     e84:	2f695061 	svccs	0x00695061
     e88:	732f336d 	teqvc	pc, #-1275068415	; 0xb4000001
     e8c:	6372756f 	cmnvs	r2, #465567744	; 0x1bc00000
     e90:	38612f65 	stmdacc	r1!, {r0, r2, r5, r6, r8, r9, sl, fp, sp}^
     e94:	422f7433 	eormi	r7, pc, #855638016	; 0x33000000
     e98:	4d2d4950 	stcmi	9, cr4, [sp, #-320]!	; 0xfffffec0
     e9c:	73622d33 	cmnvc	r2, #3264	; 0xcc0
     ea0:	6c612f70 	stclvs	15, cr2, [r1], #-448	; 0xfffffe40
     ea4:	6e69776c 	cdpvs	7, 6, cr7, cr9, cr12, {3}
     ea8:	2d72656e 	cfldr64cs	mvdx6, [r2, #-440]!	; 0xfffffe48
     eac:	6c6f6f74 	stclvs	15, cr6, [pc], #-464	; ce4 <__standby_start+0xce4>
     eb0:	6f742f73 	svcvs	0x00742f73
     eb4:	68636c6f 	stmdavs	r3!, {r0, r1, r2, r3, r5, r6, sl, fp, sp, lr}^
     eb8:	2f6e6961 	svccs	0x006e6961
     ebc:	2f6e6962 	svccs	0x006e6962
     ec0:	6c2f2e2e 	stcvs	14, cr2, [pc], #-184	; e10 <__standby_start+0xe10>
     ec4:	672f6269 	strvs	r6, [pc, -r9, ror #4]!
     ec8:	612f6363 	teqvs	pc, r3, ror #6
     ecc:	6c2d6d72 	stcvs	13, cr6, [sp], #-456	; 0xfffffe38
     ed0:	78756e69 	ldmdavc	r5!, {r0, r3, r5, r6, r9, sl, fp, sp, lr}^
     ed4:	756e672d 	strbvc	r6, [lr, #-1837]!	; 0x72d
     ed8:	69626165 	stmdbvs	r2!, {r0, r2, r5, r6, r8, sp, lr}^
     edc:	362e342f 	strtcc	r3, [lr], -pc, lsr #8
     ee0:	692f332e 	stmdbvs	pc!, {r1, r2, r3, r5, r8, r9, ip, sp}	; <UNPREDICTABLE>
     ee4:	756c636e 	strbvc	r6, [ip, #-878]!	; 0x36e
     ee8:	69006564 	stmdbvs	r0, {r2, r5, r6, r8, sl, sp, lr}
     eec:	756c636e 	strbvc	r6, [ip, #-878]!	; 0x36e
     ef0:	6c2f6564 	cfstr32vs	mvfx6, [pc], #-400	; d68 <__standby_start+0xd68>
     ef4:	78756e69 	ldmdavc	r5!, {r0, r3, r5, r6, r9, sl, fp, sp, lr}^
     ef8:	776f702f 	strbvc	r7, [pc, -pc, lsr #32]!
     efc:	00007265 	andeq	r7, r0, r5, ror #4
     f00:	5f6d656d 	svcpl	0x006d656d
     f04:	6e697270 	mcrvs	2, 3, r7, cr9, cr0, {3}
     f08:	632e6b74 	teqvs	lr, #118784	; 0x1d000
     f0c:	00000100 	andeq	r0, r0, r0, lsl #2
     f10:	745f6d70 	ldrbvc	r6, [pc], #-3440	; f18 <__standby_start+0xf18>
     f14:	73657079 	cmnvc	r5, #121	; 0x79
     f18:	0100682e 	tsteq	r0, lr, lsr #16
     f1c:	74730000 	ldrbtvc	r0, [r3], #-0
     f20:	67726164 	ldrbvs	r6, [r2, -r4, ror #2]!
     f24:	0200682e 	andeq	r6, r0, #3014656	; 0x2e0000
     f28:	78610000 	stmdavc	r1!, {}^	; <UNPREDICTABLE>
     f2c:	65645f70 	strbvs	r5, [r4, #-3952]!	; 0xf70
     f30:	646e6570 	strbtvs	r6, [lr], #-1392	; 0x570
     f34:	0300682e 	movweq	r6, #2094	; 0x82e
     f38:	623c0000 	eorsvs	r0, ip, #0
     f3c:	746c6975 	strbtvc	r6, [ip], #-2421	; 0x975
     f40:	3e6e692d 	cdpcc	9, 6, cr6, cr14, cr13, {1}
     f44:	00000000 	andeq	r0, r0, r0
     f48:	02050000 	andeq	r0, r5, #0
     f4c:	f0001ec4 			; <UNDEFINED> instruction: 0xf0001ec4
     f50:	0101ce03 	tsteq	r1, r3, lsl #28
     f54:	882a2c34 	stmdahi	sl!, {r2, r4, r5, sl, fp, sp}
     f58:	032fa32c 	teqeq	pc, #-1342177280	; 0xb0000000
     f5c:	2b332e7a 	blcs	ccc94c <__standby_start+0xccc94c>
     f60:	04020052 	streq	r0, [r2], #-82	; 0x52
     f64:	02003102 	andeq	r3, r0, #-2147483648	; 0x80000000
     f68:	00830204 	addeq	r0, r3, r4, lsl #4
     f6c:	2d020402 	cfstrscs	mvf0, [r2, #-8]
     f70:	02040200 	andeq	r0, r4, #0
     f74:	0402004b 	streq	r0, [r2], #-75	; 0x4b
     f78:	02002d02 	andeq	r2, r0, #128	; 0x80
     f7c:	002f0204 	eoreq	r0, pc, r4, lsl #4
     f80:	2a020402 	bcs	81f90 <__standby_start+0x81f90>
     f84:	03667103 	cmneq	r6, #-1073741824	; 0xc0000000
     f88:	02006617 	andeq	r6, r0, #24117248	; 0x1700000
     f8c:	2e060204 	cdpcs	2, 0, cr0, cr6, cr4, {0}
     f90:	02040200 	andeq	r0, r4, #0
     f94:	02003006 	andeq	r3, r0, #6
     f98:	332c0204 	teqcc	ip, #1073741824	; 0x40000000
     f9c:	00fe0369 	rscseq	r0, lr, r9, ror #6
     fa0:	2b2d3282 	blcs	b4d9b0 <__standby_start+0xb4d9b0>
     fa4:	78038a85 	stmdavc	r3, {r0, r2, r7, r9, fp, pc}
     fa8:	03312f2e 	teqeq	r1, #184	; 0xb8
     fac:	032e7ded 	teqeq	lr, #15168	; 0x3b40
     fb0:	032e0293 	teqeq	lr, #805306377	; 0x30000009
     fb4:	302e7ded 	eorcc	r7, lr, sp, ror #27
     fb8:	82028903 	andhi	r8, r2, #49152	; 0xc000
     fbc:	2e7df703 	cdpcs	7, 7, cr15, cr13, cr3, {0}
     fc0:	2e028903 	cdpcs	9, 0, cr8, cr2, cr3, {0}
     fc4:	2e7df703 	cdpcs	7, 7, cr15, cr13, cr3, {0}
     fc8:	4cbc4652 	ldcmi	6, cr4, [ip], #328	; 0x148
     fcc:	2e028e03 	cdpcs	14, 0, cr8, cr2, cr3, {0}
     fd0:	827ea803 	rsbshi	sl, lr, #196608	; 0x30000
     fd4:	7a032c36 	bvc	cc0b4 <__standby_start+0xcc0b4>
     fd8:	2f876c2e 	svccs	0x00876c2e
     fdc:	332e7a03 	teqcc	lr, #12288	; 0x3000
     fe0:	2e12032b 	cdpcs	3, 1, cr0, cr2, cr11, {1}
     fe4:	2d2e7a03 	vstmdbcs	lr!, {s14-s16}
     fe8:	032e7003 	teqeq	lr, #3
     fec:	474d2e14 	smlaldmi	r2, sp, r4, lr
     ff0:	63316331 	teqvs	r1, #-1006632960	; 0xc4000000
     ff4:	09036331 	stmdbeq	r3, {r0, r4, r5, r8, r9, sp, lr}
     ff8:	2e77032e 	cdpcs	3, 7, cr0, cr7, cr14, {1}
     ffc:	032e0c03 	teqeq	lr, #768	; 0x300
    1000:	2503665d 	strcs	r6, [r3, #-1629]	; 0x65d
    1004:	032c4c66 	teqeq	ip, #26112	; 0x6600
    1008:	2a034a5b 	bcs	d397c <__standby_start+0xd397c>
    100c:	3903692e 	stmdbcc	r3, {r1, r2, r3, r5, r8, fp, sp, lr}
    1010:	660c039e 			; <UNDEFINED> instruction: 0x660c039e
    1014:	032e7403 	teqeq	lr, #50331648	; 0x3000000
    1018:	302d2e0c 	eorcc	r2, sp, ip, lsl #28
    101c:	c1033048 	tstgt	r3, r8, asr #32
    1020:	68032e00 	stmdavs	r3, {r9, sl, fp, sp}
    1024:	2e55032e 	cdpcs	3, 5, cr0, cr5, cr14, {1}
    1028:	00cb034c 	sbceq	r0, fp, ip, asr #6
    102c:	7fb5032e 	svcvc	0x00b5032e
    1030:	c6034c2e 	strgt	r4, [r3], -lr, lsr #24
    1034:	ba032e00 	blt	cc83c <__standby_start+0xcc83c>
    1038:	69312e7f 	ldmdbvs	r1!, {r0, r1, r2, r3, r4, r5, r6, r9, sl, fp, sp}
    103c:	0903292f 	stmdbeq	r3, {r0, r1, r2, r3, r5, r8, fp, sp}
    1040:	03342a2e 	teqeq	r4, #188416	; 0x2e000
    1044:	340200c1 	strcc	r0, [r2], #-193	; 0xc1
    1048:	302c3001 	eorcc	r3, ip, r1
    104c:	9e540331 	mrcls	3, 2, r0, cr4, cr1, {1}
    1050:	d67de603 	ldrbtle	lr, [sp], -r3, lsl #12
    1054:	66029b03 	strvs	r9, [r2], -r3, lsl #22
    1058:	2e7de503 	cdpcs	5, 7, cr14, cr13, cr3, {0}
    105c:	82029c03 	andhi	r9, r2, #768	; 0x300
    1060:	d67df503 	ldrbtle	pc, [sp], -r3, lsl #10	; <UNPREDICTABLE>
    1064:	82028d03 	andhi	r8, r2, #192	; 0xc0
    1068:	2e0b032f 	cdpcs	3, 0, cr0, cr11, cr15, {1}
    106c:	2e7fb903 	cdpcs	9, 7, cr11, cr15, cr3, {0}
    1070:	2e00c703 	cdpcs	7, 0, cr12, cr0, cr3, {0}
    1074:	667fb903 	ldrbtvs	fp, [pc], -r3, lsl #18
    1078:	2e7eae03 	cdpcs	14, 7, cr10, cr14, cr3, {0}
    107c:	03826f03 	orreq	r6, r2, #12
    1080:	2ff202ac 	svccs	0x00f202ac
    1084:	032e6303 	teqeq	lr, #201326592	; 0xc000000
    1088:	03d67df0 	bicseq	r7, r6, #15360	; 0x3c00
    108c:	03660291 	cmneq	r6, #268435465	; 0x10000009
    1090:	032e7def 	teqeq	lr, #15296	; 0x3bc0
    1094:	03820292 	orreq	r0, r2, #536870921	; 0x20000009
    1098:	03d67dff 	bicseq	r7, r6, #16320	; 0x3fc0
    109c:	5082028d 	addpl	r0, r2, sp, lsl #5
    10a0:	2e0d039f 	mcrcs	3, 0, r0, cr13, cr15, {4}
    10a4:	8252032f 	subshi	r0, r2, #-1140850688	; 0xbc000000
    10a8:	ba7dfb03 	blt	1f7fcbc <__standby_start+0x1f7fcbc>
    10ac:	66028603 	strvs	r8, [r2], -r3, lsl #12
    10b0:	2e7dfa03 	vaddcs.f32	s31, s26, s6
    10b4:	82028703 	andhi	r8, r2, #786432	; 0xc0000
    10b8:	d67e8a03 	ldrbtle	r8, [lr], -r3, lsl #20
    10bc:	82028d03 	andhi	r8, r2, #192	; 0xc0
    10c0:	03663b03 	cmneq	r6, #3072	; 0xc00
    10c4:	7403660c 	strvc	r6, [r3], #-1548	; 0x60c
    10c8:	2e0c032e 	cdpcs	3, 0, cr0, cr12, cr14, {1}
    10cc:	3048302d 	subcc	r3, r8, sp, lsr #32
    10d0:	2e00c103 	mvfcss	f4, f3
    10d4:	032e6803 	teqeq	lr, #196608	; 0x30000
    10d8:	034c2e55 	movteq	r2, #52821	; 0xce55
    10dc:	032e00cb 	teqeq	lr, #203	; 0xcb
    10e0:	4c2e7fb5 	stcmi	15, cr7, [lr], #-724	; 0xfffffd2c
    10e4:	2e00c603 	cfmadd32cs	mvax0, mvfx12, mvfx0, mvfx3
    10e8:	2e7fba03 	vaddcs.f32	s23, s30, s6
    10ec:	292f6931 	stmdbcs	pc!, {r0, r4, r5, r8, fp, sp, lr}	; <UNPREDICTABLE>
    10f0:	2a2e0903 	bcs	b83504 <__standby_start+0xb83504>
    10f4:	00c10334 	sbceq	r0, r1, r4, lsr r3
    10f8:	30013402 	andcc	r3, r1, r2, lsl #8
    10fc:	0331302c 	teqeq	r1, #44	; 0x2c
    1100:	f1039e54 			; <UNDEFINED> instruction: 0xf1039e54
    1104:	9003d67c 	andls	sp, r3, ip, ror r6
    1108:	f0036603 			; <UNDEFINED> instruction: 0xf0036603
    110c:	91032e7c 	tstls	r3, ip, ror lr
    1110:	80038203 	andhi	r8, r3, r3, lsl #4
    1114:	8203d67d 	andhi	sp, r3, #131072000	; 0x7d00000
    1118:	032f8203 	teqeq	pc, #805306368	; 0x30000000
    111c:	b9032e0b 	stmdblt	r3, {r0, r1, r3, r9, sl, fp, sp}
    1120:	c7032e7f 	smlsdxgt	r3, pc, lr, r2	; <UNPREDICTABLE>
    1124:	b9032e00 	stmdblt	r3, {r9, sl, fp, sp}
    1128:	b903667f 	stmdblt	r3, {r0, r1, r2, r3, r4, r5, r6, r9, sl, sp, lr}
    112c:	6f032e7d 	svcvs	0x00032e7d
    1130:	03a10382 			; <UNDEFINED> instruction: 0x03a10382
    1134:	63032ff2 	movwvs	r2, #16370	; 0x3ff2
    1138:	7cfb032e 	ldclvc	3, cr0, [fp], #184	; 0xb8
    113c:	038603d6 	orreq	r0, r6, #1476395011	; 0x58000003
    1140:	7cfa0366 	ldclvc	3, cr0, [sl], #408	; 0x198
    1144:	0387032e 	orreq	r0, r7, #-1207959552	; 0xb8000000
    1148:	7d8a0382 	stcvc	3, cr0, [sl, #520]	; 0x208
    114c:	038203d6 	orreq	r0, r2, #1476395011	; 0x58000003
    1150:	039f5082 	orrseq	r5, pc, #130	; 0x82
    1154:	032f2e0d 	teqeq	pc, #208	; 0xd0
    1158:	86038252 			; <UNDEFINED> instruction: 0x86038252
    115c:	fb03ba7d 	blx	efb5a <__standby_start+0xefb5a>
    1160:	85036602 	strhi	r6, [r3, #-1538]	; 0x602
    1164:	fc032e7d 	stc2	14, cr2, [r3], {125}	; 0x7d
    1168:	95038202 	strls	r8, [r3, #-514]	; 0x202
    116c:	8203d67d 	andhi	sp, r3, #131072000	; 0x7d00000
    1170:	06028203 	streq	r8, [r2], -r3, lsl #4
    1174:	84010100 	strhi	r0, [r1], #-256	; 0x100
    1178:	02000000 	andeq	r0, r0, #0
    117c:	00005600 	andeq	r5, r0, r0, lsl #12
    1180:	fb010200 	blx	4198a <__standby_start+0x4198a>
    1184:	01000d0e 	tsteq	r0, lr, lsl #26
    1188:	00010101 	andeq	r0, r1, r1, lsl #2
    118c:	00010000 	andeq	r0, r1, r0
    1190:	72610100 	rsbvc	r0, r1, #0
    1194:	612f6863 	teqvs	pc, r3, ror #16
    1198:	6d2f6d72 	stcvs	13, cr6, [pc, #-456]!	; fd8 <__standby_start+0xfd8>
    119c:	2d686361 	stclcs	3, cr6, [r8, #-388]!	; 0xfffffe7c
    11a0:	786e7573 	stmdavc	lr!, {r0, r1, r4, r5, r6, r8, sl, ip, sp, lr}^
    11a4:	6d702f69 	ldclvs	15, cr2, [r0, #-420]!	; 0xfffffe5c
    11a8:	6174732f 	cmnvs	r4, pc, lsr #6
    11ac:	7962646e 	stmdbvc	r2!, {r1, r2, r3, r5, r6, sl, sp, lr}^
    11b0:	2e2f2e2f 	cdpcs	14, 2, cr2, cr15, cr15, {1}
    11b4:	6d00002e 	stcvs	0, cr0, [r0, #-184]	; 0xffffff48
    11b8:	645f6d65 	ldrbvs	r6, [pc], #-3429	; 11c0 <__standby_start+0x11c0>
    11bc:	696c7669 	stmdbvs	ip!, {r0, r3, r5, r6, r9, sl, ip, sp, lr}^
    11c0:	632e6362 	teqvs	lr, #-2013265919	; 0x88000001
    11c4:	00000100 	andeq	r0, r0, r0, lsl #2
    11c8:	745f6d70 	ldrbvc	r6, [pc], #-3440	; 11d0 <__standby_start+0x11d0>
    11cc:	73657079 	cmnvc	r5, #121	; 0x79
    11d0:	0100682e 	tsteq	r0, lr, lsr #16
    11d4:	00000000 	andeq	r0, r0, r0
    11d8:	288c0205 	stmcs	ip, {r0, r2, r9}
    11dc:	1315f000 	tstne	r5, #0
    11e0:	1732114b 	ldrne	r1, [r2, -fp, asr #2]!
    11e4:	02002b31 	andeq	r2, r0, #50176	; 0xc400
    11e8:	06340104 	ldrteq	r0, [r4], -r4, lsl #2
    11ec:	2b31064a 	blcs	c42b1c <__standby_start+0xc42b1c>
    11f0:	2b4a0b03 	blcs	1283e04 <__standby_start+0x1283e04>
    11f4:	342a3330 	strtcc	r3, [sl], #-816	; 0x330
    11f8:	04024d30 	streq	r4, [r2], #-3376	; 0xd30
    11fc:	23010100 	movwcs	r0, #4352	; 0x1100
    1200:	02000001 	andeq	r0, r0, #1
    1204:	00008300 	andeq	r8, r0, r0, lsl #6
    1208:	fb010200 	blx	41a12 <__standby_start+0x41a12>
    120c:	01000d0e 	tsteq	r0, lr, lsl #26
    1210:	00010101 	andeq	r0, r1, r1, lsl #2
    1214:	00010000 	andeq	r0, r1, r0
    1218:	72610100 	rsbvc	r0, r1, #0
    121c:	612f6863 	teqvs	pc, r3, ror #16
    1220:	6d2f6d72 	stcvs	13, cr6, [pc, #-456]!	; 1060 <__standby_start+0x1060>
    1224:	2d686361 	stclcs	3, cr6, [r8, #-388]!	; 0xfffffe7c
    1228:	786e7573 	stmdavc	lr!, {r0, r1, r4, r5, r6, r8, sl, ip, sp, lr}^
    122c:	6d702f69 	ldclvs	15, cr2, [r0, #-420]!	; 0xfffffe5c
    1230:	6174732f 	cmnvs	r4, pc, lsr #6
    1234:	7962646e 	stmdbvc	r2!, {r1, r2, r3, r5, r6, sl, sp, lr}^
    1238:	2e2f2e2f 	cdpcs	14, 2, cr2, cr15, cr15, {1}
    123c:	6e69002e 	cdpvs	0, 6, cr0, cr9, cr14, {1}
    1240:	64756c63 	ldrbtvs	r6, [r5], #-3171	; 0xc63
    1244:	696c2f65 	stmdbvs	ip!, {r0, r2, r5, r6, r8, r9, sl, fp, sp}^
    1248:	2f78756e 	svccs	0x0078756e
    124c:	65776f70 	ldrbvs	r6, [r7, #-3952]!	; 0xf70
    1250:	6d000072 	stcvs	0, cr0, [r0, #-456]	; 0xfffffe38
    1254:	695f6d65 	ldmdbvs	pc, {r0, r2, r5, r6, r8, sl, fp, sp, lr}^	; <UNPREDICTABLE>
    1258:	632e746e 	teqvs	lr, #1845493760	; 0x6e000000
    125c:	00000100 	andeq	r0, r0, r0, lsl #2
    1260:	745f6d70 	ldrbvc	r6, [pc], #-3440	; 1268 <__standby_start+0x1268>
    1264:	73657079 	cmnvc	r5, #121	; 0x79
    1268:	0100682e 	tsteq	r0, lr, lsr #16
    126c:	656d0000 	strbvs	r0, [sp, #-0]!
    1270:	6e695f6d 	cdpvs	15, 6, cr5, cr9, cr13, {3}
    1274:	00682e74 	rsbeq	r2, r8, r4, ror lr
    1278:	61000001 	tstvs	r0, r1
    127c:	645f7078 	ldrbvs	r7, [pc], #-120	; 1284 <__standby_start+0x1284>
    1280:	6e657065 	cdpvs	0, 6, cr7, cr5, cr5, {3}
    1284:	00682e64 	rsbeq	r2, r8, r4, ror #28
    1288:	00000002 	andeq	r0, r0, r2
    128c:	e4020500 	str	r0, [r2], #-1280	; 0x500
    1290:	03f00028 	mvnseq	r0, #40	; 0x28
    1294:	2f140122 	svccs	0x00140122
    1298:	032e0a03 	teqeq	lr, #12288	; 0x3000
    129c:	2d312e73 	ldccs	14, cr2, [r1, #-460]!	; 0xfffffe34
    12a0:	2e0b032f 	cdpcs	3, 0, cr0, cr11, cr15, {1}
    12a4:	2e75032d 	cdpcs	3, 7, cr0, cr5, cr13, {1}
    12a8:	0402002f 	streq	r0, [r2], #-47	; 0x2f
    12ac:	4a0b0302 	bmi	2c1ebc <__standby_start+0x2c1ebc>
    12b0:	02040200 	andeq	r0, r4, #0
    12b4:	064a062d 	strbeq	r0, [sl], -sp, lsr #12
    12b8:	032e0b03 	teqeq	lr, #3072	; 0xc00
    12bc:	0c032e75 	stceq	14, cr2, [r3], {117}	; 0x75
    12c0:	02002d2e 	andeq	r2, r0, #2944	; 0xb80
    12c4:	002f0204 	eoreq	r0, pc, r4, lsl #4
    12c8:	2d020402 	cfstrscs	mvf0, [r2, #-8]
    12cc:	4c2c304e 	stcmi	0, cr3, [ip], #-312	; 0xfffffec8
    12d0:	034f2f4c 	movteq	r2, #65356	; 0xff4c
    12d4:	2c14820f 	lfmcs	f0, 1, [r4], {15}
    12d8:	02002b33 	andeq	r2, r0, #52224	; 0xcc00
    12dc:	00a20204 	adceq	r0, r2, r4, lsl #4
    12e0:	4b020402 	blmi	822f0 <__standby_start+0x822f0>
    12e4:	02040200 	andeq	r0, r4, #0
    12e8:	0f036c80 	svceq	0x00036c80
    12ec:	304b1682 	subcc	r1, fp, r2, lsl #13
    12f0:	034c2f2b 	movteq	r2, #53035	; 0xcf2b
    12f4:	032f2e7a 	teqeq	pc, #1952	; 0x7a0
    12f8:	03502e0a 	cmpeq	r0, #160	; 0xa0
    12fc:	03c02e7a 	biceq	r2, r0, #1952	; 0x7a0
    1300:	0b032e76 	bleq	ccce0 <__standby_start+0xccce0>
    1304:	4a0f032e 	bmi	3c1fc4 <__standby_start+0x3c1fc4>
    1308:	2b304b17 	blcs	c13f6c <__standby_start+0xc13f6c>
    130c:	7a034c2f 	bvc	d43d0 <__standby_start+0xd43d0>
    1310:	2e0f032e 	cdpcs	3, 0, cr0, cr15, cr14, {1}
    1314:	032e7203 	teqeq	lr, #805306368	; 0x30000000
    1318:	03a32e09 			; <UNDEFINED> instruction: 0x03a32e09
    131c:	09038278 	stmdbeq	r3, {r3, r4, r5, r6, r9, pc}
    1320:	0004022e 	andeq	r0, r4, lr, lsr #4
    1324:	00aa0101 	adceq	r0, sl, r1, lsl #2
    1328:	00020000 	andeq	r0, r2, r0
    132c:	00000061 	andeq	r0, r0, r1, rrx
    1330:	0efb0102 	cdpeq	1, 15, cr0, cr11, cr2, {0}
    1334:	0101000d 	tsteq	r1, sp
    1338:	00000101 	andeq	r0, r0, r1, lsl #2
    133c:	00000100 	andeq	r0, r0, r0, lsl #2
    1340:	63726101 	cmnvs	r2, #1073741824	; 0x40000000
    1344:	72612f68 	rsbvc	r2, r1, #416	; 0x1a0
    1348:	616d2f6d 	cmnvs	sp, sp, ror #30
    134c:	732d6863 	teqvc	sp, #6488064	; 0x630000
    1350:	69786e75 	ldmdbvs	r8!, {r0, r2, r4, r5, r6, r9, sl, fp, sp, lr}^
    1354:	2f6d702f 	svccs	0x006d702f
    1358:	6e617473 	mcrvs	4, 3, r7, cr1, cr3, {3}
    135c:	2f796264 	svccs	0x00796264
    1360:	2e2e2f2e 	cdpcs	15, 2, cr2, cr14, cr14, {1}
    1364:	656d0000 	strbvs	r0, [sp, #-0]!
    1368:	70675f6d 	rsbvc	r5, r7, sp, ror #30
    136c:	632e6f69 	teqvs	lr, #420	; 0x1a4
    1370:	00000100 	andeq	r0, r0, r0, lsl #2
    1374:	745f6d70 	ldrbvc	r6, [pc], #-3440	; 137c <__standby_start+0x137c>
    1378:	73657079 	cmnvc	r5, #121	; 0x79
    137c:	0100682e 	tsteq	r0, lr, lsr #16
    1380:	656d0000 	strbvs	r0, [sp, #-0]!
    1384:	70675f6d 	rsbvc	r5, r7, sp, ror #30
    1388:	682e6f69 	stmdavs	lr!, {r0, r3, r5, r6, r8, r9, sl, fp, sp, lr}
    138c:	00000100 	andeq	r0, r0, r0, lsl #2
    1390:	02050000 	andeq	r0, r5, #0
    1394:	f0002a80 			; <UNDEFINED> instruction: 0xf0002a80
    1398:	11010f03 	tstne	r1, r3, lsl #30
    139c:	004f2933 	subeq	r2, pc, r3, lsr r9	; <UNPREDICTABLE>
    13a0:	2f020402 	svccs	0x00020402
    13a4:	02040200 	andeq	r0, r4, #0
    13a8:	0402002d 	streq	r0, [r2], #-45	; 0x2d
    13ac:	02002f02 	andeq	r2, r0, #8
    13b0:	322d0204 	eorcc	r0, sp, #1073741824	; 0x40000000
    13b4:	114a0e03 	cmpne	sl, r3, lsl #28
    13b8:	004f2933 	subeq	r2, pc, r3, lsr r9	; <UNPREDICTABLE>
    13bc:	2f020402 	svccs	0x00020402
    13c0:	02040200 	andeq	r0, r4, #0
    13c4:	4a0c0349 	bmi	3020f0 <__standby_start+0x3020f0>
    13c8:	de83154e 	cdple	5, 8, cr1, cr3, cr14, {2}
    13cc:	022d2f2d 	eoreq	r2, sp, #180	; 0xb4
    13d0:	01010008 	tsteq	r1, r8
    13d4:	000000fe 	strdeq	r0, [r0], -lr
    13d8:	00830002 	addeq	r0, r3, r2
    13dc:	01020000 	mrseq	r0, (UNDEF: 2)
    13e0:	000d0efb 	strdeq	r0, [sp], -fp
    13e4:	01010101 	tsteq	r1, r1, lsl #2
    13e8:	01000000 	mrseq	r0, (UNDEF: 0)
    13ec:	61010000 	mrsvs	r0, (UNDEF: 1)
    13f0:	2f686372 	svccs	0x00686372
    13f4:	2f6d7261 	svccs	0x006d7261
    13f8:	6863616d 	stmdavs	r3!, {r0, r2, r3, r5, r6, r8, sp, lr}^
    13fc:	6e75732d 	cdpvs	3, 7, cr7, cr5, cr13, {1}
    1400:	702f6978 	eorvc	r6, pc, r8, ror r9	; <UNPREDICTABLE>
    1404:	74732f6d 	ldrbtvc	r2, [r3], #-3949	; 0xf6d
    1408:	62646e61 	rsbvs	r6, r4, #1552	; 0x610
    140c:	2f2e2f79 	svccs	0x002e2f79
    1410:	69002e2e 	stmdbvs	r0, {r1, r2, r3, r5, r9, sl, fp, sp}
    1414:	756c636e 	strbvc	r6, [ip, #-878]!	; 0x36e
    1418:	6c2f6564 	cfstr32vs	mvfx6, [pc], #-400	; 1290 <__standby_start+0x1290>
    141c:	78756e69 	ldmdavc	r5!, {r0, r3, r5, r6, r9, sl, fp, sp, lr}^
    1420:	776f702f 	strbvc	r7, [pc, -pc, lsr #32]!
    1424:	00007265 	andeq	r7, r0, r5, ror #4
    1428:	5f6d656d 	svcpl	0x006d656d
    142c:	2e726d74 	mrccs	13, 3, r6, cr2, cr4, {3}
    1430:	00010063 	andeq	r0, r1, r3, rrx
    1434:	5f6d7000 	svcpl	0x006d7000
    1438:	65707974 	ldrbvs	r7, [r0, #-2420]!	; 0x974
    143c:	00682e73 	rsbeq	r2, r8, r3, ror lr
    1440:	6d000001 	stcvs	0, cr0, [r0, #-4]
    1444:	745f6d65 	ldrbvc	r6, [pc], #-3429	; 144c <__standby_start+0x144c>
    1448:	682e726d 	stmdavs	lr!, {r0, r2, r3, r5, r6, r9, ip, sp, lr}
    144c:	00000100 	andeq	r0, r0, r0, lsl #2
    1450:	5f707861 	svcpl	0x00707861
    1454:	65706564 	ldrbvs	r6, [r0, #-1380]!	; 0x564
    1458:	682e646e 	stmdavs	lr!, {r1, r2, r3, r5, r6, sl, sp, lr}
    145c:	00000200 	andeq	r0, r0, r0, lsl #4
    1460:	02050000 	andeq	r0, r5, #0
    1464:	f0002b20 			; <UNDEFINED> instruction: 0xf0002b20
    1468:	18011103 	stmdane	r1, {r0, r1, r8, ip}
    146c:	342e7a03 	strtcc	r7, [lr], #-2563	; 0xa03
    1470:	032b312b 	teqeq	fp, #-1073741814	; 0xc000000a
    1474:	7703820c 	strvc	r8, [r3, -ip, lsl #4]
    1478:	4b4b2f2e 	blmi	12cd138 <__standby_start+0x12cd138>
    147c:	4d4b4b4b 	vstrmi	d20, [fp, #-300]	; 0xfffffed4
    1480:	142e0f03 	strtne	r0, [lr], #-3843	; 0xf03
    1484:	09033064 	stmdbeq	r3, {r2, r5, r6, ip, sp}
    1488:	2e77032e 	cdpcs	3, 7, cr0, cr7, cr14, {1}
    148c:	4b4b4b2f 	blmi	12d4150 <__standby_start+0x12d4150>
    1490:	034d4b4b 	movteq	r4, #56139	; 0xdb4b
    1494:	2c162e0f 	ldccs	14, cr2, [r6], {15}
    1498:	2c302c30 	ldccs	12, cr2, [r0], #-192	; 0xffffff40
    149c:	4b2f2951 	blmi	bcb9e8 <__standby_start+0xbcb9e8>
    14a0:	2e0f034d 	cdpcs	3, 0, cr0, cr15, cr13, {2}
    14a4:	4b293313 	blmi	a4e0f8 <__standby_start+0xa4e0f8>
    14a8:	2f2f2c2f 	svccs	0x002f2c2f
    14ac:	2e120331 	mrccs	3, 0, r0, cr2, cr1, {1}
    14b0:	4d68bb15 	fstmdbxmi	r8!, {d27-d36}	;@ Deprecated
    14b4:	12036969 	andne	r6, r3, #1720320	; 0x1a4000
    14b8:	69bb142e 	ldmibvs	fp!, {r1, r2, r3, r5, sl, ip}
    14bc:	11036769 	tstne	r3, r9, ror #14
    14c0:	296b142e 	stmdbcs	fp!, {r1, r2, r3, r5, sl, ip}^
    14c4:	75033532 	strvc	r3, [r3, #-1330]	; 0x532
    14c8:	30312f2e 	eorscc	r2, r1, lr, lsr #30
    14cc:	672f2f2d 	strvs	r2, [pc, -sp, lsr #30]!
    14d0:	00020269 	andeq	r0, r2, r9, ror #4
    14d4:	00b10101 	adcseq	r0, r1, r1, lsl #2
    14d8:	00020000 	andeq	r0, r2, r0
    14dc:	00000089 	andeq	r0, r0, r9, lsl #1
    14e0:	0efb0102 	cdpeq	1, 15, cr0, cr11, cr2, {0}
    14e4:	0101000d 	tsteq	r1, sp
    14e8:	00000101 	andeq	r0, r0, r1, lsl #2
    14ec:	00000100 	andeq	r0, r0, r0, lsl #2
    14f0:	63726101 	cmnvs	r2, #1073741824	; 0x40000000
    14f4:	72612f68 	rsbvc	r2, r1, #416	; 0x1a0
    14f8:	616d2f6d 	cmnvs	sp, sp, ror #30
    14fc:	732d6863 	teqvc	sp, #6488064	; 0x630000
    1500:	69786e75 	ldmdbvs	r8!, {r0, r2, r4, r5, r6, r9, sl, fp, sp, lr}^
    1504:	2f6d702f 	svccs	0x006d702f
    1508:	6e617473 	mcrvs	4, 3, r7, cr1, cr3, {3}
    150c:	2f796264 	svccs	0x00796264
    1510:	2e2e2f2e 	cdpcs	15, 2, cr2, cr14, cr14, {1}
    1514:	636e6900 	cmnvs	lr, #0
    1518:	6564756c 	strbvs	r7, [r4, #-1388]!	; 0x56c
    151c:	6e696c2f 	cdpvs	12, 6, cr6, cr9, cr15, {1}
    1520:	702f7875 	eorvc	r7, pc, r5, ror r8	; <UNPREDICTABLE>
    1524:	7265776f 	rsbvc	r7, r5, #29097984	; 0x1bc0000
    1528:	656d0000 	strbvs	r0, [sp, #-0]!
    152c:	6d745f6d 	ldclvs	15, cr5, [r4, #-436]!	; 0xfffffe4c
    1530:	706d7473 	rsbvc	r7, sp, r3, ror r4
    1534:	0100632e 	tsteq	r0, lr, lsr #6
    1538:	6d700000 	ldclvs	0, cr0, [r0, #-0]
    153c:	7079745f 	rsbsvc	r7, r9, pc, asr r4
    1540:	682e7365 	stmdavs	lr!, {r0, r2, r5, r6, r8, r9, ip, sp, lr}
    1544:	00000100 	andeq	r0, r0, r0, lsl #2
    1548:	5f6d656d 	svcpl	0x006d656d
    154c:	74736d74 	ldrbtvc	r6, [r3], #-3444	; 0xd74
    1550:	682e706d 	stmdavs	lr!, {r0, r2, r3, r5, r6, ip, sp, lr}
    1554:	00000100 	andeq	r0, r0, r0, lsl #2
    1558:	5f707861 	svcpl	0x00707861
    155c:	65706564 	ldrbvs	r6, [r0, #-1380]!	; 0x564
    1560:	682e646e 	stmdavs	lr!, {r1, r2, r3, r5, r6, sl, sp, lr}
    1564:	00000200 	andeq	r0, r0, r0, lsl #4
    1568:	02050000 	andeq	r0, r5, #0
    156c:	f0002d08 			; <UNDEFINED> instruction: 0xf0002d08
    1570:	15011103 	strne	r1, [r1, #-259]	; 0x103
    1574:	2b4d312b 	blcs	134da28 <__standby_start+0x134da28>
    1578:	4d2f2a51 	vstmdbmi	pc!, {s4-s84}
    157c:	142e0f03 	strtne	r0, [lr], #-3843	; 0xf03
    1580:	2a323064 	bcs	c8d718 <__standby_start+0xc8d718>
    1584:	02024d2f 	andeq	r4, r2, #3008	; 0xbc0
    1588:	90010100 	andls	r0, r1, r0, lsl #2
    158c:	02000001 	andeq	r0, r0, #1
    1590:	00009b00 	andeq	r9, r0, r0, lsl #22
    1594:	fb010200 	blx	41d9e <__standby_start+0x41d9e>
    1598:	01000d0e 	tsteq	r0, lr, lsl #26
    159c:	00010101 	andeq	r0, r1, r1, lsl #2
    15a0:	00010000 	andeq	r0, r1, r0
    15a4:	72610100 	rsbvc	r0, r1, #0
    15a8:	612f6863 	teqvs	pc, r3, ror #16
    15ac:	6d2f6d72 	stcvs	13, cr6, [pc, #-456]!	; 13ec <__standby_start+0x13ec>
    15b0:	2d686361 	stclcs	3, cr6, [r8, #-388]!	; 0xfffffe7c
    15b4:	786e7573 	stmdavc	lr!, {r0, r1, r4, r5, r6, r8, sl, ip, sp, lr}^
    15b8:	6d702f69 	ldclvs	15, cr2, [r0, #-420]!	; 0xfffffe5c
    15bc:	6174732f 	cmnvs	r4, pc, lsr #6
    15c0:	7962646e 	stmdbvc	r2!, {r1, r2, r3, r5, r6, sl, sp, lr}^
    15c4:	2e2f2e2f 	cdpcs	14, 2, cr2, cr15, cr15, {1}
    15c8:	6e69002e 	cdpvs	0, 6, cr0, cr9, cr14, {1}
    15cc:	64756c63 	ldrbtvs	r6, [r5], #-3171	; 0xc63
    15d0:	696c2f65 	stmdbvs	ip!, {r0, r2, r5, r6, r8, r9, sl, fp, sp}^
    15d4:	2f78756e 	svccs	0x0078756e
    15d8:	65776f70 	ldrbvs	r6, [r7, #-3952]!	; 0xf70
    15dc:	6d000072 	stcvs	0, cr0, [r0, #-456]	; 0xfffffe38
    15e0:	635f6d65 	cmpvs	pc, #6464	; 0x1940
    15e4:	632e6b6c 	teqvs	lr, #110592	; 0x1b000
    15e8:	00000100 	andeq	r0, r0, r0, lsl #2
    15ec:	745f6d70 	ldrbvc	r6, [pc], #-3440	; 15f4 <__standby_start+0x15f4>
    15f0:	73657079 	cmnvc	r5, #121	; 0x79
    15f4:	0100682e 	tsteq	r0, lr, lsr #16
    15f8:	656d0000 	strbvs	r0, [sp, #-0]!
    15fc:	63635f6d 	cmnvs	r3, #436	; 0x1b4
    1600:	732d756d 	teqvc	sp, #457179136	; 0x1b400000
    1604:	69386e75 	ldmdbvs	r8!, {r0, r2, r4, r5, r6, r9, sl, fp, sp, lr}
    1608:	31703677 	cmncc	r0, r7, ror r6
    160c:	0100682e 	tsteq	r0, lr, lsr #16
    1610:	656d0000 	strbvs	r0, [sp, #-0]!
    1614:	6c635f6d 	stclvs	15, cr5, [r3], #-436	; 0xfffffe4c
    1618:	00682e6b 	rsbeq	r2, r8, fp, ror #28
    161c:	61000001 	tstvs	r0, r1
    1620:	645f7078 	ldrbvs	r7, [pc], #-120	; 1628 <__standby_start+0x1628>
    1624:	6e657065 	cdpvs	0, 6, cr7, cr5, cr5, {3}
    1628:	00682e64 	rsbeq	r2, r8, r4, ror #28
    162c:	00000002 	andeq	r0, r0, r2
    1630:	60020500 	andvs	r0, r2, r0, lsl #10
    1634:	03f0002d 	mvnseq	r0, #45	; 0x2d
    1638:	2f130115 	svccs	0x00130115
    163c:	2c304868 	ldccs	8, cr4, [r0], #-416	; 0xfffffe60
    1640:	11033230 	tstne	r3, r0, lsr r2
    1644:	034b144a 	movteq	r1, #46154	; 0xb44a
    1648:	2d134a24 	vldrcs	s8, [r3, #-144]	; 0xffffff70
    164c:	522b4d2f 	eorpl	r4, fp, #3008	; 0xbc0
    1650:	312e7803 	teqcc	lr, r3, lsl #16
    1654:	034d4b2f 	movteq	r4, #56111	; 0xdb2f
    1658:	52142e12 	andspl	r2, r4, #288	; 0x120
    165c:	302e7603 	eorcc	r7, lr, r3, lsl #12
    1660:	032e0d03 	teqeq	lr, #192	; 0xc0
    1664:	2f362e73 	svccs	0x00362e73
    1668:	0f034d4b 	svceq	0x00034d4b
    166c:	6a4e2f2e 	bvs	138d32c <__standby_start+0x138d32c>
    1670:	2e760334 	mrccs	3, 3, r0, cr6, cr4, {1}
    1674:	324b2f31 	subcc	r2, fp, #196	; 0xc4
    1678:	2d2f3083 	stccs	0, cr3, [pc, #-524]!	; 1474 <__standby_start+0x1474>
    167c:	6c03324b 	sfmvs	f3, 4, [r3], {75}	; 0x4b
    1680:	2e15034a 	cdpcs	3, 1, cr0, cr5, cr10, {2}
    1684:	134a0e03 	movtne	r0, #44547	; 0xae03
    1688:	312d302d 	teqcc	sp, sp, lsr #32
    168c:	2f2f296b 	svccs	0x002f296b
    1690:	4d2f2f2d 	stcmi	15, cr2, [pc, #-180]!	; 15e4 <__standby_start+0x15e4>
    1694:	13661003 	cmnne	r6, #3
    1698:	10034b81 	andne	r4, r3, r1, lsl #23
    169c:	2e74032e 	cdpcs	3, 7, cr0, cr4, cr14, {1}
    16a0:	6a4c312b 	bvs	130db54 <__standby_start+0x130db54>
    16a4:	0f034f4b 	svceq	0x00034f4b
    16a8:	2e81134a 	cdpcs	3, 8, cr1, cr1, cr10, {2}
    16ac:	2e0e032f 	cdpcs	3, 0, cr0, cr14, cr15, {1}
    16b0:	2f2e7303 	svccs	0x002e7303
    16b4:	78033033 	stmdavc	r3, {r0, r1, r4, r5, ip, sp}
    16b8:	30332f2e 	eorscc	r2, r3, lr, lsr #30
    16bc:	4a0e0333 	bmi	382390 <__standby_start+0x382390>
    16c0:	a02c3101 	eorge	r3, ip, r1, lsl #2
    16c4:	032e2603 	teqeq	lr, #3145728	; 0x300000
    16c8:	0c032e5d 	stceq	14, cr2, [r3], {93}	; 0x5d
    16cc:	4b4b4b4a 	blmi	12d43fc <__standby_start+0x12d43fc>
    16d0:	4b4b4b4b 	blmi	12d4404 <__standby_start+0x12d4404>
    16d4:	4b4b4b4b 	blmi	12d4408 <__standby_start+0x12d4408>
    16d8:	2f2f2d50 	svccs	0x002f2d50
    16dc:	03308330 	teqeq	r0, #-1073741824	; 0xc0000000
    16e0:	2d132e0f 	ldccs	14, cr2, [r3, #-60]	; 0xffffffc4
    16e4:	032d4b2f 	teqeq	sp, #48128	; 0xbc00
    16e8:	63034a1e 	movwvs	r4, #14878	; 0x3a1e
    16ec:	4b4d2f2e 	blmi	134d3ac <__standby_start+0x134d3ac>
    16f0:	4b4b4b4b 	blmi	12d4424 <__standby_start+0x12d4424>
    16f4:	4b4b4b4b 	blmi	12d4428 <__standby_start+0x12d4428>
    16f8:	0e034b4b 	vmlseq.f64	d4, d3, d11
    16fc:	2e0f034a 	cdpcs	3, 0, cr0, cr15, cr10, {2}
    1700:	2e78031a 	mrccs	3, 3, r0, cr8, cr10, {0}
    1704:	322a4e36 	eorcc	r4, sl, #864	; 0x360
    1708:	032e0f03 	teqeq	lr, #12
    170c:	2d326676 	ldccs	6, cr6, [r2, #-472]!	; 0xfffffe28
    1710:	4b2f2f2c 	blmi	bcd3c8 <__standby_start+0xbcd3c8>
    1714:	0334322a 	teqeq	r4, #-1610612734	; 0xa0000002
    1718:	04022e7a 	streq	r2, [r2], #-3706	; 0xe7a
    171c:	39010100 	stmdbcc	r1, {r8}
    1720:	02000001 	andeq	r0, r0, #1
    1724:	00009000 	andeq	r9, r0, r0
    1728:	fb010200 	blx	41f32 <__standby_start+0x41f32>
    172c:	01000d0e 	tsteq	r0, lr, lsl #26
    1730:	00010101 	andeq	r0, r1, r1, lsl #2
    1734:	00010000 	andeq	r0, r1, r0
    1738:	72610100 	rsbvc	r0, r1, #0
    173c:	612f6863 	teqvs	pc, r3, ror #16
    1740:	6d2f6d72 	stcvs	13, cr6, [pc, #-456]!	; 1580 <__standby_start+0x1580>
    1744:	2d686361 	stclcs	3, cr6, [r8, #-388]!	; 0xfffffe7c
    1748:	786e7573 	stmdavc	lr!, {r0, r1, r4, r5, r6, r8, sl, ip, sp, lr}^
    174c:	6d702f69 	ldclvs	15, cr2, [r0, #-420]!	; 0xfffffe5c
    1750:	6174732f 	cmnvs	r4, pc, lsr #6
    1754:	7962646e 	stmdbvc	r2!, {r1, r2, r3, r5, r6, sl, sp, lr}^
    1758:	612f2e2f 	teqvs	pc, pc, lsr #28
    175c:	63736972 	cmnvs	r3, #1867776	; 0x1c8000
    1760:	636e6900 	cmnvs	lr, #0
    1764:	6564756c 	strbvs	r7, [r4, #-1388]!	; 0x56c
    1768:	6e696c2f 	cdpvs	12, 6, cr6, cr9, cr15, {1}
    176c:	702f7875 	eorvc	r7, pc, r5, ror r8	; <UNPREDICTABLE>
    1770:	7265776f 	rsbvc	r7, r5, #29097984	; 0x1bc0000
    1774:	74730000 	ldrbtvc	r0, [r3], #-0
    1778:	62646e61 	rsbvs	r6, r4, #1552	; 0x610
    177c:	72615f79 	rsbvc	r5, r1, #484	; 0x1e4
    1780:	2e637369 	cdpcs	3, 6, cr7, cr3, cr9, {3}
    1784:	00010063 	andeq	r0, r1, r3, rrx
    1788:	5f776100 	svcpl	0x00776100
    178c:	682e6d70 	stmdavs	lr!, {r4, r5, r6, r8, sl, fp, sp, lr}
    1790:	00000200 	andeq	r0, r0, r0, lsl #4
    1794:	73697261 	cmnvc	r9, #268435462	; 0x10000006
    1798:	656d5f63 	strbvs	r5, [sp, #-3939]!	; 0xf63
    179c:	67617373 			; <UNDEFINED> instruction: 0x67617373
    17a0:	682e7365 	stmdavs	lr!, {r0, r2, r5, r6, r8, r9, ip, sp, lr}
    17a4:	00000100 	andeq	r0, r0, r0, lsl #2
    17a8:	5f707861 	svcpl	0x00707861
    17ac:	65706564 	ldrbvs	r6, [r0, #-1380]!	; 0x564
    17b0:	682e646e 	stmdavs	lr!, {r1, r2, r3, r5, r6, sl, sp, lr}
    17b4:	00000200 	andeq	r0, r0, r0, lsl #4
    17b8:	02050000 	andeq	r0, r5, #0
    17bc:	f0003104 			; <UNDEFINED> instruction: 0xf0003104
    17c0:	14011903 	strne	r1, [r1], #-2307	; 0x903
    17c4:	3169302c 	cmncc	r9, ip, lsr #32
    17c8:	4d313131 	ldfmis	f3, [r1, #-196]!	; 0xffffff3c
    17cc:	30313130 	eorscc	r3, r1, r0, lsr r1
    17d0:	3130296b 	teqcc	r0, fp, ror #18
    17d4:	2e2e0b03 	vmulcs.f64	d0, d14, d3
    17d8:	4f504b33 	svcmi	0x00504b33
    17dc:	2f2a4f2d 	svccs	0x002a4f2d
    17e0:	034c3231 	movteq	r3, #49713	; 0xc231
    17e4:	29334a75 	ldmdbcs	r3!, {r0, r2, r4, r5, r6, r9, fp, lr}
    17e8:	312f2d30 	teqcc	pc, r0, lsr sp	; <UNPREDICTABLE>
    17ec:	4a6d0334 	bmi	1b424c4 <__standby_start+0x1b424c4>
    17f0:	032e1403 	teqeq	lr, #50331648	; 0x3000000
    17f4:	68322e09 	ldmdavs	r2!, {r0, r3, r9, sl, fp, sp}
    17f8:	302f332c 	eorcc	r3, pc, ip, lsr #6
    17fc:	4b68322c 	blmi	1a0e0b4 <__standby_start+0x1a0e0b4>
    1800:	01040200 	mrseq	r0, R12_usr
    1804:	04020067 	streq	r0, [r2], #-103	; 0x67
    1808:	6d4d2d01 	stclvs	13, cr2, [sp, #-4]
    180c:	2a2f2d2f 	bcs	bcccd0 <__standby_start+0xbcccd0>
    1810:	09033351 	stmdbeq	r3, {r0, r4, r6, r8, r9, ip, sp}
    1814:	6850324a 	ldmdavs	r0, {r1, r3, r6, r9, ip, sp}^
    1818:	2f342b2f 	svccs	0x00342b2f
    181c:	2f2d694e 	svccs	0x002d694e
    1820:	00302c2f 	eorseq	r2, r0, pc, lsr #24
    1824:	4b010402 	blmi	42834 <__standby_start+0x42834>
    1828:	01040200 	mrseq	r0, R12_usr
    182c:	2f6e4d2d 	svccs	0x006e4d2d
    1830:	52292f2d 	eorpl	r2, r9, #180	; 0xb4
    1834:	2e670332 	mcrcs	3, 3, r0, cr7, cr2, {1}
    1838:	2e662203 	cdpcs	2, 6, cr2, cr6, cr3, {0}
    183c:	2c304b33 	ldccs	11, cr4, [r0], #-204	; 0xffffff34
    1840:	2f2e0b03 	svccs	0x002e0b03
    1844:	31672f2d 	cmncc	r7, sp, lsr #30
    1848:	034e312b 	movteq	r3, #57643	; 0xe12b
    184c:	18034a68 	stmdane	r3, {r3, r5, r6, r9, fp, lr}
    1850:	2f45342e 	svccs	0x0045342e
    1854:	02322f2d 	eorseq	r2, r2, #180	; 0xb4
    1858:	01010004 	tsteq	r1, r4
    185c:	000001b2 			; <UNDEFINED> instruction: 0x000001b2
    1860:	00d60002 	sbcseq	r0, r6, r2
    1864:	01020000 	mrseq	r0, (UNDEF: 2)
    1868:	000d0efb 	strdeq	r0, [sp], -fp
    186c:	01010101 	tsteq	r1, r1, lsl #2
    1870:	01000000 	mrseq	r0, (UNDEF: 0)
    1874:	61010000 	mrsvs	r0, (UNDEF: 1)
    1878:	2f686372 	svccs	0x00686372
    187c:	2f6d7261 	svccs	0x006d7261
    1880:	6863616d 	stmdavs	r3!, {r0, r2, r3, r5, r6, r8, sp, lr}^
    1884:	6e75732d 	cdpvs	3, 7, cr7, cr5, cr13, {1}
    1888:	702f6978 	eorvc	r6, pc, r8, ror r9	; <UNPREDICTABLE>
    188c:	74732f6d 	ldrbtvc	r2, [r3], #-3949	; 0xf6d
    1890:	62646e61 	rsbvs	r6, r4, #1552	; 0x610
    1894:	2f2e2f79 	svccs	0x002e2f79
    1898:	73697261 	cmnvc	r9, #268435462	; 0x10000006
    189c:	72610063 	rsbvc	r0, r1, #99	; 0x63
    18a0:	612f6863 	teqvs	pc, r3, ror #16
    18a4:	6d2f6d72 	stcvs	13, cr6, [pc, #-456]!	; 16e4 <__standby_start+0x16e4>
    18a8:	2d686361 	stclcs	3, cr6, [r8, #-388]!	; 0xfffffe7c
    18ac:	786e7573 	stmdavc	lr!, {r0, r1, r4, r5, r6, r8, sl, ip, sp, lr}^
    18b0:	6d702f69 	ldclvs	15, cr2, [r0, #-420]!	; 0xfffffe5c
    18b4:	6174732f 	cmnvs	r4, pc, lsr #6
    18b8:	7962646e 	stmdbvc	r2!, {r1, r2, r3, r5, r6, sl, sp, lr}^
    18bc:	612f2e2f 	teqvs	pc, pc, lsr #28
    18c0:	63736972 	cmnvs	r3, #1867776	; 0x1c8000
    18c4:	2e2f2e2f 	cdpcs	14, 2, cr2, cr15, cr15, {1}
    18c8:	2e2e2f2e 	cdpcs	15, 2, cr2, cr14, cr14, {1}
    18cc:	636e6900 	cmnvs	lr, #0
    18d0:	6564756c 	strbvs	r7, [r4, #-1388]!	; 0x56c
    18d4:	6e696c2f 	cdpvs	12, 6, cr6, cr9, cr15, {1}
    18d8:	612f7875 	teqvs	pc, r5, ror r8	; <UNPREDICTABLE>
    18dc:	63736972 	cmnvs	r3, #1867776	; 0x1c8000
    18e0:	72610000 	rsbvc	r0, r1, #0
    18e4:	5f637369 	svcpl	0x00637369
    18e8:	736d7768 	cmnvc	sp, #27262976	; 0x1a00000
    18ec:	786f6267 	stmdavc	pc!, {r0, r1, r2, r5, r6, r9, sp, lr}^	; <UNPREDICTABLE>
    18f0:	0100632e 	tsteq	r0, lr, lsr #6
    18f4:	6d700000 	ldclvs	0, cr0, [r0, #-0]
    18f8:	7079745f 	rsbsvc	r7, r9, pc, asr r4
    18fc:	682e7365 	stmdavs	lr!, {r0, r2, r5, r6, r8, r9, ip, sp, lr}
    1900:	00000200 	andeq	r0, r0, r0, lsl #4
    1904:	73697261 	cmnvc	r9, #268435462	; 0x10000006
    1908:	656d5f63 	strbvs	r5, [sp, #-3939]!	; 0xf63
    190c:	67617373 			; <UNDEFINED> instruction: 0x67617373
    1910:	682e7365 	stmdavs	lr!, {r0, r2, r5, r6, r8, r9, ip, sp, lr}
    1914:	00000100 	andeq	r0, r0, r0, lsl #2
    1918:	736d7768 	cmnvc	sp, #27262976	; 0x1a00000
    191c:	786f6267 	stmdavc	pc!, {r0, r1, r2, r5, r6, r9, sp, lr}^	; <UNPREDICTABLE>
    1920:	0300682e 	movweq	r6, #2094	; 0x82e
    1924:	74730000 	ldrbtvc	r0, [r3], #-0
    1928:	62646e61 	rsbvs	r6, r4, #1552	; 0x610
    192c:	72615f79 	rsbvc	r5, r1, #484	; 0x1e4
    1930:	5f637369 	svcpl	0x00637369
    1934:	00682e69 	rsbeq	r2, r8, r9, ror #28
    1938:	00000001 	andeq	r0, r0, r1
    193c:	6c020500 	cfstr32vs	mvfx0, [r2], {-0}
    1940:	03f00033 	mvnseq	r0, #51	; 0x33
    1944:	0314012d 	tsteq	r4, #1073741835	; 0x4000000b
    1948:	03144a0e 	tsteq	r4, #57344	; 0xe000
    194c:	2b154a10 	blcs	554194 <__standby_start+0x554194>
    1950:	30312d32 	eorscc	r2, r1, r2, lsr sp
    1954:	04020048 	streq	r0, [r2], #-72	; 0x48
    1958:	33a24c01 			; <UNDEFINED> instruction: 0x33a24c01
    195c:	02006829 	andeq	r6, r0, #2686976	; 0x290000
    1960:	a34d0104 	movtge	r0, #53508	; 0xd104
    1964:	6617034c 	ldrvs	r0, [r7], -ip, asr #6
    1968:	01040200 	mrseq	r0, R12_usr
    196c:	a34a7003 	movtge	r7, #40963	; 0xa003
    1970:	89304d84 	ldmdbhi	r0!, {r2, r7, r8, sl, fp, lr}
    1974:	00312b15 	eorseq	r2, r1, r5, lsl fp
    1978:	4c010402 	cfstrsmi	mvf0, [r1], {2}
    197c:	682b31da 	stmdavs	fp!, {r1, r3, r4, r6, r7, r8, ip, sp}
    1980:	034a1203 	movteq	r1, #41475	; 0xa203
    1984:	0d036672 	stceq	6, cr6, [r3, #-456]	; 0xfffffe38
    1988:	2e73034a 	cdpcs	3, 7, cr0, cr3, cr10, {2}
    198c:	01040200 	mrseq	r0, R12_usr
    1990:	2b31db2f 	blcs	c78654 <__standby_start+0xc78654>
    1994:	14034b68 	strne	r4, [r3], #-2920	; 0xb68
    1998:	312b154a 	teqcc	fp, sl, asr #10
    199c:	4f4b2d2f 	svcmi	0x004b2d2f
    19a0:	4b2e7a03 	blmi	ba01b4 <__standby_start+0xba01b4>
    19a4:	034d6767 	movteq	r6, #55143	; 0xd767
    19a8:	2b154a0f 	blcs	5541ec <__standby_start+0x5541ec>
    19ac:	312c3031 	teqcc	ip, r1, lsr r0
    19b0:	032f302b 	teqeq	pc, #43	; 0x2b
    19b4:	bd13660f 	ldclt	6, cr6, [r3, #-60]	; 0xffffffc4
    19b8:	164a0e03 	strbne	r0, [sl], -r3, lsl #28
    19bc:	4b84322a 	blmi	fe10e26c <__bss_end+0xe10a16c>
    19c0:	03662f03 	cmneq	r6, #12
    19c4:	2f032e51 	svccs	0x00032e51
    19c8:	032d4b2e 	teqeq	sp, #47104	; 0xb800
    19cc:	314c4a54 	cmpcc	ip, r4, asr sl
    19d0:	034a6003 	movteq	r6, #40963	; 0xa003
    19d4:	038200c3 	orreq	r0, r2, #195	; 0xc3
    19d8:	16034a69 	strne	r4, [r3], -r9, ror #20
    19dc:	2e6a034a 	cdpcs	3, 6, cr0, cr10, cr10, {2}
    19e0:	18034b30 	stmdane	r3, {r4, r5, r8, r9, fp, lr}
    19e4:	2e680366 	cdpcs	3, 6, cr0, cr8, cr6, {3}
    19e8:	4b2e1803 	blmi	b879fc <__standby_start+0xb879fc>
    19ec:	4a6b032d 	bmi	1ac26a8 <__standby_start+0x1ac26a8>
    19f0:	3130312b 	teqcc	r0, fp, lsr #2
    19f4:	034a4903 	movteq	r4, #43267	; 0xa903
    19f8:	6603823f 			; <UNDEFINED> instruction: 0x6603823f
    19fc:	6621032e 	strtvs	r0, [r1], -lr, lsr #6
    1a00:	04020013 	streq	r0, [r2], #-19
    1a04:	02009f01 	andeq	r9, r0, #4
    1a08:	892b0104 	stmdbhi	fp!, {r2, r8}
    1a0c:	0004022f 	andeq	r0, r4, pc, lsr #4
    1a10:	007d0101 	rsbseq	r0, sp, r1, lsl #2
    1a14:	00020000 	andeq	r0, r2, r0
    1a18:	00000050 	andeq	r0, r0, r0, asr r0
    1a1c:	0efb0102 	cdpeq	1, 15, cr0, cr11, cr2, {0}
    1a20:	0101000d 	tsteq	r1, sp
    1a24:	00000101 	andeq	r0, r0, r1, lsl #2
    1a28:	00000100 	andeq	r0, r0, r0, lsl #2
    1a2c:	63726101 	cmnvs	r2, #1073741824	; 0x40000000
    1a30:	72612f68 	rsbvc	r2, r1, #416	; 0x1a0
    1a34:	616d2f6d 	cmnvs	sp, sp, ror #30
    1a38:	732d6863 	teqvc	sp, #6488064	; 0x630000
    1a3c:	69786e75 	ldmdbvs	r8!, {r0, r2, r4, r5, r6, r9, sl, fp, sp, lr}^
    1a40:	2f6d702f 	svccs	0x006d702f
    1a44:	6e617473 	mcrvs	4, 3, r7, cr1, cr3, {3}
    1a48:	2f796264 	svccs	0x00796264
    1a4c:	72612f2e 	rsbvc	r2, r1, #184	; 0xb8
    1a50:	00637369 	rsbeq	r7, r3, r9, ror #6
    1a54:	69726100 	ldmdbvs	r2!, {r8, sp, lr}^
    1a58:	685f6373 	ldmdavs	pc, {r0, r1, r4, r5, r6, r8, r9, sp, lr}^	; <UNPREDICTABLE>
    1a5c:	69707377 	ldmdbvs	r0!, {r0, r1, r2, r4, r5, r6, r8, r9, ip, sp, lr}^
    1a60:	636f6c6e 	cmnvs	pc, #28160	; 0x6e00
    1a64:	00632e6b 	rsbeq	r2, r3, fp, ror #28
    1a68:	00000001 	andeq	r0, r0, r1
    1a6c:	a4020500 	strge	r0, [r2], #-1280	; 0x500
    1a70:	03f00036 	mvnseq	r0, #54	; 0x36
    1a74:	03140123 	tsteq	r4, #-1073741816	; 0xc0000008
    1a78:	03144a0e 	tsteq	r4, #57344	; 0xe000
    1a7c:	00014a0e 	andeq	r4, r1, lr, lsl #20
    1a80:	84010402 	strhi	r0, [r1], #-1026	; 0x402
    1a84:	03660903 	cmneq	r6, #49152	; 0xc000
    1a88:	85144a0e 	ldrhi	r4, [r4, #-2574]	; 0xa0e
    1a8c:	02024d2b 	andeq	r4, r2, #2752	; 0xac0
    1a90:	f0010100 			; <UNDEFINED> instruction: 0xf0010100
    1a94:	02000000 	andeq	r0, r0, #0
    1a98:	0000a200 	andeq	sl, r0, r0, lsl #4
    1a9c:	fb010200 	blx	422a6 <__standby_start+0x422a6>
    1aa0:	01000d0e 	tsteq	r0, lr, lsl #26
    1aa4:	00010101 	andeq	r0, r1, r1, lsl #2
    1aa8:	00010000 	andeq	r0, r1, r0
    1aac:	72610100 	rsbvc	r0, r1, #0
    1ab0:	612f6863 	teqvs	pc, r3, ror #16
    1ab4:	6d2f6d72 	stcvs	13, cr6, [pc, #-456]!	; 18f4 <__standby_start+0x18f4>
    1ab8:	2d686361 	stclcs	3, cr6, [r8, #-388]!	; 0xfffffe7c
    1abc:	786e7573 	stmdavc	lr!, {r0, r1, r4, r5, r6, r8, sl, ip, sp, lr}^
    1ac0:	6d702f69 	ldclvs	15, cr2, [r0, #-420]!	; 0xfffffe5c
    1ac4:	6174732f 	cmnvs	r4, pc, lsr #6
    1ac8:	7962646e 	stmdbvc	r2!, {r1, r2, r3, r5, r6, sl, sp, lr}^
    1acc:	612f2e2f 	teqvs	pc, pc, lsr #28
    1ad0:	63736972 	cmnvs	r3, #1867776	; 0x1c8000
    1ad4:	636e6900 	cmnvs	lr, #0
    1ad8:	6564756c 	strbvs	r7, [r4, #-1388]!	; 0x56c
    1adc:	6e696c2f 	cdpvs	12, 6, cr6, cr9, cr15, {1}
    1ae0:	702f7875 	eorvc	r7, pc, r5, ror r8	; <UNPREDICTABLE>
    1ae4:	7265776f 	rsbvc	r7, r5, #29097984	; 0x1bc0000
    1ae8:	72610000 	rsbvc	r0, r1, #0
    1aec:	5f637369 	svcpl	0x00637369
    1af0:	7373656d 	cmnvc	r3, #457179136	; 0x1b400000
    1af4:	5f656761 	svcpl	0x00656761
    1af8:	616e616d 	cmnvs	lr, sp, ror #2
    1afc:	2e726567 	cdpcs	5, 7, cr6, cr2, cr7, {3}
    1b00:	00010063 	andeq	r0, r1, r3, rrx
    1b04:	69726100 	ldmdbvs	r2!, {r8, sp, lr}^
    1b08:	6d5f6373 	ldclvs	3, cr6, [pc, #-460]	; 1944 <__standby_start+0x1944>
    1b0c:	61737365 	cmnvs	r3, r5, ror #6
    1b10:	2e736567 	cdpcs	5, 7, cr6, cr3, cr7, {3}
    1b14:	00010068 	andeq	r0, r1, r8, rrx
    1b18:	70786100 	rsbsvc	r6, r8, r0, lsl #2
    1b1c:	7065645f 	rsbvc	r6, r5, pc, asr r4
    1b20:	2e646e65 	cdpcs	14, 6, cr6, cr4, cr5, {3}
    1b24:	00020068 	andeq	r0, r2, r8, rrx
    1b28:	61747300 	cmnvs	r4, r0, lsl #6
    1b2c:	7962646e 	stmdbvc	r2!, {r1, r2, r3, r5, r6, sl, sp, lr}^
    1b30:	6972615f 	ldmdbvs	r2!, {r0, r1, r2, r3, r4, r6, r8, sp, lr}^
    1b34:	695f6373 	ldmdbvs	pc, {r0, r1, r4, r5, r6, r8, r9, sp, lr}^	; <UNPREDICTABLE>
    1b38:	0100682e 	tsteq	r0, lr, lsr #16
    1b3c:	00000000 	andeq	r0, r0, r0
    1b40:	36f80205 	ldrbtcc	r0, [r8], r5, lsl #4
    1b44:	2803f000 	stmdacs	r3, {ip, sp, lr, pc}
    1b48:	2aa21401 	bcs	fe886b54 <__bss_end+0xe882a54>
    1b4c:	0e034d2f 	cdpeq	13, 0, cr4, cr3, cr15, {1}
    1b50:	0f03142e 	svceq	0x0003142e
    1b54:	3329334a 	teqcc	r9, #671088641	; 0x28000001
    1b58:	fa674b4f 	blx	19d489c <__standby_start+0x19d489c>
    1b5c:	032e7703 	teqeq	lr, #786432	; 0xc0000
    1b60:	74034a0d 	strvc	r4, [r3], #-2573	; 0xa0d
    1b64:	09033182 	stmdbeq	r3, {r1, r7, r8, ip, sp}
    1b68:	2e77032e 	cdpcs	3, 7, cr0, cr7, cr14, {1}
    1b6c:	032e1203 	teqeq	lr, #805306368	; 0x30000000
    1b70:	31362e77 	teqcc	r6, r7, ror lr
    1b74:	03302f2b 	teqeq	r0, #172	; 0xac
    1b78:	2b314a10 	blcs	c543c0 <__standby_start+0xc543c0>
    1b7c:	2d4c4b31 	vstrcs	d20, [ip, #-196]	; 0xffffff3c
    1b80:	02022d30 	andeq	r2, r2, #3072	; 0xc00
    1b84:	1f010100 	svcne	0x00010100
    1b88:	02000001 	andeq	r0, r0, #1
    1b8c:	00007d00 	andeq	r7, r0, r0, lsl #26
    1b90:	fb010200 	blx	4239a <__standby_start+0x4239a>
    1b94:	01000d0e 	tsteq	r0, lr, lsl #26
    1b98:	00010101 	andeq	r0, r1, r1, lsl #2
    1b9c:	00010000 	andeq	r0, r1, r0
    1ba0:	72610100 	rsbvc	r0, r1, #0
    1ba4:	612f6863 	teqvs	pc, r3, ror #16
    1ba8:	6d2f6d72 	stcvs	13, cr6, [pc, #-456]!	; 19e8 <__standby_start+0x19e8>
    1bac:	2d686361 	stclcs	3, cr6, [r8, #-388]!	; 0xfffffe7c
    1bb0:	786e7573 	stmdavc	lr!, {r0, r1, r4, r5, r6, r8, sl, ip, sp, lr}^
    1bb4:	6d702f69 	ldclvs	15, cr2, [r0, #-420]!	; 0xfffffe5c
    1bb8:	6174732f 	cmnvs	r4, pc, lsr #6
    1bbc:	7962646e 	stmdbvc	r2!, {r1, r2, r3, r5, r6, sl, sp, lr}^
    1bc0:	2e2f2e2f 	cdpcs	14, 2, cr2, cr15, cr15, {1}
    1bc4:	6e69002e 	cdpvs	0, 6, cr0, cr9, cr14, {1}
    1bc8:	64756c63 	ldrbtvs	r6, [r5], #-3171	; 0xc63
    1bcc:	696c2f65 	stmdbvs	ip!, {r0, r2, r5, r6, r8, r9, sl, fp, sp}^
    1bd0:	2f78756e 	svccs	0x0078756e
    1bd4:	65776f70 	ldrbvs	r6, [r7, #-3952]!	; 0xf70
    1bd8:	6d000072 	stcvs	0, cr0, [r0, #-456]	; 0xfffffe38
    1bdc:	685f6d65 	ldmdavs	pc, {r0, r2, r5, r6, r8, sl, fp, sp, lr}^	; <UNPREDICTABLE>
    1be0:	69707377 	ldmdbvs	r0!, {r0, r1, r2, r4, r5, r6, r8, r9, ip, sp, lr}^
    1be4:	636f6c6e 	cmnvs	pc, #28160	; 0x6e00
    1be8:	00632e6b 	rsbeq	r2, r3, fp, ror #28
    1bec:	70000001 	andvc	r0, r0, r1
    1bf0:	79745f6d 	ldmdbvc	r4!, {r0, r2, r3, r5, r6, r8, r9, sl, fp, ip, lr}^
    1bf4:	2e736570 	mrccs	5, 3, r6, cr3, cr0, {3}
    1bf8:	00010068 	andeq	r0, r1, r8, rrx
    1bfc:	70786100 	rsbsvc	r6, r8, r0, lsl #2
    1c00:	7065645f 	rsbvc	r6, r5, pc, asr r4
    1c04:	2e646e65 	cdpcs	14, 6, cr6, cr4, cr5, {3}
    1c08:	00020068 	andeq	r0, r2, r8, rrx
    1c0c:	05000000 	streq	r0, [r0, #-0]
    1c10:	0037e802 	eorseq	lr, r7, r2, lsl #16
    1c14:	00c703f0 	strdeq	r0, [r7], #48	; 0x30
    1c18:	302c1501 	eorcc	r1, ip, r1, lsl #10
    1c1c:	4b2a4e33 	blmi	a954f0 <__standby_start+0xa954f0>
    1c20:	2e0e0369 	cdpcs	3, 0, cr0, cr14, cr9, {3}
    1c24:	2e7fb503 	cdpcs	5, 7, cr11, cr15, cr3, {0}
    1c28:	4a00d303 	bmi	3683c <__standby_start+0x3683c>
    1c2c:	31473147 	cmpcc	r7, r7, asr #2
    1c30:	0c039b69 	stceq	11, cr9, [r3], {105}	; 0x69
    1c34:	7fbf0366 	svcvc	0x00bf0366
    1c38:	2e3b034a 	cdpcs	3, 3, cr0, cr11, cr10, {2}
    1c3c:	032f4f4b 	teqeq	pc, #300	; 0x12c
    1c40:	0314660e 	tsteq	r4, #14680064	; 0xe00000
    1c44:	032e7fae 	teqeq	lr, #696	; 0x2b8
    1c48:	032e00d2 	teqeq	lr, #210	; 0xd2
    1c4c:	03667fae 	cmneq	r6, #696	; 0x2b8
    1c50:	032e00d2 	teqeq	lr, #210	; 0xd2
    1c54:	032e7fae 	teqeq	lr, #696	; 0x2b8
    1c58:	032e00d2 	teqeq	lr, #210	; 0xd2
    1c5c:	032e7fae 	teqeq	lr, #696	; 0x2b8
    1c60:	032e00d8 	teqeq	lr, #216	; 0xd8
    1c64:	fc034a0e 	stc2	10, cr4, [r3], {14}
    1c68:	8c03017e 	stfhis	f0, [r3], {126}	; 0x7e
    1c6c:	312b4a01 	teqcc	fp, r1, lsl #20
    1c70:	9b693163 	blls	1a4e204 <__standby_start+0x1a4e204>
    1c74:	03660c03 	cmneq	r6, #768	; 0x300
    1c78:	034a7f86 	movteq	r7, #44934	; 0xaf86
    1c7c:	4f2e00f5 	svcmi	0x002e00f5
    1c80:	4a0e032f 	bmi	382944 <__standby_start+0x382944>
    1c84:	7ef50314 	mrcvc	3, 7, r0, cr5, cr4, {0}
    1c88:	018b032e 	orreq	r0, fp, lr, lsr #6
    1c8c:	7ef5032e 	cdpvc	3, 15, cr0, cr5, cr14, {1}
    1c90:	018b0366 	orreq	r0, fp, r6, ror #6
    1c94:	7ef5032e 	cdpvc	3, 15, cr0, cr5, cr14, {1}
    1c98:	018b032e 	orreq	r0, fp, lr, lsr #6
    1c9c:	7ef5032e 	cdpvc	3, 15, cr0, cr5, cr14, {1}
    1ca0:	0191032e 	orrseq	r0, r1, lr, lsr #6
    1ca4:	0004022e 	andeq	r0, r4, lr, lsr #4
    1ca8:	Address 0x00001ca8 is out of bounds.


Disassembly of section .debug_str:

00000000 <.debug_str>:
       0:	41435f49 	cmpmi	r3, r9, asr #30
       4:	5f454843 	svcpl	0x00454843
       8:	5353494d 	cmppl	r3, #1261568	; 0x134000
       c:	544e4900 	strbpl	r4, [lr], #-2304	; 0x900
      10:	554f535f 	strbpl	r5, [pc, #-863]	; fffffcb9 <__bss_end+0xfffbbb9>
      14:	5f454352 	svcpl	0x00454352
      18:	52414c41 	subpl	r4, r1, #16640	; 0x4100
      1c:	6564004d 	strbvs	r0, [r4, #-77]!	; 0x4d
      20:	5f677562 	svcpl	0x00677562
      24:	6b73616d 	blvs	1cd85e0 <__standby_start+0x1cd85e0>
      28:	726f6e00 	rsbvc	r6, pc, #0
      2c:	5f6c616d 	svcpl	0x006c616d
      30:	6e617473 	mcrvs	4, 3, r7, cr1, cr3, {3}
      34:	5f796264 	svcpl	0x00796264
      38:	61726170 	cmnvs	r2, r0, ror r1
      3c:	544e4900 	strbpl	r4, [lr], #-2304	; 0x900
      40:	554f535f 	strbpl	r5, [pc, #-863]	; fffffce9 <__bss_end+0xfffbbe9>
      44:	5f454352 	svcpl	0x00454352
      48:	4f425355 	svcmi	0x00425355
      4c:	30494348 	subcc	r4, r9, r8, asr #6
      50:	544e4900 	strbpl	r4, [lr], #-2304	; 0x900
      54:	554f535f 	strbpl	r5, [pc, #-863]	; fffffcfd <__bss_end+0xfffbbfd>
      58:	5f454352 	svcpl	0x00454352
      5c:	4f425355 	svcmi	0x00425355
      60:	31494348 	cmpcc	r9, r8, asr #6
      64:	544e4900 	strbpl	r4, [lr], #-2304	; 0x900
      68:	554f535f 	strbpl	r5, [pc, #-863]	; fffffd11 <__bss_end+0xfffbc11>
      6c:	5f454352 	svcpl	0x00454352
      70:	4f425355 	svcmi	0x00425355
      74:	32494348 	subcc	r4, r9, #536870913	; 0x20000001
      78:	63616600 	cmnvs	r1, #0
      7c:	32726f74 	rsbscc	r6, r2, #464	; 0x1d0
      80:	63616600 	cmnvs	r1, #0
      84:	33726f74 	cmncc	r2, #464	; 0x1d0
      88:	63616600 	cmnvs	r1, #0
      8c:	34726f74 	ldrbtcc	r6, [r2], #-3956	; 0xf74
      90:	72777000 	rsbsvc	r7, r7, #0
      94:	5f6d645f 	svcpl	0x006d645f
      98:	74617473 	strbtvc	r7, [r1], #-1139	; 0x473
      9c:	00745f65 	rsbseq	r5, r4, r5, ror #30
      a0:	535f4d50 	cmppl	pc, #5120	; 0x1400
      a4:	444e4154 	strbmi	r4, [lr], #-340	; 0x154
      a8:	455f5942 	ldrbmi	r5, [pc, #-2370]	; fffff76e <__bss_end+0xfffb66e>
      ac:	4c42414e 	stfmie	f4, [r2], {78}	; 0x4e
      b0:	544a5f45 	strbpl	r5, [sl], #-3909	; 0xf45
      b4:	6f004741 	svcvs	0x00004741
      b8:	655f6373 	ldrbvs	r6, [pc, #-883]	; fffffd4d <__bss_end+0xfffbc4d>
      bc:	4e49006e 	cdpmi	0, 4, cr0, cr9, cr14, {3}
      c0:	4f535f54 	svcmi	0x00535f54
      c4:	45435255 	strbmi	r5, [r3, #-597]	; 0x255
      c8:	4253555f 	subsmi	r5, r3, #398458880	; 0x17c00000
      cc:	0047544f 	subeq	r5, r7, pc, asr #8
      d0:	5f636f73 	svcpl	0x00636f73
      d4:	65776f70 	ldrbvs	r6, [r7, #-3952]!	; 0xf70
      d8:	72745f72 	rsbsvc	r5, r4, #456	; 0x1c8
      dc:	69006565 	stmdbvs	r0, {r0, r2, r5, r6, r8, sl, sp, lr}
      e0:	74735f6f 	ldrbtvc	r5, [r3], #-3951	; 0xf6f
      e4:	5f657461 	svcpl	0x00657461
      e8:	666e6f63 	strbtvs	r6, [lr], -r3, ror #30
      ec:	5f006769 	svcpl	0x00006769
      f0:	7373625f 	cmnvc	r3, #-268435451	; 0xf0000005
      f4:	646e655f 	strbtvs	r6, [lr], #-1375	; 0x55f
      f8:	635f6400 	cmpvs	pc, #0
      fc:	65686361 	strbvs	r6, [r8, #-865]!	; 0x361
     100:	73696d5f 	cmnvc	r9, #6080	; 0x17c0
     104:	6e655f73 	mcrvs	15, 3, r5, cr5, cr3, {3}
     108:	79730064 	ldmdbvc	r3!, {r2, r5, r6}^
     10c:	616d5f73 	smcvs	54771	; 0xd5f3
     110:	49006b73 	stmdbmi	r0, {r0, r1, r4, r5, r6, r8, r9, fp, sp, lr}
     114:	535f544e 	cmppl	pc, #1308622848	; 0x4e000000
     118:	4352554f 	cmpmi	r2, #331350016	; 0x13c00000
     11c:	50475f45 	subpl	r5, r7, r5, asr #30
     120:	00414f49 	subeq	r4, r1, r9, asr #30
     124:	5f544e49 	svcpl	0x00544e49
     128:	52554f53 	subspl	r4, r5, #332	; 0x14c
     12c:	475f4543 	ldrbmi	r4, [pc, -r3, asr #10]
     130:	424f4950 	submi	r4, pc, #1310720	; 0x140000
     134:	544e4900 	strbpl	r4, [lr], #-2304	; 0x900
     138:	554f535f 	strbpl	r5, [pc, #-863]	; fffffde1 <__bss_end+0xfffbce1>
     13c:	5f454352 	svcpl	0x00454352
     140:	4f495047 	svcmi	0x00495047
     144:	4e490043 	cdpmi	0, 4, cr0, cr9, cr3, {2}
     148:	4f535f54 	svcmi	0x00535f54
     14c:	45435255 	strbmi	r5, [r3, #-597]	; 0x255
     150:	4950475f 	ldmdbmi	r0, {r0, r1, r2, r3, r4, r6, r8, r9, sl, lr}^
     154:	4900444f 	stmdbmi	r0, {r0, r1, r2, r3, r6, sl, lr}
     158:	535f544e 	cmppl	pc, #1308622848	; 0x4e000000
     15c:	4352554f 	cmpmi	r2, #331350016	; 0x13c00000
     160:	50475f45 	subpl	r5, r7, r5, asr #30
     164:	00454f49 	subeq	r4, r5, r9, asr #30
     168:	5f544e49 	svcpl	0x00544e49
     16c:	52554f53 	subspl	r4, r5, #332	; 0x14c
     170:	475f4543 	ldrbmi	r4, [pc, -r3, asr #10]
     174:	464f4950 			; <UNDEFINED> instruction: 0x464f4950
     178:	544e4900 	strbpl	r4, [lr], #-2304	; 0x900
     17c:	554f535f 	strbpl	r5, [pc, #-863]	; fffffe25 <__bss_end+0xfffbd25>
     180:	5f454352 	svcpl	0x00454352
     184:	4f495047 	svcmi	0x00495047
     188:	4e490047 	cdpmi	0, 4, cr0, cr9, cr7, {2}
     18c:	4f535f54 	svcmi	0x00535f54
     190:	45435255 	strbmi	r5, [r3, #-597]	; 0x255
     194:	4950475f 	ldmdbmi	r0, {r0, r1, r2, r3, r4, r6, r8, r9, sl, lr}^
     198:	4900484f 	stmdbmi	r0, {r0, r1, r2, r3, r6, fp, lr}
     19c:	535f544e 	cmppl	pc, #1308622848	; 0x4e000000
     1a0:	4352554f 	cmpmi	r2, #331350016	; 0x13c00000
     1a4:	50475f45 	subpl	r5, r7, r5, asr #30
     1a8:	00494f49 	subeq	r4, r9, r9, asr #30
     1ac:	5f544e49 	svcpl	0x00544e49
     1b0:	52554f53 	subspl	r4, r5, #332	; 0x14c
     1b4:	475f4543 	ldrbmi	r4, [pc, -r3, asr #10]
     1b8:	4a4f4950 	bmi	13d2700 <__standby_start+0x13d2700>
     1bc:	5f4d5000 	svcpl	0x004d5000
     1c0:	4e415453 	mcrmi	4, 2, r5, cr1, cr3, {2}
     1c4:	5f594244 	svcpl	0x00594244
     1c8:	4e495250 	mcrmi	2, 2, r5, cr9, cr0, {2}
     1cc:	4f505f54 	svcmi	0x00505f54
     1d0:	49005452 	stmdbmi	r0, {r1, r4, r6, sl, ip, lr}
     1d4:	535f544e 	cmppl	pc, #1308622848	; 0x4e000000
     1d8:	4352554f 	cmpmi	r2, #331350016	; 0x13c00000
     1dc:	49545f45 	ldmdbmi	r4, {r0, r2, r6, r8, r9, sl, fp, ip, lr}^
     1e0:	3052454d 	subscc	r4, r2, sp, asr #10
     1e4:	544e4900 	strbpl	r4, [lr], #-2304	; 0x900
     1e8:	554f535f 	strbpl	r5, [pc, #-863]	; fffffe91 <__bss_end+0xfffbd91>
     1ec:	5f454352 	svcpl	0x00454352
     1f0:	454d4954 	strbmi	r4, [sp, #-2388]	; 0x954
     1f4:	50003152 	andpl	r3, r0, r2, asr r1
     1f8:	54535f4d 	ldrbpl	r5, [r3], #-3917	; 0xf4d
     1fc:	42444e41 	submi	r4, r4, #1040	; 0x410
     200:	52505f59 	subspl	r5, r0, #356	; 0x164
     204:	5f544e49 	svcpl	0x00544e49
     208:	55534552 	ldrbpl	r4, [r3, #-1362]	; 0x552
     20c:	495f454d 	ldmdbmi	pc, {r0, r2, r3, r6, r8, sl, lr}^	; <UNPREDICTABLE>
     210:	54535f4f 	ldrbpl	r5, [r3], #-3919	; 0xf4f
     214:	53555441 	cmppl	r5, #1090519040	; 0x41000000
     218:	64617000 	strbtvs	r7, [r1], #-0
     21c:	70007264 	andvc	r7, r0, r4, ror #4
     220:	635f6c6c 	cmpvs	pc, #27648	; 0x6c00
     224:	676e6168 	strbvs	r6, [lr, -r8, ror #2]!
     228:	6f730065 	svcvs	0x00730065
     22c:	64695f63 	strbtvs	r5, [r9], #-3939	; 0xf63
     230:	544e4900 	strbpl	r4, [lr], #-2304	; 0x900
     234:	554f535f 	strbpl	r5, [pc, #-863]	; fffffedd <__bss_end+0xfffbddd>
     238:	5f454352 	svcpl	0x00454352
     23c:	4e545845 	cdpmi	8, 5, cr5, cr4, cr5, {2}
     240:	6300494d 	movwvs	r4, #2381	; 0x94d
     244:	655f6372 	ldrbvs	r6, [pc, #-882]	; fffffeda <__bss_end+0xfffbdda>
     248:	6f6c006e 	svcvs	0x006c006e
     24c:	6c20676e 	stcvs	7, cr6, [r0], #-440	; 0xfffffe48
     250:	20676e6f 	rsbcs	r6, r7, pc, ror #28
     254:	69736e75 	ldmdbvs	r3!, {r0, r2, r4, r5, r6, r9, sl, fp, sp, lr}^
     258:	64656e67 	strbtvs	r6, [r5], #-3687	; 0xe67
     25c:	746e6920 	strbtvc	r6, [lr], #-2336	; 0x920
     260:	435f4400 	cmpmi	pc, #0
     264:	45484341 	strbmi	r4, [r8, #-833]	; 0x341
     268:	53494d5f 	movtpl	r4, #40287	; 0x9d5f
     26c:	6f630053 	svcvs	0x00630053
     270:	65746e75 	ldrbvs	r6, [r4, #-3701]!	; 0xe75
     274:	79745f72 	ldmdbvc	r4!, {r1, r4, r5, r6, r8, r9, sl, fp, ip, lr}^
     278:	655f6570 	ldrbvs	r6, [pc, #-1392]	; fffffd10 <__bss_end+0xfffbc10>
     27c:	5f776100 	svcpl	0x00776100
     280:	695f6d70 	ldmdbvs	pc, {r4, r5, r6, r8, sl, fp, sp, lr}^	; <UNPREDICTABLE>
     284:	006f666e 	rsbeq	r6, pc, lr, ror #12
     288:	4c545f44 	mrrcmi	15, 4, r5, r4, cr4
     28c:	494d5f42 	stmdbmi	sp, {r1, r6, r8, r9, sl, fp, ip, lr}^
     290:	62005353 	andvs	r5, r0, #1275068417	; 0x4c000001
     294:	665f7375 			; <UNDEFINED> instruction: 0x665f7375
     298:	6f746361 	svcvs	0x00746361
     29c:	65700072 	ldrbvs	r0, [r0, #-114]!	; 0x72
     2a0:	6e657478 	mcrvs	4, 3, r7, cr5, cr8, {3}
     2a4:	5f646564 	svcpl	0x00646564
     2a8:	6e617473 	mcrvs	4, 3, r7, cr1, cr3, {3}
     2ac:	00796264 	rsbseq	r6, r9, r4, ror #4
     2b0:	535f4d50 	cmppl	pc, #5120	; 0x1400
     2b4:	444e4154 	strbmi	r4, [lr], #-340	; 0x154
     2b8:	505f5942 	subspl	r5, pc, r2, asr #18
     2bc:	544e4952 	strbpl	r4, [lr], #-2386	; 0x952
     2c0:	5f4f495f 	svcpl	0x004f495f
     2c4:	54415453 	strbpl	r5, [r1], #-1107	; 0x453
     2c8:	49005355 	stmdbmi	r0, {r0, r2, r4, r6, r8, r9, ip, lr}
     2cc:	535f544e 	cmppl	pc, #1308622848	; 0x4e000000
     2d0:	4352554f 	cmpmi	r2, #331350016	; 0x13c00000
     2d4:	52495f45 	subpl	r5, r9, #276	; 0x114
     2d8:	4e490030 	mcrmi	0, 2, r0, cr9, cr0, {1}
     2dc:	4f535f54 	svcmi	0x00535f54
     2e0:	45435255 	strbmi	r5, [r3, #-597]	; 0x255
     2e4:	3152495f 	cmpcc	r2, pc, asr r9
     2e8:	696e6900 	stmdbvs	lr!, {r8, fp, sp, lr}^
     2ec:	6c705f74 	ldclvs	15, cr5, [r0], #-464	; 0xfffffe30
     2f0:	69645f6c 	stmdbvs	r4!, {r2, r3, r5, r6, r8, r9, sl, fp, ip, lr}^
     2f4:	6d6d0073 	stclvs	0, cr0, [sp, #-460]!	; 0xfffffe34
     2f8:	61625f75 	smcvs	9717	; 0x25f5
     2fc:	70756b63 	rsbsvc	r6, r5, r3, ror #22
     300:	73756200 	cmnvc	r5, #0
     304:	7261705f 	rsbvc	r7, r1, #95	; 0x5f
     308:	00745f61 	rsbseq	r5, r4, r1, ror #30
     30c:	5f6c6c70 	svcpl	0x006c6c70
     310:	61726170 	cmnvs	r2, r0, ror r1
     314:	63616300 	cmnvs	r1, #0
     318:	635f6568 	cmpvs	pc, #436207616	; 0x1a000000
     31c:	746e756f 	strbtvc	r7, [lr], #-1391	; 0x56f
     320:	7465675f 	strbtvc	r6, [r5], #-1887	; 0x75f
     324:	625f5f00 	subsvs	r5, pc, #0
     328:	735f7373 	cmpvc	pc, #-872415231	; 0xcc000001
     32c:	74726174 	ldrbtvc	r6, [r2], #-372	; 0x174
     330:	44445600 	strbmi	r5, [r4], #-1536	; 0x600
     334:	5550475f 	ldrbpl	r4, [r0, #-1887]	; 0x75f
     338:	5449425f 	strbpl	r4, [r9], #-607	; 0x25f
     33c:	44445600 	strbmi	r5, [r4], #-1536	; 0x600
     340:	5550435f 	ldrbpl	r4, [r0, #-863]	; 0x35f
     344:	49425f42 	stmdbmi	r2, {r1, r6, r8, r9, sl, fp, ip, lr}^
     348:	4d500054 	ldclmi	0, cr0, [r0, #-336]	; 0xfffffeb0
     34c:	4154535f 	cmpmi	r4, pc, asr r3
     350:	5942444e 	stmdbpl	r2, {r1, r2, r3, r6, sl, lr}^
     354:	4952505f 	ldmdbmi	r2, {r0, r1, r2, r3, r4, r6, ip, lr}^
     358:	475f544e 	ldrbmi	r5, [pc, -lr, asr #8]
     35c:	53554254 	cmppl	r5, #1073741829	; 0x40000005
     360:	4745525f 	smlsldmi	r5, r5, pc, r2	; <UNPREDICTABLE>
     364:	5f4d5000 	svcpl	0x004d5000
     368:	4e415453 	mcrmi	4, 2, r5, cr1, cr3, {2}
     36c:	5f594244 	svcpl	0x00594244
     370:	4e495250 	mcrmi	2, 2, r5, cr9, cr0, {2}
     374:	54535f54 	ldrbpl	r5, [r3], #-3924	; 0xf54
     378:	42444e41 	submi	r4, r4, #1040	; 0x410
     37c:	74730059 	ldrbtvc	r0, [r3], #-89	; 0x59
     380:	62646e61 	rsbvs	r6, r4, #1552	; 0x610
     384:	6c635f79 	stclvs	15, cr5, [r3], #-484	; 0xfffffe1c
     388:	6c705f6b 	ldclvs	15, cr5, [r0], #-428	; 0xfffffe54
     38c:	6e65316c 	powvssz	f3, f5, #4.0
     390:	656c6261 	strbvs	r6, [ip, #-609]!	; 0x261
     394:	65727000 	ldrbvs	r7, [r2, #-0]!
     398:	7669645f 			; <UNDEFINED> instruction: 0x7669645f
     39c:	75706300 	ldrbvc	r6, [r0, #-768]!	; 0x300
     3a0:	70675f78 	rsbvc	r5, r7, r8, ror pc
     3a4:	5f676f69 	svcpl	0x00676f69
     3a8:	6d746962 	ldclvs	9, cr6, [r4, #-392]!	; 0xfffffe78
     3ac:	69007061 	stmdbvs	r0, {r0, r5, r6, ip, sp, lr}
     3b0:	6361635f 	cmnvs	r1, #2080374785	; 0x7c000001
     3b4:	6d5f6568 	cfldr64vs	mvdx6, [pc, #-416]	; 21c <__standby_start+0x21c>
     3b8:	5f737369 	svcpl	0x00737369
     3bc:	00646e65 	rsbeq	r6, r4, r5, ror #28
     3c0:	5f636f73 	svcpl	0x00636f73
     3c4:	6d617264 	sfmvs	f7, 2, [r1, #-400]!	; 0xfffffe70
     3c8:	6174735f 	cmnvs	r4, pc, asr r3
     3cc:	62006574 	andvs	r6, r0, #486539264	; 0x1d000000
     3d0:	756b6361 	strbvc	r6, [fp, #-865]!	; 0x361
     3d4:	63635f70 	cmnvs	r3, #448	; 0x1c0
     3d8:	69640075 	stmdbvs	r4!, {r0, r2, r4, r5, r6}^
     3dc:	61725f76 	cmnvs	r2, r6, ror pc
     3e0:	006f6974 	rsbeq	r6, pc, r4, ror r9	; <UNPREDICTABLE>
     3e4:	5f636f73 	svcpl	0x00636f73
     3e8:	705f6f69 	subsvc	r6, pc, r9, ror #30
     3ec:	00617261 	rsbeq	r7, r1, r1, ror #4
     3f0:	5f444456 	svcpl	0x00444456
     3f4:	53555043 	cmppl	r5, #67	; 0x43
     3f8:	5449425f 	strbpl	r4, [r9], #-607	; 0x25f
     3fc:	554e4700 	strbpl	r4, [lr, #-1792]	; 0x700
     400:	34204320 	strtcc	r4, [r0], #-800	; 0x320
     404:	332e362e 	teqcc	lr, #48234496	; 0x2e00000
     408:	31303220 	teqcc	r0, r0, lsr #4
     40c:	30323032 	eorscc	r3, r2, r2, lsr r0
     410:	70282031 	eorvc	r2, r8, r1, lsr r0
     414:	65726572 	ldrbvs	r6, [r2, #-1394]!	; 0x572
     418:	7361656c 	cmnvc	r1, #452984832	; 0x1b000000
     41c:	50002965 	andpl	r2, r0, r5, ror #18
     420:	54535f4d 	ldrbpl	r5, [r3], #-3917	; 0xf4d
     424:	42444e41 	submi	r4, r4, #1040	; 0x410
     428:	52505f59 	subspl	r5, r0, #356	; 0x164
     42c:	5f544e49 	svcpl	0x00544e49
     430:	55534552 	ldrbpl	r4, [r3, #-1362]	; 0x552
     434:	5600454d 	strpl	r4, [r0], -sp, asr #10
     438:	535f4444 	cmppl	pc, #1140850688	; 0x44000000
     43c:	425f5359 	subsmi	r5, pc, #1677721601	; 0x64000001
     440:	5f005449 	svcpl	0x00005449
     444:	3233755f 	eorscc	r7, r3, #398458880	; 0x17c00000
     448:	63616600 	cmnvs	r1, #0
     44c:	31726f74 	cmncc	r2, r4, ror pc
     450:	5f776100 	svcpl	0x00776100
     454:	5f756d70 	svcpl	0x00756d70
     458:	00677261 	rsbeq	r7, r7, r1, ror #4
     45c:	73697261 	cmnvc	r9, #268435462	; 0x10000006
     460:	74735f63 	ldrbtvc	r5, [r3], #-3939	; 0xf63
     464:	62646e61 	rsbvs	r6, r4, #1552	; 0x610
     468:	43560079 	cmpmi	r6, #121	; 0x79
     46c:	44415f43 	strbmi	r5, [r1], #-3907	; 0xf43
     470:	49425f43 	stmdbmi	r2, {r0, r1, r6, r8, r9, sl, fp, ip, lr}^
     474:	6d700054 	ldclvs	0, cr0, [r0, #-336]!	; 0xfffffeb0
     478:	64695f75 	strbtvs	r5, [r9], #-3957	; 0xf75
     47c:	6e6f6c00 	cdpvs	12, 6, cr6, cr15, cr0, {0}
     480:	6f6c2067 	svcvs	0x006c2067
     484:	6920676e 	stmdbvs	r0!, {r1, r2, r3, r5, r6, r8, r9, sl, sp, lr}
     488:	7300746e 	movwvc	r7, #1134	; 0x46e
     48c:	646e6174 	strbtvs	r6, [lr], #-372	; 0x174
     490:	6d5f7962 	ldclvs	9, cr7, [pc, #-392]	; 310 <__standby_start+0x310>
     494:	006e6961 	rsbeq	r6, lr, r1, ror #18
     498:	5f636f73 	svcpl	0x00636f73
     49c:	705f6f69 	subsvc	r6, pc, r9, ror #30
     4a0:	5f617261 	svcpl	0x00617261
     4a4:	70670074 	rsbvc	r0, r7, r4, ror r0
     4a8:	655f6f69 	ldrbvs	r6, [pc, #-3945]	; fffff547 <__bss_end+0xfffb447>
     4ac:	6c62616e 	stfvse	f6, [r2], #-440	; 0xfffffe48
     4b0:	69625f65 	stmdbvs	r2!, {r0, r2, r5, r6, r8, r9, sl, fp, ip, lr}^
     4b4:	70616d74 	rsbvc	r6, r1, r4, ror sp
     4b8:	5f4d5000 	svcpl	0x004d5000
     4bc:	4e415453 	mcrmi	4, 2, r5, cr1, cr3, {2}
     4c0:	5f594244 	svcpl	0x00594244
     4c4:	4e495250 	mcrmi	2, 2, r5, cr9, cr0, {2}
     4c8:	43435f54 	movtmi	r5, #16212	; 0x3f54
     4cc:	54535f55 	ldrbpl	r5, [r3], #-3925	; 0xf55
     4d0:	53555441 	cmppl	r5, #1090519040	; 0x41000000
     4d4:	544e4900 	strbpl	r4, [lr], #-2304	; 0x900
     4d8:	554f535f 	strbpl	r5, [pc, #-863]	; 181 <__standby_start+0x181>
     4dc:	5f454352 	svcpl	0x00454352
     4e0:	45425355 	strbmi	r5, [r2, #-853]	; 0x355
     4e4:	30494348 	subcc	r4, r9, r8, asr #6
     4e8:	544e4900 	strbpl	r4, [lr], #-2304	; 0x900
     4ec:	554f535f 	strbpl	r5, [pc, #-863]	; 195 <__standby_start+0x195>
     4f0:	5f454352 	svcpl	0x00454352
     4f4:	45425355 	strbmi	r5, [r2, #-853]	; 0x355
     4f8:	31494348 	cmpcc	r9, r8, asr #6
     4fc:	544e4900 	strbpl	r4, [lr], #-2304	; 0x900
     500:	554f535f 	strbpl	r5, [pc, #-863]	; 1a9 <__standby_start+0x1a9>
     504:	5f454352 	svcpl	0x00454352
     508:	45425355 	strbmi	r5, [r2, #-853]	; 0x355
     50c:	32494348 	subcc	r4, r9, #536870913	; 0x20000001
     510:	73756200 	cmnvc	r5, #0
     514:	7261705f 	rsbvc	r7, r1, #95	; 0x5f
     518:	70630061 	rsbvc	r0, r3, r1, rrx
     51c:	635f7875 	cmpvs	pc, #7667712	; 0x750000
     520:	705f6b6c 	subsvc	r6, pc, ip, ror #22
     524:	5f617261 	svcpl	0x00617261
     528:	5f490074 	svcpl	0x00490074
     52c:	5f424c54 	svcpl	0x00424c54
     530:	5353494d 	cmppl	r3, #1261568	; 0x134000
     534:	6f682f00 	svcvs	0x00682f00
     538:	642f656d 	strtvs	r6, [pc], #-1389	; 540 <__standby_start+0x540>
     53c:	6b676e61 	blvs	19dbec8 <__standby_start+0x19dbec8>
     540:	796d2f75 	stmdbvc	sp!, {r0, r2, r4, r5, r6, r8, r9, sl, fp, sp}^
     544:	696f7264 	stmdbvs	pc!, {r2, r5, r6, r9, ip, sp, lr}^	; <UNPREDICTABLE>
     548:	61622f64 	cmnvs	r2, r4, ror #30
     54c:	616e616e 	cmnvs	lr, lr, ror #2
     550:	6d2f6950 	stcvs	9, cr6, [pc, #-320]!	; 418 <__standby_start+0x418>
     554:	6f732f33 	svcvs	0x00732f33
     558:	65637275 	strbvs	r7, [r3, #-629]!	; 0x275
     55c:	3338612f 	teqcc	r8, #-1073741813	; 0xc000000b
     560:	50422f74 	subpl	r2, r2, r4, ror pc
     564:	334d2d49 	movtcc	r2, #56649	; 0xdd49
     568:	7073622d 	rsbsvc	r6, r3, sp, lsr #4
     56c:	6e696c2f 	cdpvs	12, 6, cr6, cr9, cr15, {1}
     570:	732d7875 	teqvc	sp, #7667712	; 0x750000
     574:	69786e75 	ldmdbvs	r8!, {r0, r2, r4, r5, r6, r9, sl, fp, sp, lr}^
     578:	6c617600 	stclvs	6, cr7, [r1], #-0
     57c:	6d5f6575 	cfldr64vs	mvdx6, [pc, #-468]	; 3b0 <__standby_start+0x3b0>
     580:	006b7361 	rsbeq	r7, fp, r1, ror #6
     584:	78757063 	ldmdavc	r5!, {r0, r1, r5, r6, ip, sp, lr}^
     588:	6b6c635f 	blvs	1b1930c <__standby_start+0x1b1930c>
     58c:	6174735f 	cmnvs	r4, pc, asr r3
     590:	64006574 	strvs	r6, [r0], #-1396	; 0x574
     594:	5f6d6172 	svcpl	0x006d6172
     598:	61726170 	cmnvs	r2, r0, ror r1
     59c:	6300745f 	movwvs	r7, #1119	; 0x45f
     5a0:	5f787570 	svcpl	0x00787570
     5a4:	5f6b6c63 	svcpl	0x006b6c63
     5a8:	61726170 	cmnvs	r2, r0, ror r1
     5ac:	74786500 	ldrbtvc	r6, [r8], #-1280	; 0x500
     5b0:	65646e65 	strbvs	r6, [r4, #-3685]!	; 0xe65
     5b4:	74735f64 	ldrbtvc	r5, [r3], #-3940	; 0xf64
     5b8:	62646e61 	rsbvs	r6, r4, #1552	; 0x610
     5bc:	61705f79 	cmnvs	r0, r9, ror pc
     5c0:	695f6172 	ldmdbvs	pc, {r1, r4, r5, r6, r8, sp, lr}^	; <UNPREDICTABLE>
     5c4:	006f666e 	rsbeq	r6, pc, lr, ror #12
     5c8:	5f544e49 	svcpl	0x00544e49
     5cc:	52554f53 	subspl	r4, r5, #332	; 0x14c
     5d0:	4d5f4543 	cfldr64mi	mvdx4, [pc, #-268]	; 4cc <__standby_start+0x4cc>
     5d4:	425f4753 	subsmi	r4, pc, #21757952	; 0x14c0000
     5d8:	6300584f 	movwvs	r5, #2127	; 0x84f
     5dc:	6c5f6372 	mrrcvs	3, 7, r6, pc, cr2	; <UNPREDICTABLE>
     5e0:	73006e65 	movwvc	r6, #3685	; 0xe65
     5e4:	705f636f 	subsvc	r6, pc, pc, ror #6
     5e8:	645f7277 	ldrbvs	r7, [pc], #-631	; 5f0 <__standby_start+0x5f0>
     5ec:	74735f6d 	ldrbtvc	r5, [r3], #-3949	; 0xf6d
     5f0:	00657461 	rsbeq	r7, r5, r1, ror #8
     5f4:	666c6573 			; <UNDEFINED> instruction: 0x666c6573
     5f8:	68736572 	ldmdavs	r3!, {r1, r4, r5, r6, r8, sl, sp, lr}^
     5fc:	616c665f 	cmnvs	ip, pc, asr r6
     600:	77740067 	ldrbvc	r0, [r4, -r7, rrx]!
     604:	6f705f69 	svcvs	0x00705f69
     608:	73007472 	movwvc	r7, #1138	; 0x472
     60c:	61625f70 	smcvs	9712	; 0x25f0
     610:	70756b63 	rsbsvc	r6, r5, r3, ror #22
     614:	544e4900 	strbpl	r4, [lr], #-2304	; 0x900
     618:	554f535f 	strbpl	r5, [pc, #-863]	; 2c1 <__standby_start+0x2c1>
     61c:	5f454352 	svcpl	0x00454352
     620:	43554f54 	cmpmi	r5, #336	; 0x150
     624:	4c4e5048 	mcrrmi	0, 4, r5, lr, cr8
     628:	43435600 	movtmi	r5, #13824	; 0x3600
     62c:	4c4c505f 	mcrrmi	0, 5, r5, ip, cr15
     630:	5449425f 	strbpl	r4, [r9], #-607	; 0x25f
     634:	6c6c7000 	stclvs	0, cr7, [ip], #-0
     638:	7261705f 	rsbvc	r7, r1, #95	; 0x5f
     63c:	00745f61 	rsbseq	r5, r4, r1, ror #30
     640:	5f707861 	svcpl	0x00707861
     644:	6e657665 	cdpvs	6, 6, cr7, cr5, cr5, {3}
     648:	43560074 	cmpmi	r6, #116	; 0x74
     64c:	4d505f43 	ldclmi	15, cr5, [r0, #-268]	; 0xfffffef4
     650:	5449425f 	strbpl	r4, [r9], #-607	; 0x25f
     654:	746e6900 	strbtvc	r6, [lr], #-2304	; 0x900
     658:	75727265 	ldrbvc	r7, [r2, #-613]!	; 0x265
     65c:	735f7470 	cmpvc	pc, #1879048192	; 0x70000000
     660:	6372756f 	cmnvs	r2, #465567744	; 0x1bc00000
     664:	00655f65 	rsbeq	r5, r5, r5, ror #30
     668:	726f6873 	rsbvc	r6, pc, #7536640	; 0x730000
     66c:	6e692074 	mcrvs	0, 3, r2, cr9, cr4, {3}
     670:	43560074 	cmpmi	r6, #116	; 0x74
     674:	4f495f43 	svcmi	0x00495f43
     678:	5449425f 	strbpl	r4, [r9], #-607	; 0x25f
     67c:	63726100 	cmnvs	r2, #0
     680:	72612f68 	rsbvc	r2, r1, #416	; 0x1a0
     684:	616d2f6d 	cmnvs	sp, sp, ror #30
     688:	732d6863 	teqvc	sp, #6488064	; 0x630000
     68c:	69786e75 	ldmdbvs	r8!, {r0, r2, r4, r5, r6, r9, sl, fp, sp, lr}^
     690:	2f6d702f 	svccs	0x006d702f
     694:	6e617473 	mcrvs	4, 3, r7, cr1, cr3, {3}
     698:	2f796264 	svccs	0x00796264
     69c:	6e617473 	mcrvs	4, 3, r7, cr1, cr3, {3}
     6a0:	2e796264 	cdpcs	2, 7, cr6, cr9, cr4, {3}
     6a4:	65640063 	strbvs	r0, [r4, #-99]!	; 0x63
     6a8:	64615f76 	strbtvs	r5, [r1], #-3958	; 0xf76
     6ac:	56007264 	strpl	r7, [r0], -r4, ror #4
     6b0:	435f4444 	cmpmi	pc, #1140850688	; 0x44000000
     6b4:	5f415550 	svcpl	0x00415550
     6b8:	00544942 	subseq	r4, r4, r2, asr #18
     6bc:	5f444456 	svcpl	0x00444456
     6c0:	5f555056 	svcpl	0x00555056
     6c4:	00544942 	subseq	r4, r4, r2, asr #18
     6c8:	5f544e49 	svcpl	0x00544e49
     6cc:	52554f53 	subspl	r4, r5, #332	; 0x14c
     6d0:	4c5f4543 	cfldr64mi	mvdx4, [pc], {67}	; 0x43
     6d4:	43444152 	movtmi	r4, #16722	; 0x4152
     6d8:	745f6900 	ldrbvc	r6, [pc], #-2304	; 6e0 <__standby_start+0x6e0>
     6dc:	6d5f626c 	lfmvs	f6, 2, [pc, #-432]	; 534 <__standby_start+0x534>
     6e0:	5f737369 	svcpl	0x00737369
     6e4:	00646e65 	rsbeq	r6, r4, r5, ror #28
     6e8:	735f7761 	cmpvc	pc, #25427968	; 0x1840000
     6ec:	646e6174 	strbtvs	r6, [lr], #-372	; 0x174
     6f0:	705f7962 	subsvc	r7, pc, r2, ror #18
     6f4:	00617261 	rsbeq	r7, r1, r1, ror #4
     6f8:	61635f69 	cmnvs	r3, r9, ror #30
     6fc:	5f656863 	svcpl	0x00656863
     700:	7373696d 	cmnvc	r3, #1785856	; 0x1b4000
     704:	6174735f 	cmnvs	r4, pc, asr r3
     708:	64007472 	strvs	r7, [r0], #-1138	; 0x472
     70c:	626c745f 	rsbvs	r7, ip, #1593835520	; 0x5f000000
     710:	73696d5f 	cmnvc	r9, #6080	; 0x17c0
     714:	74735f73 	ldrbtvc	r5, [r3], #-3955	; 0xf73
     718:	00747261 	rsbseq	r7, r4, r1, ror #4
     71c:	68636163 	stmdavs	r3!, {r0, r1, r5, r6, r8, sp, lr}^
     720:	6f635f65 	svcvs	0x00635f65
     724:	5f746e75 	svcpl	0x00746e75
     728:	7074756f 	rsbsvc	r7, r4, pc, ror #10
     72c:	64007475 	strvs	r7, [r0], #-1141	; 0x475
     730:	6361635f 	cmnvs	r1, #2080374785	; 0x7c000001
     734:	6d5f6568 	cfldr64vs	mvdx6, [pc, #-416]	; 59c <__standby_start+0x59c>
     738:	5f737369 	svcpl	0x00737369
     73c:	72617473 	rsbvc	r7, r1, #1929379840	; 0x73000000
     740:	72640074 	rsbvc	r0, r4, #116	; 0x74
     744:	705f6d61 	subsvc	r6, pc, r1, ror #26
     748:	00617261 	rsbeq	r7, r1, r1, ror #4
     74c:	535f4d50 	cmppl	pc, #5120	; 0x1400
     750:	444e4154 	strbmi	r4, [lr], #-340	; 0x154
     754:	505f5942 	subspl	r5, pc, r2, asr #18
     758:	544e4952 	strbpl	r4, [lr], #-2386	; 0x952
     75c:	4943435f 	stmdbmi	r3, {r0, r1, r2, r3, r4, r6, r8, r9, lr}^
     760:	5f303034 	svcpl	0x00303034
     764:	00474552 	subeq	r4, r7, r2, asr r5
     768:	5f434356 	svcpl	0x00434356
     76c:	4d415244 	sfmmi	f5, 2, [r1, #-272]	; 0xfffffef0
     770:	5449425f 	strbpl	r4, [r9], #-607	; 0x25f
     774:	745f6400 	ldrbvc	r6, [pc], #-1024	; 77c <__standby_start+0x77c>
     778:	6d5f626c 	lfmvs	f6, 2, [pc, #-432]	; 5d0 <__standby_start+0x5d0>
     77c:	5f737369 	svcpl	0x00737369
     780:	00646e65 	rsbeq	r6, r4, r5, ror #28
     784:	535f4d50 	cmppl	pc, #5120	; 0x1400
     788:	444e4154 	strbmi	r4, [lr], #-340	; 0x154
     78c:	545f5942 	ldrbpl	r5, [pc], #-2370	; 794 <__standby_start+0x794>
     790:	00545345 	subseq	r5, r4, r5, asr #6
     794:	6d726f6e 	ldclvs	15, cr6, [r2, #-440]!	; 0xfffffe48
     798:	735f6c61 	cmpvc	pc, #24832	; 0x6100
     79c:	646e6174 	strbtvs	r6, [lr], #-372	; 0x174
     7a0:	705f7962 	subsvc	r7, pc, r2, ror #18
     7a4:	5f617261 	svcpl	0x00617261
     7a8:	6f666e69 	svcvs	0x00666e69
     7ac:	736e7500 	cmnvc	lr, #0
     7b0:	656e6769 	strbvs	r6, [lr, #-1897]!	; 0x769
     7b4:	68632064 	stmdavs	r3!, {r2, r5, r6, sp}^
     7b8:	74007261 	strvc	r7, [r0], #-609	; 0x261
     7bc:	7450706d 	ldrbvc	r7, [r0], #-109	; 0x6d
     7c0:	43560072 	cmpmi	r6, #114	; 0x72
     7c4:	444c5f43 	strbmi	r5, [ip], #-3907	; 0xf43
     7c8:	5f4e494f 	svcpl	0x004e494f
     7cc:	00544942 	subseq	r4, r4, r2, asr #18
     7d0:	65747865 	ldrbvs	r7, [r4, #-2149]!	; 0x865
     7d4:	6465646e 	strbtvs	r6, [r5], #-1134	; 0x46e
     7d8:	6174735f 	cmnvs	r4, pc, asr r3
     7dc:	7962646e 	stmdbvc	r2!, {r1, r2, r3, r5, r6, sl, sp, lr}^
     7e0:	7300745f 	movwvc	r7, #1119	; 0x45f
     7e4:	695f636f 	ldmdbvs	pc, {r0, r1, r2, r3, r5, r6, r8, r9, sp, lr}^	; <UNPREDICTABLE>
     7e8:	74735f6f 	ldrbtvc	r5, [r3], #-3951	; 0xf6f
     7ec:	00657461 	rsbeq	r7, r5, r1, ror #8
     7f0:	65776f70 	ldrbvs	r6, [r7, #-3952]!	; 0xf70
     7f4:	65725f72 	ldrbvs	r5, [r2, #-3954]!	; 0xf72
     7f8:	745f7567 	ldrbvc	r7, [pc], #-1383	; 800 <__standby_start+0x800>
     7fc:	00656572 	rsbeq	r6, r5, r2, ror r5
     800:	5f434356 	svcpl	0x00434356
     804:	5f58414d 	svcpl	0x0058414d
     808:	45444e49 	strbmi	r4, [r4, #-3657]	; 0xe49
     80c:	72630058 	rsbvc	r0, r3, #88	; 0x58
     810:	74735f63 	ldrbtvc	r5, [r3], #-3939	; 0xf63
     814:	00747261 	rsbseq	r7, r4, r1, ror #4
     818:	74697865 	strbtvc	r7, [r9], #-2149	; 0x865
     81c:	6c6c705f 	stclvs	0, cr7, [ip], #-380	; 0xfffffe84
     820:	006e655f 	rsbeq	r6, lr, pc, asr r5
     824:	535f4d50 	cmppl	pc, #5120	; 0x1400
     828:	444e4154 	strbmi	r4, [lr], #-340	; 0x154
     82c:	505f5942 	subspl	r5, pc, r2, asr #18
     830:	544e4952 	strbpl	r4, [lr], #-2386	; 0x952
     834:	4341435f 	movtmi	r4, #4959	; 0x135f
     838:	545f4548 	ldrbpl	r4, [pc], #-1352	; 840 <__standby_start+0x840>
     83c:	4d5f424c 	lfmmi	f4, 2, [pc, #-304]	; 714 <__standby_start+0x714>
     840:	00535349 	subseq	r5, r3, r9, asr #6
     844:	74736572 	ldrbtvc	r6, [r3], #-1394	; 0x572
     848:	5f65726f 	svcpl	0x0065726f
     84c:	00756363 	rsbseq	r6, r5, r3, ror #6
     850:	6c745f69 	ldclvs	15, cr5, [r4], #-420	; 0xfffffe5c
     854:	696d5f62 	stmdbvs	sp!, {r1, r5, r6, r8, r9, sl, fp, ip, lr}^
     858:	735f7373 	cmpvc	pc, #-872415231	; 0xcc000001
     85c:	74726174 	ldrbtvc	r6, [r2], #-372	; 0x174
     860:	44445600 	strbmi	r5, [r4], #-1536	; 0x600
     864:	4152445f 	cmpmi	r2, pc, asr r4
     868:	4c4c504d 	mcrrmi	0, 4, r5, ip, cr13
     86c:	5449425f 	strbpl	r4, [r9], #-607	; 0x25f
     870:	43435600 	movtmi	r5, #13824	; 0x3600
     874:	5650435f 			; <UNDEFINED> instruction: 0x5650435f
     878:	425f4444 	subsmi	r4, pc, #1140850688	; 0x44000000
     87c:	73005449 	movwvc	r5, #1097	; 0x449
     880:	74726f68 	ldrbtvc	r6, [r2], #-3944	; 0xf68
     884:	736e7520 	cmnvc	lr, #134217728	; 0x8000000
     888:	656e6769 	strbvs	r6, [lr, #-1897]!	; 0x769
     88c:	6e692064 	cdpvs	0, 6, cr2, cr9, cr4, {3}
     890:	74740074 	ldrbtvc	r0, [r4], #-116	; 0x74
     894:	72305f62 	eorsvc	r5, r0, #392	; 0x188
     898:	6361625f 	cmnvs	r1, #-268435451	; 0xf0000005
     89c:	0070756b 	rsbseq	r7, r0, fp, ror #10
     8a0:	535f4d50 	cmppl	pc, #5120	; 0x1400
     8a4:	444e4154 	strbmi	r4, [lr], #-340	; 0x154
     8a8:	505f5942 	subspl	r5, pc, r2, asr #18
     8ac:	544e4952 	strbpl	r4, [lr], #-2386	; 0x952
     8b0:	5550435f 	ldrbpl	r4, [r0, #-863]	; 0x35f
     8b4:	4f495f53 	svcmi	0x00495f53
     8b8:	4154535f 	cmpmi	r4, pc, asr r3
     8bc:	00535554 	subseq	r5, r3, r4, asr r5
     8c0:	646c6f68 	strbtvs	r6, [ip], #-3944	; 0xf68
     8c4:	616c665f 	cmnvs	ip, pc, asr r6
     8c8:	75620067 	strbvc	r0, [r2, #-103]!	; 0x67
     8cc:	68635f73 	stmdavs	r3!, {r0, r1, r4, r5, r6, r8, r9, sl, fp, ip, lr}^
     8d0:	65676e61 	strbvs	r6, [r7, #-3681]!	; 0xe61
     8d4:	63616300 	cmnvs	r1, #0
     8d8:	635f6568 	cmpvs	pc, #436207616	; 0x1a000000
     8dc:	746e756f 	strbtvc	r7, [lr], #-1391	; 0x56f
     8e0:	696e695f 	stmdbvs	lr!, {r0, r1, r2, r3, r4, r6, r8, fp, sp, lr}^
     8e4:	4d500074 	ldclmi	0, cr0, [r0, #-464]	; 0xfffffe30
     8e8:	4154535f 	cmpmi	r4, pc, asr r3
     8ec:	5942444e 	stmdbpl	r2, {r1, r2, r3, r6, sl, lr}^
     8f0:	4952505f 	ldmdbmi	r2, {r0, r1, r2, r3, r4, r6, ip, lr}^
     8f4:	505f544e 	subspl	r5, pc, lr, asr #8
     8f8:	535f5257 	cmppl	pc, #1879048197	; 0x70000005
     8fc:	55544154 	ldrbpl	r4, [r4, #-340]	; 0x154
     900:	43560053 	cmpmi	r6, #83	; 0x53
     904:	4c505f43 	mrrcmi	15, 4, r5, r0, cr3
     908:	5449425f 	strbpl	r4, [r9], #-607	; 0x25f
     90c:	5f6f6900 	svcpl	0x006f6900
     910:	74617473 	strbtvc	r7, [r1], #-1139	; 0x473
     914:	6f635f65 	svcvs	0x00635f65
     918:	6769666e 	strbvs	r6, [r9, -lr, ror #12]!
     91c:	6100745f 	tstvs	r0, pc, asr r4
     920:	2f686372 	svccs	0x00686372
     924:	2f6d7261 	svccs	0x006d7261
     928:	6863616d 	stmdavs	r3!, {r0, r2, r3, r5, r6, r8, sp, lr}^
     92c:	6e75732d 	cdpvs	3, 7, cr7, cr5, cr13, {1}
     930:	702f6978 	eorvc	r6, pc, r8, ror r9	; <UNPREDICTABLE>
     934:	74732f6d 	ldrbtvc	r2, [r3], #-3949	; 0xf6d
     938:	62646e61 	rsbvs	r6, r4, #1552	; 0x610
     93c:	6f632f79 	svcvs	0x00632f79
     940:	6e6f6d6d 	cdpvs	13, 6, cr6, cr15, cr13, {3}
     944:	7400632e 	strvc	r6, [r0], #-814	; 0x32e
     948:	645f706d 	ldrbvs	r7, [pc], #-109	; 950 <__standby_start+0x950>
     94c:	73007473 	movwvc	r7, #1139	; 0x473
     950:	646e6174 	strbtvs	r6, [lr], #-372	; 0x174
     954:	6d5f7962 	ldclvs	9, cr7, [pc, #-392]	; 7d4 <__standby_start+0x7d4>
     958:	70636d65 	rsbvc	r6, r3, r5, ror #26
     95c:	6d740079 	ldclvs	0, cr0, [r4, #-484]!	; 0xfffffe1c
     960:	72735f70 	rsbsvc	r5, r3, #448	; 0x1c0
     964:	5f5f0063 	svcpl	0x005f0063
     968:	554d4343 	strbpl	r4, [sp, #-835]	; 0x343
     96c:	4248415f 	submi	r4, r8, #-1073741801	; 0xc0000017
     970:	41525f31 	cmpmi	r2, r1, lsr pc
     974:	5f4f4954 	svcpl	0x004f4954
     978:	30474552 	subcc	r4, r7, r2, asr r5
     97c:	00343530 	eorseq	r3, r4, r0, lsr r5
     980:	65736572 	ldrbvs	r6, [r3, #-1394]!	; 0x572
     984:	64657672 	strbtvs	r7, [r5], #-1650	; 0x672
     988:	31383032 	teqcc	r8, r2, lsr r0
     98c:	73657200 	cmnvc	r5, #0
     990:	65767265 	ldrbvs	r7, [r6, #-613]!	; 0x265
     994:	38303264 	ldmdacc	r0!, {r2, r5, r6, r9, ip, sp}
     998:	65720032 	ldrbvs	r0, [r2, #-50]!	; 0x32
     99c:	76726573 			; <UNDEFINED> instruction: 0x76726573
     9a0:	33316465 	teqcc	r1, #1694498816	; 0x65000000
     9a4:	65720031 	ldrbvs	r0, [r2, #-49]!	; 0x31
     9a8:	76726573 			; <UNDEFINED> instruction: 0x76726573
     9ac:	33316465 	teqcc	r1, #1694498816	; 0x65000000
     9b0:	65720032 	ldrbvs	r0, [r2, #-50]!	; 0x32
     9b4:	76726573 			; <UNDEFINED> instruction: 0x76726573
     9b8:	33316465 	teqcc	r1, #1694498816	; 0x65000000
     9bc:	74730033 	ldrbtvc	r0, [r3], #-51	; 0x33
     9c0:	62646e61 	rsbvs	r6, r4, #1552	; 0x610
     9c4:	70635f79 	rsbvc	r5, r3, r9, ror pc
     9c8:	635f7375 	cmpvs	pc, #-738197503	; 0xd4000001
     9cc:	6c5f6b6c 	mrrcvs	11, 6, r6, pc, cr12	; <UNPREDICTABLE>
     9d0:	6e656f64 	cdpvs	15, 6, cr6, cr5, cr4, {3}
     9d4:	656c6261 	strbvs	r6, [ip, #-609]!	; 0x261
     9d8:	76776400 	ldrbtvc	r6, [r7], -r0, lsl #8
     9dc:	50006c61 	andpl	r6, r0, r1, ror #24
     9e0:	69566c6c 	ldmdbvs	r6, {r2, r3, r5, r6, sl, fp, sp, lr}^
     9e4:	306f6564 	rsbcc	r6, pc, r4, ror #10
     9e8:	73616942 	cmnvc	r1, #1081344	; 0x108000
     9ec:	72694300 	rsbvc	r4, r9, #0
     9f0:	4c007854 	stcmi	8, cr7, [r0], {84}	; 0x54
     9f4:	43306463 	teqmi	r0, #1660944384	; 0x63000000
     9f8:	4c003068 	stcmi	0, cr3, [r0], {104}	; 0x68
     9fc:	43306463 	teqmi	r0, #1660944384	; 0x63000000
     a00:	72003168 	andvc	r3, r0, #26
     a04:	72657365 	rsbvc	r7, r5, #-1811939327	; 0x94000001
     a08:	39646576 	stmdbcc	r4!, {r1, r2, r4, r5, r6, r8, sl, sp, lr}^
     a0c:	50003231 	andpl	r3, r0, r1, lsr r2
     a10:	43366c6c 	teqmi	r6, #27648	; 0x6c00
     a14:	72006c74 	andvc	r6, r0, #29696	; 0x7400
     a18:	72657365 	rsbvc	r7, r5, #-1811939327	; 0x94000001
     a1c:	31646576 	smccc	18006	; 0x4656
     a20:	72003234 	andvc	r3, r0, #1073741827	; 0x40000003
     a24:	72657365 	rsbvc	r7, r5, #-1811939327	; 0x94000001
     a28:	31646576 	smccc	18006	; 0x4656
     a2c:	49003334 	stmdbmi	r0, {r2, r4, r5, r8, r9, ip, sp}
     a30:	00307332 	eorseq	r7, r0, r2, lsr r3
     a34:	31733249 	cmncc	r3, r9, asr #4
     a38:	73324900 	teqvc	r2, #0
     a3c:	6c500032 	mrrcvs	0, 3, r0, r0, cr2	; <UNPREDICTABLE>
     a40:	4330316c 	teqmi	r0, #27
     a44:	50006c74 	andpl	r6, r0, r4, ror ip
     a48:	43346c6c 	teqmi	r4, #27648	; 0x6c00
     a4c:	73006c74 	movwvc	r6, #3188	; 0xc74
     a50:	646e6174 	strbtvs	r6, [lr], #-372	; 0x174
     a54:	635f7962 	cmpvs	pc, #1605632	; 0x188000
     a58:	635f6b6c 	cmpvs	pc, #110592	; 0x1b000
     a5c:	3265726f 	rsbcc	r7, r5, #-268435450	; 0xf0000006
     a60:	63736f68 	cmnvs	r3, #416	; 0x1a0
     a64:	635f5f00 	cmpvs	pc, #0
     a68:	5f756d63 	svcpl	0x00756d63
     a6c:	63737973 	cmnvs	r3, #1884160	; 0x1cc000
     a70:	725f6b6c 	subsvc	r6, pc, #110592	; 0x1b000
     a74:	6f697461 	svcvs	0x00697461
     a78:	6765725f 			; <UNDEFINED> instruction: 0x6765725f
     a7c:	30353030 	eorscc	r3, r5, r0, lsr r0
     a80:	5000745f 	andpl	r7, r0, pc, asr r4
     a84:	75416c6c 	strbvc	r6, [r1, #-3180]	; 0xc6c
     a88:	426f6964 	rsbmi	r6, pc, #1638400	; 0x190000
     a8c:	00736169 	rsbseq	r6, r3, r9, ror #2
     a90:	52756d43 	rsbspl	r6, r5, #4288	; 0x10c0
     a94:	505f6765 	subspl	r6, pc, r5, ror #14
     a98:	43316c6c 	teqmi	r1, #27648	; 0x6c00
     a9c:	745f6c74 	ldrbvc	r6, [pc], #-3188	; aa4 <__standby_start+0xaa4>
     aa0:	7200706d 	andvc	r7, r0, #109	; 0x6d
     aa4:	72657365 	rsbvc	r7, r5, #-1811939327	; 0x94000001
     aa8:	31646576 	smccc	18006	; 0x4656
     aac:	72003335 	andvc	r3, r0, #-738197504	; 0xd4000000
     ab0:	72657365 	rsbvc	r7, r5, #-1811939327	; 0x94000001
     ab4:	31646576 	smccc	18006	; 0x4656
     ab8:	72003435 	andvc	r3, r0, #889192448	; 0x35000000
     abc:	72657365 	rsbvc	r7, r5, #-1811939327	; 0x94000001
     ac0:	31646576 	smccc	18006	; 0x4656
     ac4:	00313133 	eorseq	r3, r1, r3, lsr r1
     ac8:	486c6c50 	stmdami	ip!, {r4, r6, sl, fp, sp, lr}^
     acc:	42636973 	rsbmi	r6, r3, #1884160	; 0x1cc000
     ad0:	00736169 	rsbseq	r6, r3, r9, ror #2
     ad4:	436d6454 	cmnmi	sp, #1409286144	; 0x54000000
     ad8:	50006b6c 	andpl	r6, r0, ip, ror #22
     adc:	54316c6c 	ldrtpl	r6, [r1], #-3180	; 0xc6c
     ae0:	4d006e75 	stcmi	14, cr6, [r0, #-468]	; 0xfffffe2c
     ae4:	30737542 	rsbscc	r7, r3, r2, asr #10
     ae8:	73657200 	cmnvc	r5, #0
     aec:	65767265 	ldrbvs	r7, [r6, #-613]!	; 0x265
     af0:	34303264 	ldrtcc	r3, [r0], #-612	; 0x264
     af4:	61460033 	cmpvs	r6, r3, lsr r0
     af8:	726f7463 	rsbvc	r7, pc, #1660944384	; 0x63000000
     afc:	6146004d 	cmpvs	r6, sp, asr #32
     b00:	726f7463 	rsbvc	r7, pc, #1660944384	; 0x63000000
     b04:	7041004e 	subvc	r0, r1, lr, asr #32
     b08:	69443262 	stmdbvs	r4, {r1, r5, r6, r9, ip, sp}^
     b0c:	61460076 	hvcvs	24582	; 0x6006
     b10:	726f7463 	rsbvc	r7, pc, #1660944384	; 0x63000000
     b14:	65720050 	ldrbvs	r0, [r2, #-80]!	; 0x50
     b18:	76726573 			; <UNDEFINED> instruction: 0x76726573
     b1c:	30326465 	eorscc	r6, r2, r5, ror #8
     b20:	65720032 	ldrbvs	r0, [r2, #-50]!	; 0x32
     b24:	76726573 			; <UNDEFINED> instruction: 0x76726573
     b28:	30326465 	eorscc	r6, r2, r5, ror #8
     b2c:	65720033 	ldrbvs	r0, [r2, #-51]!	; 0x33
     b30:	76726573 			; <UNDEFINED> instruction: 0x76726573
     b34:	30326465 	eorscc	r6, r2, r5, ror #8
     b38:	65720034 	ldrbvs	r0, [r2, #-52]!	; 0x34
     b3c:	76726573 			; <UNDEFINED> instruction: 0x76726573
     b40:	30326465 	eorscc	r6, r2, r5, ror #8
     b44:	65720035 	ldrbvs	r0, [r2, #-53]!	; 0x35
     b48:	76726573 			; <UNDEFINED> instruction: 0x76726573
     b4c:	30326465 	eorscc	r6, r2, r5, ror #8
     b50:	6c500038 	mrrcvs	0, 3, r0, r0, cr8	; <UNPREDICTABLE>
     b54:	7570476c 	ldrbvc	r4, [r0, #-1900]!	; 0x76c
     b58:	73616942 	cmnvc	r1, #1081344	; 0x108000
     b5c:	43314300 	teqmi	r1, #0
     b60:	72536b6c 	subsvc	r6, r3, #110592	; 0x1b000
     b64:	70470063 	subvc	r0, r7, r3, rrx
     b68:	6d654d75 	stclvs	13, cr4, [r5, #-468]!	; 0xfffffe2c
     b6c:	61747300 	cmnvs	r4, r0, lsl #6
     b70:	7962646e 	stmdbvc	r2!, {r1, r2, r3, r5, r6, sl, sp, lr}^
     b74:	6b6c635f 	blvs	1b198f8 <__standby_start+0x1b198f8>
     b78:	6978655f 	ldmdbvs	r8!, {r0, r1, r2, r3, r4, r6, r8, sl, sp, lr}^
     b7c:	69440074 	stmdbvs	r4, {r2, r4, r5, r6}^
     b80:	44004d76 	strmi	r4, [r0], #-3446	; 0xd76
     b84:	004e7669 	subeq	r7, lr, r9, ror #12
     b88:	32627041 	rsbcc	r7, r2, #65	; 0x41
     b8c:	65736552 	ldrbvs	r6, [r3, #-1362]!	; 0x552
     b90:	65720074 	ldrbvs	r0, [r2, #-116]!	; 0x74
     b94:	76726573 			; <UNDEFINED> instruction: 0x76726573
     b98:	37316465 	ldrcc	r6, [r1, -r5, ror #8]!
     b9c:	65720031 	ldrbvs	r0, [r2, #-49]!	; 0x31
     ba0:	76726573 			; <UNDEFINED> instruction: 0x76726573
     ba4:	37316465 	ldrcc	r6, [r1, -r5, ror #8]!
     ba8:	65720032 	ldrbvs	r0, [r2, #-50]!	; 0x32
     bac:	76726573 			; <UNDEFINED> instruction: 0x76726573
     bb0:	37316465 	ldrcc	r6, [r1, -r5, ror #8]!
     bb4:	6c500033 	mrrcvs	0, 3, r0, r0, cr3	; <UNPREDICTABLE>
     bb8:	636f4c6c 	cmnvs	pc, #27648	; 0x6c00
     bbc:	7047006b 	subvc	r0, r7, fp, rrx
     bc0:	726f4375 	rsbvc	r4, pc, #-738197503	; 0xd4000001
     bc4:	70430065 	subvc	r0, r3, r5, rrx
     bc8:	6b6c4375 	blvs	1b119a4 <__standby_start+0x1b119a4>
     bcc:	00637253 	rsbeq	r7, r3, r3, asr r2
     bd0:	446c6c50 	strbtmi	r6, [ip], #-3152	; 0xc50
     bd4:	69427264 	stmdbvs	r2, {r2, r5, r6, r9, ip, sp, lr}^
     bd8:	52007361 	andpl	r7, r0, #-2080374783	; 0x84000001
     bdc:	72657365 	rsbvc	r7, r5, #-1811939327	; 0x94000001
     be0:	32646576 	rsbcc	r6, r4, #494927872	; 0x1d800000
     be4:	00313230 	eorseq	r3, r1, r0, lsr r2
     be8:	65736572 	ldrbvs	r6, [r3, #-1394]!	; 0x572
     bec:	64657672 	strbtvs	r7, [r5], #-1650	; 0x672
     bf0:	00313831 	eorseq	r3, r1, r1, lsr r8
     bf4:	65736572 	ldrbvs	r6, [r3, #-1394]!	; 0x572
     bf8:	64657672 	strbtvs	r7, [r5], #-1650	; 0x672
     bfc:	00323831 	eorseq	r3, r2, r1, lsr r8
     c00:	47626841 	strbmi	r6, [r2, -r1, asr #16]!
     c04:	30657461 	rsbcc	r7, r5, r1, ror #8
     c08:	62684100 	rsbvs	r4, r8, #0
     c0c:	65746147 	ldrbvs	r6, [r4, #-327]!	; 0x147
     c10:	6f4c0031 	svcvs	0x004c0031
     c14:	69746b63 	ldmdbvs	r4!, {r0, r1, r5, r6, r8, r9, fp, sp, lr}^
     c18:	5000656d 	andpl	r6, r0, sp, ror #10
     c1c:	43316c6c 	teqmi	r1, #27648	; 0x6c00
     c20:	72006c74 	andvc	r6, r0, #29696	; 0x7400
     c24:	72657365 	rsbvc	r7, r5, #-1811939327	; 0x94000001
     c28:	31646576 	smccc	18006	; 0x4656
     c2c:	73003232 	movwvc	r3, #562	; 0x232
     c30:	646e6174 	strbtvs	r6, [lr], #-372	; 0x174
     c34:	635f7962 	cmpvs	pc, #1605632	; 0x188000
     c38:	695f6b6c 	ldmdbvs	pc, {r2, r3, r5, r6, r8, r9, fp, sp, lr}^	; <UNPREDICTABLE>
     c3c:	0074696e 	rsbseq	r6, r4, lr, ror #18
     c40:	436c6c50 	cmnmi	ip, #20480	; 0x5000
     c44:	6c744331 	ldclvs	3, cr4, [r4], #-196	; 0xffffff3c
     c48:	73657200 	cmnvc	r5, #0
     c4c:	65767265 	ldrbvs	r7, [r6, #-613]!	; 0x265
     c50:	31393164 	teqcc	r9, r4, ror #2
     c54:	6c6c5000 	stclvs	0, cr5, [ip], #-0
     c58:	6c744338 	ldclvs	3, cr4, [r4], #-224	; 0xffffff20
     c5c:	435f5f00 	cmpmi	pc, #0
     c60:	5f554d43 	svcpl	0x00554d43
     c64:	4c4c4c50 	mcrrmi	12, 5, r4, ip, cr0
     c68:	5f4b434f 	svcpl	0x004b434f
     c6c:	30474552 	subcc	r4, r7, r2, asr r5
     c70:	00303032 	eorseq	r3, r0, r2, lsr r0
     c74:	65736572 	ldrbvs	r6, [r3, #-1394]!	; 0x572
     c78:	64657672 	strbtvs	r7, [r5], #-1650	; 0x672
     c7c:	72003231 	andvc	r3, r0, #268435459	; 0x10000003
     c80:	72657365 	rsbvc	r7, r5, #-1811939327	; 0x94000001
     c84:	31646576 	smccc	18006	; 0x4656
     c88:	65720034 	ldrbvs	r0, [r2, #-52]!	; 0x34
     c8c:	76726573 			; <UNDEFINED> instruction: 0x76726573
     c90:	35316465 	ldrcc	r6, [r1, #-1125]!	; 0x465
     c94:	73657200 	cmnvc	r5, #0
     c98:	65767265 	ldrbvs	r7, [r6, #-613]!	; 0x265
     c9c:	00363164 	eorseq	r3, r6, r4, ror #2
     ca0:	65736572 	ldrbvs	r6, [r3, #-1394]!	; 0x572
     ca4:	64657672 	strbtvs	r7, [r5], #-1650	; 0x672
     ca8:	72003731 	andvc	r3, r0, #12845056	; 0xc40000
     cac:	72657365 	rsbvc	r7, r5, #-1811939327	; 0x94000001
     cb0:	31646576 	smccc	18006	; 0x4656
     cb4:	68410038 	stmdavs	r1, {r3, r4, r5}^
     cb8:	72503162 	subsvc	r3, r0, #-2147483624	; 0x80000018
     cbc:	76694465 	strbtvc	r4, [r9], -r5, ror #8
     cc0:	63726100 	cmnvs	r2, #0
     cc4:	72612f68 	rsbvc	r2, r1, #416	; 0x1a0
     cc8:	616d2f6d 	cmnvs	sp, sp, ror #30
     ccc:	732d6863 	teqvc	sp, #6488064	; 0x630000
     cd0:	69786e75 	ldmdbvs	r8!, {r0, r2, r4, r5, r6, r9, sl, fp, sp, lr}^
     cd4:	2f6d702f 	svccs	0x006d702f
     cd8:	6e617473 	mcrvs	4, 3, r7, cr1, cr3, {3}
     cdc:	2f796264 	svccs	0x00796264
     ce0:	6e617473 	mcrvs	4, 3, r7, cr1, cr3, {3}
     ce4:	5f796264 	svcpl	0x00796264
     ce8:	636f6c63 	cmnvs	pc, #25344	; 0x6300
     cec:	00632e6b 	rsbeq	r2, r3, fp, ror #28
     cf0:	31495841 	cmpcc	r9, r1, asr #16
     cf4:	446b6c43 	strbtmi	r6, [fp], #-3139	; 0xc43
     cf8:	50007669 	andpl	r7, r0, r9, ror #12
     cfc:	42786c6c 	rsbsmi	r6, r8, #27648	; 0x6c00
     d00:	00736169 	rsbseq	r6, r3, r9, ror #2
     d04:	65736572 	ldrbvs	r6, [r3, #-1394]!	; 0x572
     d08:	64657672 	strbtvs	r7, [r5], #-1650	; 0x672
     d0c:	72003132 	andvc	r3, r0, #-2147483636	; 0x8000000c
     d10:	72657365 	rsbvc	r7, r5, #-1811939327	; 0x94000001
     d14:	32646576 	rsbcc	r6, r4, #494927872	; 0x1d800000
     d18:	6c500032 	mrrcvs	0, 3, r0, r0, cr2	; <UNPREDICTABLE>
     d1c:	4265566c 	rsbmi	r5, r5, #113246208	; 0x6c00000
     d20:	00736169 	rsbseq	r6, r3, r9, ror #2
     d24:	65736572 	ldrbvs	r6, [r3, #-1394]!	; 0x572
     d28:	64657672 	strbtvs	r7, [r5], #-1650	; 0x672
     d2c:	48003131 	stmdami	r0, {r0, r4, r5, r8, ip, sp}
     d30:	43696d64 	cmnmi	r9, #6400	; 0x1900
     d34:	73006b6c 	movwvc	r6, #2924	; 0xb6c
     d38:	646e6174 	strbtvs	r6, [lr], #-372	; 0x174
     d3c:	635f7962 	cmpvs	pc, #1605632	; 0x188000
     d40:	6c5f6b6c 	mrrcvs	11, 6, r6, pc, cr12	; <UNPREDICTABLE>
     d44:	6e656f64 	cdpvs	15, 6, cr6, cr5, cr4, {3}
     d48:	656c6261 	strbvs	r6, [ip, #-609]!	; 0x261
     d4c:	62684100 	rsbvs	r4, r8, #0
     d50:	76694431 			; <UNDEFINED> instruction: 0x76694431
     d54:	73657200 	cmnvc	r5, #0
     d58:	65767265 	ldrbvs	r7, [r6, #-613]!	; 0x265
     d5c:	00393164 	eorseq	r3, r9, r4, ror #2
     d60:	566c6c50 			; <UNDEFINED> instruction: 0x566c6c50
     d64:	6f656469 	svcvs	0x00656469
     d68:	67655230 			; <UNDEFINED> instruction: 0x67655230
     d6c:	74615030 	strbtvc	r5, [r1], #-48	; 0x30
     d70:	6e726574 	mrcvs	5, 3, r6, cr2, cr4, {3}
     d74:	6c6c5000 	stclvs	0, cr5, [ip], #-0
     d78:	6c744333 	ldclvs	3, cr4, [r4], #-204	; 0xffffff34
     d7c:	73795300 	cmnvc	r9, #0
     d80:	446b6c43 	strbtmi	r6, [fp], #-3139	; 0xc43
     d84:	5f007669 	svcpl	0x00007669
     d88:	6d63635f 	stclvs	3, cr6, [r3, #-380]!	; 0xfffffe84
     d8c:	70615f75 	rsbvc	r5, r1, r5, ror pc
     d90:	725f3262 	subsvc	r3, pc, #536870918	; 0x20000006
     d94:	6f697461 	svcvs	0x00697461
     d98:	6765725f 			; <UNDEFINED> instruction: 0x6765725f
     d9c:	38353030 	ldmdacc	r5!, {r4, r5, ip, sp}
     da0:	4700745f 	smlsdmi	r0, pc, r4, r7	; <UNPREDICTABLE>
     da4:	79487570 	stmdbvc	r8, {r4, r5, r6, r8, sl, ip, sp, lr}^
     da8:	68410064 	stmdavs	r1, {r2, r5, r6}^
     dac:	73655262 	cmnvc	r5, #536870918	; 0x20000006
     db0:	00307465 	eorseq	r7, r0, r5, ror #8
     db4:	52626841 	rsbpl	r6, r2, #4259840	; 0x410000
     db8:	74657365 	strbtvc	r7, [r5], #-869	; 0x365
     dbc:	68410031 	stmdavs	r1, {r0, r4, r5}^
     dc0:	73655262 	cmnvc	r5, #536870918	; 0x20000006
     dc4:	00327465 	eorseq	r7, r2, r5, ror #8
     dc8:	65736572 	ldrbvs	r6, [r3, #-1394]!	; 0x572
     dcc:	64657672 	strbtvs	r7, [r5], #-1650	; 0x672
     dd0:	31363032 	teqcc	r6, r2, lsr r0
     dd4:	70530036 	subsvc	r0, r3, r6, lsr r0
     dd8:	43666964 	cmnmi	r6, #1638400	; 0x190000
     ddc:	41006b6c 	tstmi	r0, ip, ror #22
     de0:	47326270 			; <UNDEFINED> instruction: 0x47326270
     de4:	00657461 	rsbeq	r7, r5, r1, ror #8
     de8:	416c6c50 	cmnmi	ip, r0, asr ip
     dec:	6f696475 	svcvs	0x00696475
     df0:	31676552 	cmncc	r7, r2, asr r5
     df4:	74746150 	ldrbtvc	r6, [r4], #-336	; 0x150
     df8:	006e7265 	rsbeq	r7, lr, r5, ror #4
     dfc:	316c6c50 	cmncc	ip, r0, asr ip
     e00:	6b636f4c 	blvs	18dcb38 <__standby_start+0x18dcb38>
     e04:	73657200 	cmnvc	r5, #0
     e08:	65767265 	ldrbvs	r7, [r6, #-613]!	; 0x265
     e0c:	37303264 	ldrcc	r3, [r0, -r4, ror #4]!
     e10:	65720031 	ldrbvs	r0, [r2, #-49]!	; 0x31
     e14:	76726573 			; <UNDEFINED> instruction: 0x76726573
     e18:	34316465 	ldrtcc	r6, [r1], #-1125	; 0x465
     e1c:	44003132 	strmi	r3, [r0], #-306	; 0x132
     e20:	476d6172 			; <UNDEFINED> instruction: 0x476d6172
     e24:	00657461 	rsbeq	r7, r5, r1, ror #8
     e28:	31626841 	cmncc	r2, r1, asr #16
     e2c:	536b6c43 	cmnpl	fp, #17152	; 0x4300
     e30:	50006372 	andpl	r6, r0, r2, ror r3
     e34:	31436c6c 	cmpcc	r3, ip, ror #24
     e38:	006e7554 	rsbeq	r7, lr, r4, asr r5
     e3c:	446c6c50 	strbtmi	r6, [ip], #-3152	; 0xc50
     e40:	61694265 	cmnvs	r9, r5, ror #4
     e44:	70410073 	subvc	r0, r1, r3, ror r0
     e48:	69443162 	stmdbvs	r4, {r1, r5, r6, r8, ip, sp}^
     e4c:	5f5f0076 	svcpl	0x005f0076
     e50:	00323373 	eorseq	r3, r2, r3, ror r3
     e54:	7375624d 	cmnvc	r5, #-805306364	; 0xd0000004
     e58:	65736552 	ldrbvs	r6, [r3, #-1362]!	; 0x552
     e5c:	67655274 			; <UNDEFINED> instruction: 0x67655274
     e60:	6c6c5000 	stclvs	0, cr5, [ip], #-0
     e64:	69647541 	stmdbvs	r4!, {r0, r6, r8, sl, ip, sp, lr}^
     e68:	6765526f 	strbvs	r5, [r5, -pc, ror #4]!
     e6c:	74615030 	strbtvc	r5, [r1], #-48	; 0x30
     e70:	6e726574 	mrcvs	5, 3, r6, cr2, cr4, {3}
     e74:	6c6c5000 	stclvs	0, cr5, [ip], #-0
     e78:	65646956 	strbvs	r6, [r4, #-2390]!	; 0x956
     e7c:	6942316f 	stmdbvs	r2, {r0, r1, r2, r3, r5, r6, r8, ip, sp}^
     e80:	72007361 	andvc	r7, r0, #-2080374783	; 0x84000001
     e84:	72657365 	rsbvc	r7, r5, #-1811939327	; 0x94000001
     e88:	35646576 	strbcc	r6, [r4, #-1398]!	; 0x576
     e8c:	65720031 	ldrbvs	r0, [r2, #-49]!	; 0x31
     e90:	76726573 			; <UNDEFINED> instruction: 0x76726573
     e94:	30326465 	eorscc	r6, r2, r5, ror #8
     e98:	50003233 	andpl	r3, r0, r3, lsr r2
     e9c:	43356c6c 	teqmi	r5, #27648	; 0x6c00
     ea0:	50006c74 	andpl	r6, r0, r4, ror ip
     ea4:	6e454c4c 	cdpvs	12, 4, cr4, cr5, cr12, {2}
     ea8:	635f5f00 	cmpvs	pc, #0
     eac:	5f756d63 	svcpl	0x00756d63
     eb0:	316c6c70 	smccc	50880	; 0xc6c0
     eb4:	6765725f 			; <UNDEFINED> instruction: 0x6765725f
     eb8:	30303030 	eorscc	r3, r0, r0, lsr r0
     ebc:	4100745f 	tstmi	r0, pc, asr r4
     ec0:	43326268 	teqmi	r2, #-2147483642	; 0x80000006
     ec4:	4d006766 	stcmi	7, cr6, [r0, #-408]	; 0xfffffe68
     ec8:	43697069 	cmnmi	r9, #105	; 0x69
     ecc:	41006973 	tstmi	r0, r3, ror r9
     ed0:	52316270 	eorspl	r6, r1, #7
     ed4:	74657365 	strbtvc	r7, [r5], #-869	; 0x365
     ed8:	73657200 	cmnvc	r5, #0
     edc:	65767265 	ldrbvs	r7, [r6, #-613]!	; 0x265
     ee0:	72003064 	andvc	r3, r0, #100	; 0x64
     ee4:	72657365 	rsbvc	r7, r5, #-1811939327	; 0x94000001
     ee8:	31646576 	smccc	18006	; 0x4656
     eec:	73657200 	cmnvc	r5, #0
     ef0:	65767265 	ldrbvs	r7, [r6, #-613]!	; 0x265
     ef4:	72003264 	andvc	r3, r0, #1073741830	; 0x40000006
     ef8:	72657365 	rsbvc	r7, r5, #-1811939327	; 0x94000001
     efc:	33646576 	cmncc	r4, #494927872	; 0x1d800000
     f00:	73657200 	cmnvc	r5, #0
     f04:	65767265 	ldrbvs	r7, [r6, #-613]!	; 0x265
     f08:	72003464 	andvc	r3, r0, #1677721600	; 0x64000000
     f0c:	72657365 	rsbvc	r7, r5, #-1811939327	; 0x94000001
     f10:	35646576 	strbcc	r6, [r4, #-1398]!	; 0x576
     f14:	73657200 	cmnvc	r5, #0
     f18:	65767265 	ldrbvs	r7, [r6, #-613]!	; 0x265
     f1c:	72003664 	andvc	r3, r0, #104857600	; 0x6400000
     f20:	72657365 	rsbvc	r7, r5, #-1811939327	; 0x94000001
     f24:	37646576 			; <UNDEFINED> instruction: 0x37646576
     f28:	73657200 	cmnvc	r5, #0
     f2c:	65767265 	ldrbvs	r7, [r6, #-613]!	; 0x265
     f30:	4d003964 	stcmi	9, cr3, [r0, #-400]	; 0xfffffe70
     f34:	44697069 	strbtmi	r7, [r9], #-105	; 0x69
     f38:	65526973 	ldrbvs	r6, [r2, #-2419]	; 0x973
     f3c:	4d003067 	stcmi	0, cr3, [r0, #-412]	; 0xfffffe64
     f40:	44697069 	strbtmi	r7, [r9], #-105	; 0x69
     f44:	65526973 	ldrbvs	r6, [r2, #-2419]	; 0x973
     f48:	43003167 	movwmi	r3, #359	; 0x167
     f4c:	00306973 	eorseq	r6, r0, r3, ror r9
     f50:	72705f72 	rsbsvc	r5, r0, #456	; 0x1c8
     f54:	53006d63 	movwpl	r6, #3427	; 0xd63
     f58:	00306970 	eorseq	r6, r0, r0, ror r9
     f5c:	31697053 	qdsubcc	r7, r3, r9
     f60:	73657200 	cmnvc	r5, #0
     f64:	65767265 	ldrbvs	r7, [r6, #-613]!	; 0x265
     f68:	00313764 	eorseq	r3, r1, r4, ror #14
     f6c:	52756d43 	rsbspl	r6, r5, #4288	; 0x10c0
     f70:	5f006765 	svcpl	0x00006765
     f74:	6d63635f 	stclvs	3, cr6, [r3, #-380]!	; 0xfffffe84
     f78:	6c705f75 	ldclvs	15, cr5, [r0], #-468	; 0xfffffe2c
     f7c:	636f6c6c 	cmnvs	pc, #27648	; 0x6c00
     f80:	65725f6b 	ldrbvs	r5, [r2, #-3947]!	; 0xf6b
     f84:	30323067 	eorscc	r3, r2, r7, rrx
     f88:	00745f30 	rsbseq	r5, r4, r0, lsr pc
     f8c:	506c6c50 	rsbpl	r6, ip, r0, asr ip
     f90:	70697265 	rsbvc	r7, r9, r5, ror #4
     f94:	61694268 	cmnvs	r9, r8, ror #4
     f98:	64480073 	strbvs	r0, [r8], #-115	; 0x73
     f9c:	6c53696d 	mrrcvs	9, 6, r6, r3, cr13
     fa0:	6c43776f 	mcrrvs	7, 6, r7, r3, cr15
     fa4:	6c50006b 	mrrcvs	0, 6, r0, r0, cr11	; <UNPREDICTABLE>
     fa8:	7264446c 	rsbvc	r4, r4, #1811939328	; 0x6c000000
     fac:	74746150 	ldrbtvc	r6, [r4], #-336	; 0x150
     fb0:	006e7265 	rsbeq	r7, lr, r5, ror #4
     fb4:	52756d43 	rsbspl	r6, r5, #4288	; 0x10c0
     fb8:	535f6765 	cmppl	pc, #26476544	; 0x1940000
     fbc:	6c437379 	mcrrvs	3, 7, r7, r3, cr9
     fc0:	7669446b 	strbtvc	r4, [r9], -fp, ror #8
     fc4:	706d745f 	rsbvc	r7, sp, pc, asr r4
     fc8:	635f5f00 	cmpvs	pc, #0
     fcc:	5f756d63 	svcpl	0x00756d63
     fd0:	5f676572 	svcpl	0x00676572
     fd4:	7473696c 	ldrbtvc	r6, [r3], #-2412	; 0x96c
     fd8:	5000745f 	andpl	r7, r0, pc, asr r4
     fdc:	65566c6c 	ldrbvs	r6, [r6, #-3180]	; 0xc6c
     fe0:	6c744331 	ldclvs	3, cr4, [r4], #-196	; 0xffffff3c
     fe4:	6c6c5000 	stclvs	0, cr5, [ip], #-0
     fe8:	52726444 	rsbspl	r6, r2, #1140850688	; 0x44000000
     fec:	50316765 	eorspl	r6, r1, r5, ror #14
     ff0:	65747461 	ldrbvs	r7, [r4, #-1121]!	; 0x461
     ff4:	44006e72 	strmi	r6, [r0], #-3698	; 0xe72
     ff8:	436d6172 	cmnmi	sp, #-2147483620	; 0x8000001c
     ffc:	5f006766 	svcpl	0x00006766
    1000:	6d63635f 	stclvs	3, cr6, [r3, #-380]!	; 0xfffffe84
    1004:	68615f75 	stmdavs	r1!, {r0, r2, r4, r5, r6, r8, r9, sl, fp, ip, lr}^
    1008:	725f3162 	subsvc	r3, pc, #-2147483624	; 0x80000018
    100c:	6f697461 	svcvs	0x00697461
    1010:	6765725f 			; <UNDEFINED> instruction: 0x6765725f
    1014:	34353030 	ldrtcc	r3, [r5], #-48	; 0x30
    1018:	7200745f 	andvc	r7, r0, #1593835520	; 0x5f000000
    101c:	72657365 	rsbvc	r7, r5, #-1811939327	; 0x94000001
    1020:	31646576 	smccc	18006	; 0x4656
    1024:	50003131 	andpl	r3, r0, r1, lsr r1
    1028:	74536c6c 	ldrbvc	r6, [r3], #-3180	; 0xc6c
    102c:	656c6261 	strbvs	r6, [ip, #-609]!	; 0x261
    1030:	74617453 	strbtvc	r7, [r1], #-1107	; 0x453
    1034:	50007375 	andpl	r7, r0, r5, ror r3
    1038:	69566c6c 	ldmdbvs	r6, {r2, r3, r5, r6, sl, fp, sp, lr}^
    103c:	306f6564 	rsbcc	r6, pc, r4, ror #10
    1040:	31676552 	cmncc	r7, r2, asr r5
    1044:	74746150 	ldrbtvc	r6, [r4], #-336	; 0x150
    1048:	006e7265 	rsbeq	r7, lr, r5, ror #4
    104c:	6b636f4c 	blvs	18dcd84 <__standby_start+0x18dcd84>
    1050:	656d6954 	strbvs	r6, [sp, #-2388]!	; 0x954
    1054:	6c6c5000 	stclvs	0, cr5, [ip], #-0
    1058:	43726444 	cmnmi	r2, #1140850688	; 0x44000000
    105c:	72006766 	andvc	r6, r0, #26738688	; 0x1980000
    1060:	72657365 	rsbvc	r7, r5, #-1811939327	; 0x94000001
    1064:	32646576 	rsbcc	r6, r4, #494927872	; 0x1d800000
    1068:	72003130 	andvc	r3, r0, #12
    106c:	72657365 	rsbvc	r7, r5, #-1811939327	; 0x94000001
    1070:	00646576 	rsbeq	r6, r4, r6, ror r5
    1074:	43495841 	movtmi	r5, #38977	; 0x9841
    1078:	69446b6c 	stmdbvs	r4, {r2, r3, r5, r6, r8, r9, fp, sp, lr}^
    107c:	70410076 	subvc	r0, r1, r6, ror r0
    1080:	61473162 	cmpvs	r7, r2, ror #2
    1084:	72006574 	andvc	r6, r0, #486539264	; 0x1d000000
    1088:	72657365 	rsbvc	r7, r5, #-1811939327	; 0x94000001
    108c:	39646576 	stmdbcc	r4!, {r1, r2, r4, r5, r6, r8, sl, sp, lr}^
    1090:	65720031 	ldrbvs	r0, [r2, #-49]!	; 0x31
    1094:	76726573 			; <UNDEFINED> instruction: 0x76726573
    1098:	32396465 	eorscc	r6, r9, #1694498816	; 0x65000000
    109c:	73657200 	cmnvc	r5, #0
    10a0:	65767265 	ldrbvs	r7, [r6, #-613]!	; 0x265
    10a4:	00333964 	eorseq	r3, r3, r4, ror #18
    10a8:	65736572 	ldrbvs	r6, [r3, #-1394]!	; 0x572
    10ac:	64657672 	strbtvs	r7, [r5], #-1650	; 0x672
    10b0:	31343731 	teqcc	r4, r1, lsr r7
    10b4:	73657200 	cmnvc	r5, #0
    10b8:	65767265 	ldrbvs	r7, [r6, #-613]!	; 0x265
    10bc:	31323164 	teqcc	r2, r4, ror #2
    10c0:	6c6c5000 	stclvs	0, cr5, [ip], #-0
    10c4:	6c744332 	ldclvs	3, cr4, [r4], #-200	; 0xffffff38
    10c8:	435f5f00 	cmpmi	pc, #0
    10cc:	5f554d43 	svcpl	0x00554d43
    10d0:	5f474552 	svcpl	0x00474552
    10d4:	5453494c 	ldrbpl	r4, [r3], #-2380	; 0x94c
    10d8:	6c6c5000 	stclvs	0, cr5, [ip], #-0
    10dc:	70433143 	subvc	r3, r3, r3, asr #2
    10e0:	69427875 	stmdbvs	r2, {r0, r2, r4, r5, r6, fp, ip, sp, lr}^
    10e4:	4e007361 	cdpmi	3, 0, cr7, cr0, cr1, {3}
    10e8:	30646e61 	rsbcc	r6, r4, r1, ror #28
    10ec:	69634300 	stmdbvs	r3!, {r8, r9, lr}^
    10f0:	43303034 	teqmi	r0, #52	; 0x34
    10f4:	50006b6c 	andpl	r6, r0, ip, ror #22
    10f8:	43396c6c 	teqmi	r9, #27648	; 0x6c00
    10fc:	73006c74 	movwvc	r6, #3188	; 0xc74
    1100:	646e6174 	strbtvs	r6, [lr], #-372	; 0x174
    1104:	695f7962 	ldmdbvs	pc, {r1, r5, r6, r8, fp, ip, sp, lr}^	; <UNPREDICTABLE>
    1108:	78655f72 	stmdavc	r5!, {r1, r4, r5, r6, r8, r9, sl, fp, ip, lr}^
    110c:	73007469 	movwvc	r7, #1129	; 0x469
    1110:	646e6174 	strbtvs	r6, [lr], #-372	; 0x174
    1114:	695f7962 	ldmdbvs	pc, {r1, r5, r6, r8, fp, ip, sp, lr}^	; <UNPREDICTABLE>
    1118:	65765f72 	ldrbvs	r5, [r6, #-3954]!	; 0xf72
    111c:	79666972 	stmdbvc	r6!, {r1, r4, r5, r6, r8, fp, sp, lr}^
    1120:	63726100 	cmnvs	r2, #0
    1124:	72612f68 	rsbvc	r2, r1, #416	; 0x1a0
    1128:	616d2f6d 	cmnvs	sp, sp, ror #30
    112c:	732d6863 	teqvc	sp, #6488064	; 0x630000
    1130:	69786e75 	ldmdbvs	r8!, {r0, r2, r4, r5, r6, r9, sl, fp, sp, lr}^
    1134:	2f6d702f 	svccs	0x006d702f
    1138:	6e617473 	mcrvs	4, 3, r7, cr1, cr3, {3}
    113c:	2f796264 	svccs	0x00796264
    1140:	6e617473 	mcrvs	4, 3, r7, cr1, cr3, {3}
    1144:	5f796264 	svcpl	0x00796264
    1148:	632e7269 	teqvs	lr, #-1879048186	; 0x90000006
    114c:	61747300 	cmnvs	r4, r0, lsl #6
    1150:	7962646e 	stmdbvc	r2!, {r1, r2, r3, r5, r6, sl, sp, lr}^
    1154:	5f72695f 	svcpl	0x0072695f
    1158:	74696e69 	strbtvc	r6, [r9], #-3689	; 0xe69
    115c:	61747300 	cmnvs	r4, r0, lsl #6
    1160:	7962646e 	stmdbvc	r2!, {r1, r2, r3, r5, r6, sl, sp, lr}^
    1164:	5f72695f 	svcpl	0x0072695f
    1168:	65746564 	ldrbvs	r6, [r4, #-1380]!	; 0x564
    116c:	4b007463 	blmi	1e300 <__standby_start+0x1e300>
    1170:	6e497965 	cdpvs	9, 4, cr7, cr9, cr5, {3}
    1174:	61007374 	tstvs	r0, r4, ror r3
    1178:	2f686372 	svccs	0x00686372
    117c:	2f6d7261 	svccs	0x006d7261
    1180:	6863616d 	stmdavs	r3!, {r0, r2, r3, r5, r6, r8, sp, lr}^
    1184:	6e75732d 	cdpvs	3, 7, cr7, cr5, cr13, {1}
    1188:	702f6978 	eorvc	r6, pc, r8, ror r9	; <UNPREDICTABLE>
    118c:	74732f6d 	ldrbtvc	r2, [r3], #-3949	; 0xf6d
    1190:	62646e61 	rsbvs	r6, r4, #1552	; 0x610
    1194:	74732f79 	ldrbtvc	r2, [r3], #-3961	; 0xf79
    1198:	62646e61 	rsbvs	r6, r4, #1552	; 0x610
    119c:	656b5f79 	strbvs	r5, [fp, #-3961]!	; 0xf79
    11a0:	00632e79 	rsbeq	r2, r3, r9, ror lr
    11a4:	6e617473 	mcrvs	4, 3, r7, cr1, cr3, {3}
    11a8:	5f796264 	svcpl	0x00796264
    11ac:	5f79656b 	svcpl	0x0079656b
    11b0:	74697865 	strbtvc	r7, [r9], #-2149	; 0x865
    11b4:	61747300 	cmnvs	r4, r0, lsl #6
    11b8:	7962646e 	stmdbvc	r2!, {r1, r2, r3, r5, r6, sl, sp, lr}^
    11bc:	6575715f 	ldrbvs	r7, [r5, #-351]!	; 0x15f
    11c0:	6b5f7972 	blvs	17df790 <__standby_start+0x17df790>
    11c4:	4c007965 	stcmi	9, cr7, [r0], {101}	; 0x65
    11c8:	63646172 	cmnvs	r4, #-2147483620	; 0x8000001c
    11cc:	7461445f 	strbtvc	r4, [r1], #-1119	; 0x45f
    11d0:	4c003061 	stcmi	0, cr3, [r0], {97}	; 0x61
    11d4:	63646172 	cmnvs	r4, #-2147483620	; 0x8000001c
    11d8:	7461445f 	strbtvc	r4, [r1], #-1119	; 0x45f
    11dc:	4b003161 	blmi	d768 <__standby_start+0xd768>
    11e0:	65527965 	ldrbvs	r7, [r2, #-2405]	; 0x965
    11e4:	724c0067 	subvc	r0, ip, #103	; 0x67
    11e8:	5f636461 	svcpl	0x00636461
    11ec:	6c727443 	cfldrdvs	mvd7, [r2], #-268	; 0xfffffef4
    11f0:	79654b00 	stmdbvc	r5!, {r8, r9, fp, lr}^
    11f4:	61746144 	cmnvs	r4, r4, asr #2
    11f8:	654b0031 	strbvs	r0, [fp, #-49]	; 0x31
    11fc:	72744379 	rsbsvc	r4, r4, #-469762047	; 0xe4000001
    1200:	5f5f006c 	svcpl	0x005f006c
    1204:	4e415453 	mcrmi	4, 2, r5, cr1, cr3, {2}
    1208:	5f594244 	svcpl	0x00594244
    120c:	5f59454b 	svcpl	0x0059454b
    1210:	00474552 	subeq	r4, r7, r2, asr r5
    1214:	74735f5f 	ldrbtvc	r5, [r3], #-3935	; 0xf5f
    1218:	62646e61 	rsbvs	r6, r4, #1552	; 0x610
    121c:	656b5f79 	strbvs	r5, [fp, #-3961]!	; 0xf79
    1220:	65725f79 	ldrbvs	r5, [r2, #-3961]!	; 0xf79
    1224:	00745f67 	rsbseq	r5, r4, r7, ror #30
    1228:	6461724c 	strbtvs	r7, [r1], #-588	; 0x24c
    122c:	6e495f63 	cdpvs	15, 4, cr5, cr9, cr3, {3}
    1230:	4c006374 	stcmi	3, cr6, [r0], {116}	; 0x74
    1234:	63646172 	cmnvs	r4, #-2147483620	; 0x8000001c
    1238:	746e495f 	strbtvc	r4, [lr], #-2399	; 0x95f
    123c:	654b0073 	strbvs	r0, [fp, #-115]	; 0x73
    1240:	74614479 	strbtvc	r4, [r1], #-1145	; 0x479
    1244:	4b003061 	blmi	d3d0 <__standby_start+0xd3d0>
    1248:	6e497965 	cdpvs	9, 4, cr7, cr9, cr5, {3}
    124c:	73006374 	movwvc	r6, #884	; 0x374
    1250:	646e6174 	strbtvs	r6, [lr], #-372	; 0x174
    1254:	6b5f7962 	blvs	17df7e4 <__standby_start+0x17df7e4>
    1258:	695f7965 	ldmdbvs	pc, {r0, r2, r5, r6, r8, fp, ip, sp, lr}^	; <UNPREDICTABLE>
    125c:	0074696e 	rsbseq	r6, r4, lr, ror #18
    1260:	32707861 	rsbscc	r7, r0, #6356992	; 0x610000
    1264:	725f3930 	subsvc	r3, pc, #786432	; 0xc0000
    1268:	766f6365 	strbtvc	r6, [pc], -r5, ror #6
    126c:	5f797265 	svcpl	0x00797265
    1270:	746c6f76 	strbtvc	r6, [ip], #-3958	; 0xf76
    1274:	50584100 	subspl	r4, r8, r0, lsl #2
    1278:	5f393032 	svcpl	0x00393032
    127c:	43444344 	movtmi	r4, #17220	; 0x4344
    1280:	58410032 	stmdapl	r1, {r1, r4, r5}^
    1284:	39303250 	ldmdbcc	r0!, {r4, r6, r9, ip, sp}
    1288:	4443445f 	strbmi	r4, [r3], #-1119	; 0x45f
    128c:	61003343 	tstvs	r0, r3, asr #6
    1290:	30327078 	eorscc	r7, r2, r8, ror r0
    1294:	65735f39 	ldrbvs	r5, [r3, #-3897]!	; 0xf39
    1298:	6f765f74 	svcvs	0x00765f74
    129c:	6761746c 	strbvs	r7, [r1, -ip, ror #8]!
    12a0:	68630065 	stmdavs	r3!, {r0, r2, r5, r6}^
    12a4:	5f6b6365 	svcpl	0x006b6365
    12a8:	676e6172 			; <UNDEFINED> instruction: 0x676e6172
    12ac:	58410065 	stmdapl	r1, {r0, r2, r5, r6}^
    12b0:	39303250 	ldmdbcc	r0!, {r4, r6, r9, ip, sp}
    12b4:	4f444c5f 	svcmi	0x00444c5f
    12b8:	58410032 	stmdapl	r1, {r1, r4, r5}^
    12bc:	39303250 	ldmdbcc	r0!, {r4, r6, r9, ip, sp}
    12c0:	4f444c5f 	svcmi	0x00444c5f
    12c4:	4f500033 	svcmi	0x00500033
    12c8:	5f524557 	svcpl	0x00524557
    12cc:	5f4c4f56 	svcpl	0x004c4f56
    12d0:	43444344 	movtmi	r4, #17220	; 0x4344
    12d4:	4f500032 	svcmi	0x00500032
    12d8:	5f524557 	svcpl	0x00524557
    12dc:	5f4c4f56 	svcpl	0x004c4f56
    12e0:	43444344 	movtmi	r4, #17220	; 0x4344
    12e4:	78610033 	stmdavc	r1!, {r0, r1, r4, r5}^
    12e8:	5f303270 	svcpl	0x00303270
    12ec:	6f666e69 	svcvs	0x00666e69
    12f0:	78616d00 	stmdavc	r1!, {r8, sl, fp, sp, lr}^
    12f4:	0056755f 	subseq	r7, r6, pc, asr r5
    12f8:	32707861 	rsbscc	r7, r0, #6356992	; 0x610000
    12fc:	765f3930 			; <UNDEFINED> instruction: 0x765f3930
    1300:	5f746c6f 	svcpl	0x00746c6f
    1304:	61746164 	cmnvs	r4, r4, ror #2
    1308:	65747300 	ldrbvs	r7, [r4, #-768]!	; 0x300
    130c:	56755f70 	uhsub16pl	r5, r5, r0
    1310:	65727400 	ldrbvs	r7, [r2, #-1024]!	; 0x400
    1314:	61765f65 	cmnvs	r6, r5, ror #30
    1318:	0065756c 	rsbeq	r7, r5, ip, ror #10
    131c:	5f6c6f76 	svcpl	0x006c6f76
    1320:	00676572 	rsbeq	r6, r7, r2, ror r5
    1324:	5f6e696d 	svcpl	0x006e696d
    1328:	50005675 	andpl	r5, r0, r5, ror r6
    132c:	5245574f 	subpl	r5, r5, #20709376	; 0x13c0000
    1330:	4c4f565f 	mcrrmi	6, 5, r5, pc, cr15
    1334:	4f444c5f 	svcmi	0x00444c5f
    1338:	4f500031 	svcmi	0x00500031
    133c:	5f524557 	svcpl	0x00524557
    1340:	5f4c4f56 	svcpl	0x004c4f56
    1344:	324f444c 	subcc	r4, pc, #1275068416	; 0x4c000000
    1348:	574f5000 	strbpl	r5, [pc, -r0]
    134c:	565f5245 	ldrbpl	r5, [pc], -r5, asr #4
    1350:	4c5f4c4f 	mrrcmi	12, 4, r4, pc, cr15	; <UNPREDICTABLE>
    1354:	00334f44 	eorseq	r4, r3, r4, asr #30
    1358:	45574f50 	ldrbmi	r4, [r7, #-3920]	; 0xf50
    135c:	4f565f52 	svcmi	0x00565f52
    1360:	444c5f4c 	strbmi	r5, [ip], #-3916	; 0xf4c
    1364:	7400344f 	strvc	r3, [r0], #-1103	; 0x44f
    1368:	00657079 	rsbeq	r7, r5, r9, ror r0
    136c:	5f676572 	svcpl	0x00676572
    1370:	006c6176 	rsbeq	r6, ip, r6, ror r1
    1374:	5f495754 	svcpl	0x00495754
    1378:	525f504f 	subspl	r5, pc, #79	; 0x4f
    137c:	6f700044 	svcvs	0x00700044
    1380:	5f726577 	svcpl	0x00726577
    1384:	5f6c6f76 	svcpl	0x006c6f76
    1388:	65707974 	ldrbvs	r7, [r0, #-2420]!	; 0x974
    138c:	7600655f 			; <UNDEFINED> instruction: 0x7600655f
    1390:	6e5f6c6f 	cdpvs	12, 5, cr6, cr15, cr15, {3}
    1394:	73746962 	cmnvc	r4, #1605632	; 0x188000
    1398:	70786100 	rsbsvc	r6, r8, r0, lsl #2
    139c:	6c5f3032 	mrrcvs	0, 3, r3, pc, cr2	; <UNPREDICTABLE>
    13a0:	5f346f64 	svcpl	0x00346f64
    13a4:	61746164 	cmnvs	r4, r4, ror #2
    13a8:	70786100 	rsbsvc	r6, r8, r0, lsl #2
    13ac:	5f393032 	svcpl	0x00393032
    13b0:	5f746573 	svcpl	0x00746573
    13b4:	746c6f76 	strbtvc	r6, [ip], #-3958	; 0xf76
    13b8:	50584100 	subspl	r4, r8, r0, lsl #2
    13bc:	5f393032 	svcpl	0x00393032
    13c0:	45574f50 	ldrbmi	r4, [r7, #-3920]	; 0xf50
    13c4:	444c5f52 	strbmi	r5, [ip], #-3922	; 0xf52
    13c8:	7261004f 	rsbvc	r0, r1, #79	; 0x4f
    13cc:	612f6863 	teqvs	pc, r3, ror #16
    13d0:	6d2f6d72 	stcvs	13, cr6, [pc, #-456]!	; 1210 <__standby_start+0x1210>
    13d4:	2d686361 	stclcs	3, cr6, [r8, #-388]!	; 0xfffffe7c
    13d8:	786e7573 	stmdavc	lr!, {r0, r1, r4, r5, r6, r8, sl, ip, sp, lr}^
    13dc:	6d702f69 	ldclvs	15, cr2, [r0, #-420]!	; 0xfffffe5c
    13e0:	6174732f 	cmnvs	r4, pc, lsr #6
    13e4:	7962646e 	stmdbvc	r2!, {r1, r2, r3, r5, r6, sl, sp, lr}^
    13e8:	7078612f 	rsbsvc	r6, r8, pc, lsr #2
    13ec:	5f393032 	svcpl	0x00393032
    13f0:	65776f70 	ldrbvs	r6, [r7, #-3952]!	; 0xf70
    13f4:	00632e72 	rsbeq	r2, r3, r2, ror lr
    13f8:	38755f5f 	ldmdacc	r5!, {r0, r1, r2, r3, r4, r6, r8, r9, sl, fp, ip, lr}^
    13fc:	6c6f7600 	stclvs	6, cr7, [pc], #-0	; 1404 <__standby_start+0x1404>
    1400:	6968735f 	stmdbvs	r8!, {r0, r1, r2, r3, r4, r6, r8, r9, ip, sp, lr}^
    1404:	50007466 	andpl	r7, r0, r6, ror #8
    1408:	5245574f 	subpl	r5, r5, #20709376	; 0x13c0000
    140c:	4c4f565f 	mcrrmi	6, 5, r5, pc, cr15
    1410:	58414d5f 	stmdapl	r1, {r0, r1, r2, r3, r4, r6, r8, sl, fp, lr}^
    1414:	70786100 	rsbsvc	r6, r8, r0, lsl #2
    1418:	666e695f 			; <UNDEFINED> instruction: 0x666e695f
    141c:	7861006f 	stmdavc	r1!, {r0, r1, r2, r3, r5, r6}^
    1420:	39303270 	ldmdbcc	r0!, {r4, r5, r6, r9, ip, sp}
    1424:	7465675f 	strbtvc	r6, [r5], #-1887	; 0x75f
    1428:	6c6f765f 	stclvs	6, cr7, [pc], #-380	; 12b4 <__standby_start+0x12b4>
    142c:	65676174 	strbvs	r6, [r7, #-372]!	; 0x174
    1430:	6e696600 	cdpvs	6, 6, cr6, cr9, cr0, {0}
    1434:	6e695f64 	cdpvs	15, 6, cr5, cr9, cr4, {3}
    1438:	41006f66 	tstmi	r0, r6, ror #30
    143c:	30325058 	eorscc	r5, r2, r8, asr r0
    1440:	444c5f39 	strbmi	r5, [ip], #-3897	; 0xf39
    1444:	4100314f 	tstmi	r0, pc, asr #2
    1448:	30325058 	eorscc	r5, r2, r8, asr r0
    144c:	444c5f39 	strbmi	r5, [ip], #-3897	; 0xf39
    1450:	304f494f 	subcc	r4, pc, pc, asr #18
    1454:	50584100 	subspl	r4, r8, r0, lsl #2
    1458:	5f393032 	svcpl	0x00393032
    145c:	344f444c 	strbcc	r4, [pc], #-1100	; 1464 <__standby_start+0x1464>
    1460:	69777400 	ldmdbvs	r7!, {sl, ip, sp, lr}^
    1464:	5f706f5f 	svcpl	0x00706f5f
    1468:	65707974 	ldrbvs	r7, [r0, #-2420]!	; 0x974
    146c:	5400655f 	strpl	r6, [r0], #-1375	; 0x55f
    1470:	4f5f4957 	svcmi	0x005f4957
    1474:	52575f50 	subspl	r5, r7, #320	; 0x140
    1478:	50584100 	subspl	r4, r8, r0, lsl #2
    147c:	3330385f 	teqcc	r0, #6225920	; 0x5f0000
    1480:	0044495f 	subeq	r4, r4, pc, asr r9
    1484:	5f505841 	svcpl	0x00505841
    1488:	5f383038 	svcpl	0x00383038
    148c:	4f004449 	svcmi	0x00004449
    1490:	30385f5a 	eorscc	r5, r8, sl, asr pc
    1494:	495f3231 	ldmdbmi	pc, {r0, r4, r5, r9, ip, sp}^	; <UNPREDICTABLE>
    1498:	74730044 	ldrbtvc	r0, [r3], #-68	; 0x44
    149c:	62646e61 	rsbvs	r6, r4, #1552	; 0x610
    14a0:	65725f79 	ldrbvs	r5, [r2, #-3961]!	; 0xf79
    14a4:	65766f63 	ldrbvs	r6, [r6, #-3939]!	; 0xf63
    14a8:	705f7972 	subsvc	r7, pc, r2, ror r9	; <UNPREDICTABLE>
    14ac:	7265776f 	rsbvc	r7, r5, #29097984	; 0x1bc0000
    14b0:	63726100 	cmnvs	r2, #0
    14b4:	72612f68 	rsbvc	r2, r1, #416	; 0x1a0
    14b8:	616d2f6d 	cmnvs	sp, sp, ror #30
    14bc:	732d6863 	teqvc	sp, #6488064	; 0x630000
    14c0:	69786e75 	ldmdbvs	r8!, {r0, r2, r4, r5, r6, r9, sl, fp, sp, lr}^
    14c4:	2f6d702f 	svccs	0x006d702f
    14c8:	6e617473 	mcrvs	4, 3, r7, cr1, cr3, {3}
    14cc:	2f796264 	svccs	0x00796264
    14d0:	6e617473 	mcrvs	4, 3, r7, cr1, cr3, {3}
    14d4:	5f796264 	svcpl	0x00796264
    14d8:	65776f70 	ldrbvs	r6, [r7, #-3952]!	; 0xf70
    14dc:	00632e72 	rsbeq	r2, r3, r2, ror lr
    14e0:	5f505841 	svcpl	0x00505841
    14e4:	5f333138 	svcpl	0x00333138
    14e8:	41004449 	tstmi	r0, r9, asr #8
    14ec:	385f5058 	ldmdacc	pc, {r3, r4, r6, ip, lr}^	; <UNPREDICTABLE>
    14f0:	495f3930 	ldmdbmi	pc, {r4, r5, r8, fp, ip, sp}^	; <UNPREDICTABLE>
    14f4:	58410044 	stmdapl	r1, {r2, r6}^
    14f8:	30325f50 	eorscc	r5, r2, r0, asr pc
    14fc:	44495f39 	strbmi	r5, [r9], #-3897	; 0xf39
    1500:	5f574100 	svcpl	0x00574100
    1504:	45574f50 	ldrbmi	r4, [r7, #-3920]	; 0xf50
    1508:	44495f52 	strbmi	r5, [r9], #-3922	; 0xf52
    150c:	50584100 	subspl	r4, r8, r0, lsl #2
    1510:	5832325f 	ldmdapl	r2!, {r0, r1, r2, r3, r4, r6, r9, ip, sp}
    1514:	0044495f 	subeq	r4, r4, pc, asr r9
    1518:	78756d70 	ldmdavc	r5!, {r4, r5, r6, r8, sl, fp, sp, lr}^
    151c:	0064695f 	rsbeq	r6, r4, pc, asr r9
    1520:	6e617473 	mcrvs	4, 3, r7, cr1, cr3, {3}
    1524:	5f796264 	svcpl	0x00796264
    1528:	5f746573 	svcpl	0x00746573
    152c:	65776f70 	ldrbvs	r6, [r7, #-3952]!	; 0xf70
    1530:	58410072 	stmdapl	r1, {r1, r4, r5, r6}^
    1534:	30385f50 	eorscc	r5, r8, r0, asr pc
    1538:	44495f36 	strbmi	r5, [r9], #-3894	; 0xf36
    153c:	50584100 	subspl	r4, r8, r0, lsl #2
    1540:	5839315f 	ldmdapl	r9!, {r0, r1, r2, r3, r4, r6, r8, ip, sp}
    1544:	0044495f 	subeq	r4, r4, pc, asr r9
    1548:	706f7473 	rsbvc	r7, pc, r3, ror r4	; <UNPREDICTABLE>
    154c:	74756f5f 	ldrbtvc	r6, [r5], #-3935	; 0xf5f
    1550:	64616200 	strbtvs	r6, [r1], #-512	; 0x200
    1554:	54007264 	strpl	r7, [r0], #-612	; 0x264
    1558:	6c436977 	mcrrvs	9, 7, r6, r3, cr7
    155c:	6765526b 	strbvs	r5, [r5, -fp, ror #4]!
    1560:	006b6142 	rsbeq	r6, fp, r2, asr #2
    1564:	5f676572 	svcpl	0x00676572
    1568:	64646173 	strbtvs	r6, [r4], #-371	; 0x173
    156c:	77740072 			; <UNDEFINED> instruction: 0x77740072
    1570:	79625f69 	stmdbvc	r2!, {r0, r3, r5, r6, r8, r9, sl, fp, ip, lr}^
    1574:	725f6574 	subsvc	r6, pc, #486539264	; 0x1d000000
    1578:	72610077 	rsbvc	r0, r1, #119	; 0x77
    157c:	612f6863 	teqvs	pc, r3, ror #16
    1580:	6d2f6d72 	stcvs	13, cr6, [pc, #-456]!	; 13c0 <__standby_start+0x13c0>
    1584:	2d686361 	stclcs	3, cr6, [r8, #-388]!	; 0xfffffe7c
    1588:	786e7573 	stmdavc	lr!, {r0, r1, r4, r5, r6, r8, sl, ip, sp, lr}^
    158c:	6d702f69 	ldclvs	15, cr2, [r0, #-420]!	; 0xfffffe5c
    1590:	6174732f 	cmnvs	r4, pc, lsr #6
    1594:	7962646e 	stmdbvc	r2!, {r1, r2, r3, r5, r6, sl, sp, lr}^
    1598:	6174732f 	cmnvs	r4, pc, lsr #6
    159c:	7962646e 	stmdbvc	r2!, {r1, r2, r3, r5, r6, sl, sp, lr}^
    15a0:	6977745f 	ldmdbvs	r7!, {r0, r1, r2, r3, r4, r6, sl, ip, sp, lr}^
    15a4:	7200632e 	andvc	r6, r0, #-1207959552	; 0xb8000000
    15a8:	785f6765 	ldmdavc	pc, {r0, r2, r5, r6, r8, r9, sl, sp, lr}^	; <UNPREDICTABLE>
    15ac:	64646173 	strbtvs	r6, [r4], #-371	; 0x173
    15b0:	65720072 	ldrbvs	r0, [r2, #-114]!	; 0x72
    15b4:	74735f67 	ldrbtvc	r5, [r3], #-3943	; 0xf67
    15b8:	73757461 	cmnvc	r5, #1627389952	; 0x61000000
    15bc:	67657200 	strbvs	r7, [r5, -r0, lsl #4]!
    15c0:	7365725f 	cmnvc	r5, #-268435451	; 0xf0000005
    15c4:	5f007465 	svcpl	0x00007465
    15c8:	6e617473 	mcrvs	4, 3, r7, cr1, cr3, {3}
    15cc:	5f796264 	svcpl	0x00796264
    15d0:	5f697774 	svcpl	0x00697774
    15d4:	706f7473 	rsbvc	r7, pc, r3, ror r4	; <UNPREDICTABLE>
    15d8:	61747300 	cmnvs	r4, r0, lsl #6
    15dc:	7962646e 	stmdbvc	r2!, {r1, r2, r3, r5, r6, sl, sp, lr}^
    15e0:	6977745f 	ldmdbvs	r7!, {r0, r1, r2, r3, r4, r6, sl, ip, sp, lr}^
    15e4:	6978655f 	ldmdbvs	r8!, {r0, r1, r2, r3, r4, r6, r8, sl, sp, lr}^
    15e8:	72670074 	rsbvc	r0, r7, #116	; 0x74
    15ec:	0070756f 	rsbseq	r7, r0, pc, ror #10
    15f0:	74617473 	strbtvc	r7, [r1], #-1139	; 0x473
    15f4:	6d745f65 	ldclvs	15, cr5, [r4, #-404]!	; 0xfffffe6c
    15f8:	74730070 	ldrbtvc	r0, [r3], #-112	; 0x70
    15fc:	62646e61 	rsbvs	r6, r4, #1552	; 0x610
    1600:	77745f79 			; <UNDEFINED> instruction: 0x77745f79
    1604:	6e695f69 	cdpvs	15, 6, cr5, cr9, cr9, {3}
    1608:	74007469 	strvc	r7, [r0], #-1129	; 0x469
    160c:	725f6977 	subsvc	r6, pc, #1949696	; 0x1dc000
    1610:	72006765 	andvc	r6, r0, #26476544	; 0x1940000
    1614:	645f6765 	ldrbvs	r6, [pc], #-1893	; 161c <__standby_start+0x161c>
    1618:	00617461 	rsbeq	r7, r1, r1, ror #8
    161c:	5f676572 	svcpl	0x00676572
    1620:	006c7463 	rsbeq	r7, ip, r3, ror #8
    1624:	5f676572 	svcpl	0x00676572
    1628:	6c74636c 	ldclvs	3, cr6, [r4], #-432	; 0xfffffe50
    162c:	67617400 	strbvs	r7, [r1, -r0, lsl #8]!
    1630:	6977745f 	ldmdbvs	r7!, {r0, r1, r2, r3, r4, r6, sl, ip, sp, lr}^
    1634:	65725f63 	ldrbvs	r5, [r2, #-3939]!	; 0xf63
    1638:	6f6e0067 	svcvs	0x006e0067
    163c:	65725f70 	ldrbvs	r5, [r2, #-3952]!	; 0xf70
    1640:	72006461 	andvc	r6, r0, #1627389952	; 0x61000000
    1644:	655f6765 	ldrbvs	r6, [pc, #-1893]	; ee7 <__standby_start+0xee7>
    1648:	5f007266 	svcpl	0x00007266
    164c:	6977745f 	ldmdbvs	r7!, {r0, r1, r2, r3, r4, r6, sl, ip, sp, lr}^
    1650:	65725f63 	ldrbvs	r5, [r2, #-3939]!	; 0xf63
    1654:	00745f67 	rsbseq	r5, r4, r7, ror #30
    1658:	43697754 	cmnmi	r9, #22020096	; 0x1500000
    165c:	65526c74 	ldrbvs	r6, [r2, #-3188]	; 0xc74
    1660:	6b614267 	blvs	1852004 <__standby_start+0x1852004>
    1664:	67657200 	strbvs	r7, [r5, -r0, lsl #4]!
    1668:	6b6c635f 	blvs	1b1a3ec <__standby_start+0x1b1a3ec>
    166c:	57540072 			; <UNDEFINED> instruction: 0x57540072
    1670:	45525f49 	ldrbmi	r5, [r2, #-3913]	; 0xf49
    1674:	41425f47 	cmpmi	r2, r7, asr #30
    1678:	61004553 	tstvs	r0, r3, asr r5
    167c:	2f686372 	svccs	0x00686372
    1680:	2f6d7261 	svccs	0x006d7261
    1684:	6863616d 	stmdavs	r3!, {r0, r2, r3, r5, r6, r8, sp, lr}^
    1688:	6e75732d 	cdpvs	3, 7, cr7, cr5, cr13, {1}
    168c:	702f6978 	eorvc	r6, pc, r8, ror r9	; <UNPREDICTABLE>
    1690:	74732f6d 	ldrbtvc	r2, [r3], #-3949	; 0xf6d
    1694:	62646e61 	rsbvs	r6, r4, #1552	; 0x610
    1698:	74732f79 	ldrbtvc	r2, [r3], #-3961	; 0xf79
    169c:	62646e61 	rsbvs	r6, r4, #1552	; 0x610
    16a0:	73755f79 	cmnvc	r5, #484	; 0x1e4
    16a4:	00632e62 	rsbeq	r2, r3, r2, ror #28
    16a8:	6e617473 	mcrvs	4, 3, r7, cr1, cr3, {3}
    16ac:	5f796264 	svcpl	0x00796264
    16b0:	5f627375 	svcpl	0x00627375
    16b4:	74697865 	strbtvc	r7, [r9], #-2149	; 0x865
    16b8:	61747300 	cmnvs	r4, r0, lsl #6
    16bc:	7962646e 	stmdbvc	r2!, {r1, r2, r3, r5, r6, sl, sp, lr}^
    16c0:	5f73695f 	svcpl	0x0073695f
    16c4:	5f627375 	svcpl	0x00627375
    16c8:	74617473 	strbtvc	r7, [r1], #-1139	; 0x473
    16cc:	635f7375 	cmpvs	pc, #-738197503	; 0xd4000001
    16d0:	676e6168 	strbvs	r6, [lr, -r8, ror #2]!
    16d4:	74730065 	ldrbtvc	r0, [r3], #-101	; 0x65
    16d8:	62646e61 	rsbvs	r6, r4, #1552	; 0x610
    16dc:	75715f79 	ldrbvc	r5, [r1, #-3961]!	; 0xf79
    16e0:	5f797265 	svcpl	0x00797265
    16e4:	5f627375 	svcpl	0x00627375
    16e8:	6e657665 	cdpvs	6, 6, cr7, cr5, cr5, {3}
    16ec:	74730074 	ldrbtvc	r0, [r3], #-116	; 0x74
    16f0:	62646e61 	rsbvs	r6, r4, #1552	; 0x610
    16f4:	73755f79 	cmnvc	r5, #484	; 0x1e4
    16f8:	6e695f62 	cdpvs	15, 6, cr5, cr9, cr2, {3}
    16fc:	72007469 	andvc	r7, r0, #1761607680	; 0x69000000
    1700:	735f6765 	cmpvc	pc, #26476544	; 0x1940000
    1704:	69006c65 	stmdbvs	r0, {r0, r2, r5, r6, sl, fp, sp, lr}
    1708:	6e695f6f 	cdpvs	15, 6, cr5, cr9, cr15, {3}
    170c:	685f7469 	ldmdavs	pc, {r0, r3, r5, r6, sl, ip, sp, lr}^	; <UNPREDICTABLE>
    1710:	00686769 	rsbeq	r6, r8, r9, ror #14
    1714:	706f6f6c 	rsbvc	r6, pc, ip, ror #30
    1718:	616c665f 	cmnvs	ip, pc, asr r6
    171c:	74730067 	ldrbtvc	r0, [r3], #-103	; 0x67
    1720:	73757461 	cmnvc	r5, #1627389952	; 0x61000000
    1724:	6765725f 			; <UNDEFINED> instruction: 0x6765725f
    1728:	61747300 	cmnvs	r4, r0, lsl #6
    172c:	5f737574 	svcpl	0x00737574
    1730:	5f676572 	svcpl	0x00676572
    1734:	00706d74 	rsbseq	r6, r0, r4, ror sp
    1738:	65766173 	ldrbvs	r6, [r6, #-371]!	; 0x173
    173c:	6d656d5f 	stclvs	13, cr6, [r5, #-380]!	; 0xfffffe84
    1740:	6174735f 	cmnvs	r4, pc, asr r3
    1744:	5f737574 	svcpl	0x00737574
    1748:	6d6d6f6e 	stclvs	15, cr6, [sp, #-440]!	; 0xfffffe48
    174c:	6f690075 	svcvs	0x00690075
    1750:	6769685f 			; <UNDEFINED> instruction: 0x6769685f
    1754:	61640068 	cmnvs	r4, r8, rrx
    1758:	725f6174 	subsvc	r6, pc, #29
    175c:	656d0064 	strbvs	r0, [sp, #-100]!	; 0x64
    1760:	74735f6d 	ldrbtvc	r5, [r3], #-3949	; 0xf6d
    1764:	73757461 	cmnvc	r5, #1627389952	; 0x61000000
    1768:	696e695f 	stmdbvs	lr!, {r0, r1, r2, r3, r4, r6, r8, fp, sp, lr}^
    176c:	6f6e5f74 	svcvs	0x006e5f74
    1770:	00756d6d 	rsbseq	r6, r5, sp, ror #26
    1774:	65766173 	ldrbvs	r6, [r6, #-371]!	; 0x173
    1778:	6d656d5f 	stclvs	13, cr6, [r5, #-380]!	; 0xfffffe84
    177c:	616c665f 	cmnvs	ip, pc, asr r6
    1780:	656d0067 	strbvs	r0, [sp, #-103]!	; 0x67
    1784:	74735f6d 	ldrbtvc	r5, [r3], #-3949	; 0xf6d
    1788:	73757461 	cmnvc	r5, #1627389952	; 0x61000000
    178c:	656c635f 	strbvs	r6, [ip, #-863]!	; 0x35f
    1790:	70007261 	andvc	r7, r0, r1, ror #4
    1794:	746e6972 	strbtvc	r6, [lr], #-2418	; 0x972
    1798:	616c665f 	cmnvs	ip, pc, asr r6
    179c:	6f690067 	svcvs	0x00690067
    17a0:	696e695f 	stmdbvs	lr!, {r0, r1, r2, r3, r4, r6, r8, fp, sp, lr}^
    17a4:	656d0074 	strbvs	r0, [sp, #-116]!	; 0x74
    17a8:	74735f6d 	ldrbtvc	r5, [r3], #-3949	; 0xf6d
    17ac:	73757461 	cmnvc	r5, #1627389952	; 0x61000000
    17b0:	696e695f 	stmdbvs	lr!, {r0, r1, r2, r3, r4, r6, r8, fp, sp, lr}^
    17b4:	65670074 	strbvs	r0, [r7, #-116]!	; 0x74
    17b8:	656d5f74 	strbvs	r5, [sp, #-3956]!	; 0xf74
    17bc:	74735f6d 	ldrbtvc	r5, [r3], #-3949	; 0xf6d
    17c0:	73757461 	cmnvc	r5, #1627389952	; 0x61000000
    17c4:	5f6f6900 	svcpl	0x006f6900
    17c8:	74696e69 	strbtvc	r6, [r9], #-3689	; 0xe69
    17cc:	776f6c5f 			; <UNDEFINED> instruction: 0x776f6c5f
    17d0:	74616400 	strbtvc	r6, [r1], #-1024	; 0x400
    17d4:	72775f61 	rsbsvc	r5, r7, #388	; 0x184
    17d8:	6f687300 	svcvs	0x00687300
    17dc:	656d5f77 	strbvs	r5, [sp, #-3959]!	; 0xf77
    17e0:	74735f6d 	ldrbtvc	r5, [r3], #-3949	; 0xf6d
    17e4:	73757461 	cmnvc	r5, #1627389952	; 0x61000000
    17e8:	61747300 	cmnvs	r4, r0, lsl #6
    17ec:	5f737574 	svcpl	0x00737574
    17f0:	5f676572 	svcpl	0x00676572
    17f4:	745f6170 	ldrbvc	r6, [pc], #-368	; 17fc <__standby_start+0x17fc>
    17f8:	6100706d 	tstvs	r0, sp, rrx
    17fc:	2f686372 	svccs	0x00686372
    1800:	2f6d7261 	svccs	0x006d7261
    1804:	6863616d 	stmdavs	r3!, {r0, r2, r3, r5, r6, r8, sp, lr}^
    1808:	6e75732d 	cdpvs	3, 7, cr7, cr5, cr13, {1}
    180c:	702f6978 	eorvc	r6, pc, r8, ror r9	; <UNPREDICTABLE>
    1810:	74732f6d 	ldrbtvc	r2, [r3], #-3949	; 0xf6d
    1814:	62646e61 	rsbvs	r6, r4, #1552	; 0x610
    1818:	2f2e2f79 	svccs	0x002e2f79
    181c:	702f2e2e 	eorvc	r2, pc, lr, lsr #28
    1820:	65645f6d 	strbvs	r5, [r4, #-3949]!	; 0xf6d
    1824:	2e677562 	cdpcs	5, 6, cr7, cr7, cr2, {3}
    1828:	6c630063 	stclvs	0, cr0, [r3], #-396	; 0xfffffe74
    182c:	5f726165 	svcpl	0x00726165
    1830:	5f6d656d 	svcpl	0x006d656d
    1834:	67616c66 	strbvs	r6, [r1, -r6, ror #24]!
    1838:	6d656d00 	stclvs	13, cr6, [r5, #-0]
    183c:	6174735f 	cmnvs	r4, pc, asr r3
    1840:	5f737574 	svcpl	0x00737574
    1844:	74697865 	strbtvc	r7, [r9], #-2149	; 0x865
    1848:	61747300 	cmnvs	r4, r0, lsl #6
    184c:	5f737574 	svcpl	0x00737574
    1850:	5f676572 	svcpl	0x00676572
    1854:	5f006170 	svcpl	0x00006170
    1858:	705f725f 	subsvc	r7, pc, pc, asr r2	; <UNPREDICTABLE>
    185c:	705f6f69 	subsvc	r6, pc, r9, ror #30
    1860:	685f6461 	ldmdavs	pc, {r0, r5, r6, sl, sp, lr}^	; <UNPREDICTABLE>
    1864:	00646c6f 	rsbeq	r6, r4, pc, ror #24
    1868:	79737562 	ldmdbvc	r3!, {r1, r5, r6, r8, sl, ip, sp, lr}^
    186c:	6961775f 	stmdbvs	r1!, {r0, r1, r2, r3, r4, r6, r8, r9, sl, ip, sp, lr}^
    1870:	676e6974 			; <UNDEFINED> instruction: 0x676e6974
    1874:	76617300 	strbtvc	r7, [r1], -r0, lsl #6
    1878:	656d5f65 	strbvs	r5, [sp, #-3941]!	; 0xf65
    187c:	74735f6d 	ldrbtvc	r5, [r3], #-3949	; 0xf6d
    1880:	73757461 	cmnvc	r5, #1627389952	; 0x61000000
    1884:	725f5f00 	subsvc	r5, pc, #0
    1888:	6372705f 	cmnvs	r2, #95	; 0x5f
    188c:	69705f6d 	ldmdbvs	r0!, {r0, r2, r3, r5, r6, r8, r9, sl, fp, ip, lr}^
    1890:	61705f6f 	cmnvs	r0, pc, ror #30
    1894:	6f685f64 	svcvs	0x00685f64
    1898:	7700646c 	strvc	r6, [r0, -ip, ror #8]
    189c:	75705f72 	ldrbvc	r5, [r0, #-3954]!	; 0xf72
    18a0:	0065736c 	rsbeq	r7, r5, ip, ror #6
    18a4:	6e756f63 	cdpvs	15, 7, cr6, cr5, cr3, {3}
    18a8:	5f726574 	svcpl	0x00726574
    18ac:	62616e65 	rsbvs	r6, r1, #1616	; 0x650
    18b0:	6400656c 	strvs	r6, [r0], #-1388	; 0x56c
    18b4:	79616c65 	stmdbvc	r1!, {r0, r2, r5, r6, sl, fp, sp, lr}^
    18b8:	00736d5f 	rsbseq	r6, r3, pc, asr sp
    18bc:	67726174 			; <UNDEFINED> instruction: 0x67726174
    18c0:	63007465 	movwvs	r7, #1125	; 0x465
    18c4:	676e6168 	strbvs	r6, [lr, -r8, ror #2]!
    18c8:	75725f65 	ldrbvc	r5, [r2, #-3941]!	; 0xf65
    18cc:	6d69746e 	cfstrdvs	mvd7, [r9, #-440]!	; 0xfffffe48
    18d0:	6e655f65 	cdpvs	15, 6, cr5, cr5, cr5, {3}
    18d4:	72610076 	rsbvc	r0, r1, #118	; 0x76
    18d8:	612f6863 	teqvs	pc, r3, ror #16
    18dc:	6d2f6d72 	stcvs	13, cr6, [pc, #-456]!	; 171c <__standby_start+0x171c>
    18e0:	2d686361 	stclcs	3, cr6, [r8, #-388]!	; 0xfffffe7c
    18e4:	786e7573 	stmdavc	lr!, {r0, r1, r4, r5, r6, r8, sl, ip, sp, lr}^
    18e8:	6d702f69 	ldclvs	15, cr2, [r0, #-420]!	; 0xfffffe5c
    18ec:	6174732f 	cmnvs	r4, pc, lsr #6
    18f0:	7962646e 	stmdbvc	r2!, {r1, r2, r3, r5, r6, sl, sp, lr}^
    18f4:	2e2f2e2f 	cdpcs	14, 2, cr2, cr15, cr15, {1}
    18f8:	656d2f2e 	strbvs	r2, [sp, #-3886]!	; 0xf2e
    18fc:	69745f6d 	ldmdbvs	r4!, {r0, r2, r3, r5, r6, r8, r9, sl, fp, ip, lr}^
    1900:	676e696d 	strbvs	r6, [lr, -sp, ror #18]!
    1904:	7200632e 	andvc	r6, r0, #-1207959552	; 0xb8000000
    1908:	6f747365 	svcvs	0x00747365
    190c:	705f6572 	subsvc	r6, pc, r2, ror r5	; <UNPREDICTABLE>
    1910:	63667265 	cmnvs	r6, #1342177286	; 0x50000006
    1914:	746e756f 	strbtvc	r7, [lr], #-1391	; 0x56f
    1918:	64007265 	strvs	r7, [r0], #-613	; 0x265
    191c:	79616c65 	stmdbvc	r1!, {r0, r2, r5, r6, sl, fp, sp, lr}^
    1920:	0073755f 	rsbseq	r7, r3, pc, asr r5
    1924:	7265766f 	rsbvc	r7, r5, #116391936	; 0x6f00000
    1928:	64616568 	strbtvs	r6, [r1], #-1384	; 0x568
    192c:	74656700 	strbtvc	r6, [r5], #-1792	; 0x700
    1930:	6576655f 	ldrbvs	r6, [r6, #-1375]!	; 0x55f
    1934:	635f746e 	cmpvs	pc, #1845493760	; 0x6e000000
    1938:	746e756f 	strbtvc	r7, [lr], #-1391	; 0x56f
    193c:	65007265 	strvs	r7, [r0, #-613]	; 0x265
    1940:	6c62616e 	stfvse	f6, [r2], #-440	; 0xfffffe48
    1944:	69645f65 	stmdbvs	r4!, {r0, r2, r5, r6, r8, r9, sl, fp, ip, lr}^
    1948:	65646976 	strbvs	r6, [r4, #-2422]!	; 0x976
    194c:	65720072 	ldrbvs	r0, [r2, #-114]!	; 0x72
    1950:	5f746573 	svcpl	0x00746573
    1954:	6e756f63 	cdpvs	15, 7, cr6, cr5, cr3, {3}
    1958:	00726574 	rsbseq	r6, r2, r4, ror r5
    195c:	65746e63 	ldrbvs	r6, [r4, #-3683]!	; 0xe63
    1960:	61620072 	smcvs	8194	; 0x2002
    1964:	70756b63 	rsbsvc	r6, r5, r3, ror #22
    1968:	7265705f 	rsbvc	r7, r5, #95	; 0x5f
    196c:	6f635f66 	svcvs	0x00635f66
    1970:	65746e75 	ldrbvs	r6, [r4, #-3701]!	; 0xe75
    1974:	6e655f72 	mcrvs	15, 3, r5, cr5, cr2, {3}
    1978:	656c6261 	strbvs	r6, [ip, #-609]!	; 0x261
    197c:	6765725f 			; <UNDEFINED> instruction: 0x6765725f
    1980:	5f737500 	svcpl	0x00737500
    1984:	00746e63 	rsbseq	r6, r4, r3, ror #28
    1988:	725f6f64 	subsvc	r6, pc, #400	; 0x190
    198c:	74657365 	strbtvc	r7, [r5], #-869	; 0x365
    1990:	63616200 	cmnvs	r1, #0
    1994:	5f70756b 	svcpl	0x0070756b
    1998:	66726570 			; <UNDEFINED> instruction: 0x66726570
    199c:	6e756f63 	cdpvs	15, 7, cr6, cr5, cr3, {3}
    19a0:	00726574 	rsbseq	r6, r2, r4, ror r5
    19a4:	6e657665 	cdpvs	6, 6, cr7, cr5, cr5, {3}
    19a8:	6e635f74 	mcrvs	15, 3, r5, cr3, cr4, {3}
    19ac:	61620074 	smcvs	8196	; 0x2004
    19b0:	70756b63 	rsbsvc	r6, r5, r3, ror #22
    19b4:	7265705f 	rsbvc	r7, r5, #95	; 0x5f
    19b8:	6f635f66 	svcvs	0x00635f66
    19bc:	65746e75 	ldrbvs	r6, [r4, #-3701]!	; 0xe75
    19c0:	74635f72 	strbtvc	r5, [r3], #-3954	; 0xf72
    19c4:	725f6c72 	subsvc	r6, pc, #29184	; 0x7200
    19c8:	67006765 	strvs	r6, [r0, -r5, ror #14]
    19cc:	635f7465 	cmpvs	pc, #1694498816	; 0x65000000
    19d0:	656c6379 	strbvs	r6, [ip, #-889]!	; 0x379
    19d4:	6e756f63 	cdpvs	15, 7, cr6, cr5, cr3, {3}
    19d8:	6e690074 	mcrvs	0, 3, r0, cr9, cr4, {3}
    19dc:	705f7469 	subsvc	r7, pc, r9, ror #8
    19e0:	63667265 	cmnvs	r6, #1342177286	; 0x50000006
    19e4:	746e756f 	strbtvc	r7, [lr], #-1391	; 0x56f
    19e8:	00737265 	rsbseq	r7, r3, r5, ror #4
    19ec:	5f746573 	svcpl	0x00746573
    19f0:	6e657665 	cdpvs	6, 6, cr7, cr5, cr5, {3}
    19f4:	6f635f74 	svcvs	0x00635f74
    19f8:	65746e75 	ldrbvs	r6, [r4, #-3701]!	; 0xe75
    19fc:	6e690072 	mcrvs	0, 3, r0, cr9, cr2, {3}
    1a00:	655f7469 	ldrbvs	r7, [pc, #-1129]	; 159f <__standby_start+0x159f>
    1a04:	746e6576 	strbtvc	r6, [lr], #-1398	; 0x576
    1a08:	756f635f 	strbvc	r6, [pc, #-863]!	; 16b1 <__standby_start+0x16b1>
    1a0c:	7265746e 	rsbvc	r7, r5, #1845493760	; 0x6e000000
    1a10:	74616d00 	strbtvc	r6, [r1], #-3328	; 0xd00
    1a14:	655f6863 	ldrbvs	r6, [pc, #-2147]	; 11b9 <__standby_start+0x11b9>
    1a18:	746e6576 	strbtvc	r6, [lr], #-1398	; 0x576
    1a1c:	756f635f 	strbvc	r6, [pc, #-863]!	; 16c5 <__standby_start+0x16c5>
    1a20:	7265746e 	rsbvc	r7, r5, #1845493760	; 0x6e000000
    1a24:	72726e00 	rsbsvc	r6, r2, #0
    1a28:	61730072 	cmnvs	r3, r2, ror r0
    1a2c:	5f646576 	svcpl	0x00646576
    1a30:	5f756d6d 	svcpl	0x00756d6d
    1a34:	74617473 	strbtvc	r7, [r1], #-1139	; 0x473
    1a38:	61640065 	cmnvs	r4, r5, rrx
    1a3c:	74007263 	strvc	r7, [r0], #-611	; 0x263
    1a40:	72636274 	rsbvc	r6, r3, #1073741831	; 0x40000007
    1a44:	62747400 	rsbsvs	r7, r4, #0
    1a48:	0072315f 	rsbseq	r3, r2, pc, asr r1
    1a4c:	74736572 	ldrbtvc	r6, [r3], #-1394	; 0x572
    1a50:	5f65726f 	svcpl	0x0065726f
    1a54:	5f756d6d 	svcpl	0x00756d6d
    1a58:	74617473 	strbtvc	r7, [r1], #-1139	; 0x473
    1a5c:	61730065 	cmnvs	r3, r5, rrx
    1a60:	6d5f6576 	cfldr64vs	mvdx6, [pc, #-472]	; 1890 <__standby_start+0x1890>
    1a64:	735f756d 	cmpvc	pc, #457179136	; 0x1b400000
    1a68:	65746174 	ldrbvs	r6, [r4, #-372]!	; 0x174
    1a6c:	63726100 	cmnvs	r2, #0
    1a70:	72612f68 	rsbvc	r2, r1, #416	; 0x1a0
    1a74:	616d2f6d 	cmnvs	sp, sp, ror #30
    1a78:	732d6863 	teqvc	sp, #6488064	; 0x630000
    1a7c:	69786e75 	ldmdbvs	r8!, {r0, r2, r4, r5, r6, r9, sl, fp, sp, lr}^
    1a80:	2f6d702f 	svccs	0x006d702f
    1a84:	6e617473 	mcrvs	4, 3, r7, cr1, cr3, {3}
    1a88:	2f796264 	svccs	0x00796264
    1a8c:	2e2e2f2e 	cdpcs	15, 2, cr2, cr14, cr14, {1}
    1a90:	6d656d2f 	stclvs	13, cr6, [r5, #-188]!	; 0xffffff44
    1a94:	756d6d5f 	strbvc	r6, [sp, #-3423]!	; 0xd5f
    1a98:	2e63705f 	mcrcs	0, 3, r7, cr3, cr15, {2}
    1a9c:	72700063 	rsbsvc	r0, r0, #99	; 0x63
    1aa0:	63007272 	movwvs	r7, #626	; 0x272
    1aa4:	00726361 	rsbseq	r6, r2, r1, ror #6
    1aa8:	72737363 	rsbsvc	r7, r3, #-1946157055	; 0x8c000001
    1aac:	62747400 	rsbsvs	r7, r4, #0
    1ab0:	0072305f 	rsbseq	r3, r2, pc, asr r0
    1ab4:	5f746573 	svcpl	0x00746573
    1ab8:	69726573 	ldmdbvs	r2!, {r0, r1, r4, r5, r6, r8, sl, sp, lr}^
    1abc:	635f6c61 	cmpvs	pc, #24832	; 0x6100
    1ac0:	75006b6c 	strvc	r6, [r0, #-2924]	; 0xb6c
    1ac4:	5f747261 	svcpl	0x00747261
    1ac8:	6f697067 	svcvs	0x00697067
    1acc:	6e6f635f 	mcrvs	3, 3, r6, cr15, cr15, {2}
    1ad0:	5f676966 	svcpl	0x00676966
    1ad4:	006c6176 	rsbeq	r6, ip, r6, ror r1
    1ad8:	5f746573 	svcpl	0x00746573
    1adc:	69726573 	ldmdbvs	r2!, {r0, r1, r4, r5, r6, r8, sl, sp, lr}^
    1ae0:	675f6c61 	ldrbvs	r6, [pc, -r1, ror #24]
    1ae4:	006f6970 	rsbeq	r6, pc, r0, ror r9	; <UNPREDICTABLE>
    1ae8:	69726573 	ldmdbvs	r2!, {r0, r1, r4, r5, r6, r8, sl, sp, lr}^
    1aec:	675f6c61 	ldrbvs	r6, [pc, -r1, ror #24]
    1af0:	00737465 	rsbseq	r7, r3, r5, ror #8
    1af4:	69726573 	ldmdbvs	r2!, {r0, r1, r4, r5, r6, r8, sl, sp, lr}^
    1af8:	695f6c61 	ldmdbvs	pc, {r0, r5, r6, sl, fp, sp, lr}^	; <UNPREDICTABLE>
    1afc:	0074696e 	rsbseq	r6, r4, lr, ror #18
    1b00:	6b636162 	blvs	18da090 <__standby_start+0x18da090>
    1b04:	675f7075 			; <UNDEFINED> instruction: 0x675f7075
    1b08:	5f6f6970 	svcpl	0x006f6970
    1b0c:	74726175 	ldrbtvc	r6, [r2], #-373	; 0x175
    1b10:	72657300 	rsbvc	r7, r5, #0
    1b14:	5f6c6169 	svcpl	0x006c6169
    1b18:	5f746567 	svcpl	0x00746567
    1b1c:	72616863 	rsbvc	r6, r1, #6488064	; 0x630000
    1b20:	72657300 	rsbvc	r7, r5, #0
    1b24:	5f6c6169 	svcpl	0x006c6169
    1b28:	74696e69 	strbtvc	r6, [r9], #-3689	; 0xe69
    1b2c:	6d6f6e5f 	stclvs	14, cr6, [pc, #-380]!	; 19b8 <__standby_start+0x19b8>
    1b30:	7300756d 	movwvc	r7, #1389	; 0x56d
    1b34:	665f6372 			; <UNDEFINED> instruction: 0x665f6372
    1b38:	00716572 	rsbseq	r6, r1, r2, ror r5
    1b3c:	69726573 	ldmdbvs	r2!, {r0, r1, r4, r5, r6, r8, sl, sp, lr}^
    1b40:	705f6c61 	subsvc	r6, pc, r1, ror #24
    1b44:	00737475 	rsbseq	r7, r3, r5, ror r4
    1b48:	69726573 	ldmdbvs	r2!, {r0, r1, r4, r5, r6, r8, sl, sp, lr}^
    1b4c:	705f6c61 	subsvc	r6, pc, r1, ror #24
    1b50:	5f737475 	svcpl	0x00737475
    1b54:	6d6d6f6e 	stclvs	15, cr6, [sp, #-440]!	; 0xfffffe48
    1b58:	65730075 	ldrbvs	r0, [r3, #-117]!	; 0x75
    1b5c:	6c616972 	stclvs	9, cr6, [r1], #-456	; 0xfffffe38
    1b60:	7475705f 	ldrbtvc	r7, [r5], #-95	; 0x5f
    1b64:	6168635f 	cmnvs	r8, pc, asr r3
    1b68:	6f6e5f72 	svcvs	0x006e5f72
    1b6c:	00756d6d 	rsbseq	r6, r5, sp, ror #26
    1b70:	74726175 	ldrbtvc	r6, [r2], #-373	; 0x175
    1b74:	6970675f 	ldmdbvs	r0!, {r0, r1, r2, r3, r4, r6, r8, r9, sl, sp, lr}^
    1b78:	616d5f6f 	cmnvs	sp, pc, ror #30
    1b7c:	73006b73 	movwvc	r6, #2931	; 0xb73
    1b80:	61697265 	cmnvs	r9, r5, ror #4
    1b84:	75705f6c 	ldrbvc	r5, [r0, #-3948]!	; 0xf6c
    1b88:	68635f74 	stmdavs	r3!, {r2, r4, r5, r6, r8, r9, sl, fp, ip, lr}^
    1b8c:	70007261 	andvc	r7, r0, r1, ror #4
    1b90:	6b6c6332 	blvs	1b1a860 <__standby_start+0x1b1a860>
    1b94:	63616200 	cmnvs	r1, #0
    1b98:	5f70756b 	svcpl	0x0070756b
    1b9c:	74726f70 	ldrbtvc	r6, [r2], #-3952	; 0xf70
    1ba0:	0064695f 	rsbeq	r6, r4, pc, asr r9
    1ba4:	69726573 	ldmdbvs	r2!, {r0, r1, r4, r5, r6, r8, sl, sp, lr}^
    1ba8:	695f6c61 	ldmdbvs	pc, {r0, r5, r6, sl, fp, sp, lr}^	; <UNPREDICTABLE>
    1bac:	6574696e 	ldrbvs	r6, [r4, #-2414]!	; 0x96e
    1bb0:	6c665f64 	stclvs	15, cr5, [r6], #-400	; 0xfffffe70
    1bb4:	63006761 	movwvs	r6, #1889	; 0x761
    1bb8:	725f7563 	subsvc	r7, pc, #415236096	; 0x18c00000
    1bbc:	73006765 	movwvc	r6, #1893	; 0x765
    1bc0:	61697265 	cmnvs	r9, r5, ror #4
    1bc4:	6e695f6c 	cdpvs	15, 6, cr5, cr9, cr12, {3}
    1bc8:	6d5f7469 	cfldrdvs	mvd7, [pc, #-420]	; 1a2c <__standby_start+0x1a2c>
    1bcc:	67616e61 	strbvs	r6, [r1, -r1, ror #28]!
    1bd0:	6d007265 	sfmvs	f7, 4, [r0, #-404]	; 0xfffffe6c
    1bd4:	665f756d 	ldrbvs	r7, [pc], -sp, ror #10
    1bd8:	0067616c 	rsbeq	r6, r7, ip, ror #2
    1bdc:	69726573 	ldmdbvs	r2!, {r0, r1, r4, r5, r6, r8, sl, sp, lr}^
    1be0:	655f6c61 	ldrbvs	r6, [pc, #-3169]	; f87 <__standby_start+0xf87>
    1be4:	5f746978 	svcpl	0x00746978
    1be8:	616e616d 	cmnvs	lr, sp, ror #2
    1bec:	00726567 	rsbseq	r6, r2, r7, ror #10
    1bf0:	69726573 	ldmdbvs	r2!, {r0, r1, r4, r5, r6, r8, sl, sp, lr}^
    1bf4:	675f6c61 	ldrbvs	r6, [pc, -r1, ror #24]
    1bf8:	5f737465 	svcpl	0x00737465
    1bfc:	6d6d6f6e 	stclvs	15, cr6, [sp, #-440]!	; 0xfffffe48
    1c00:	61620075 	smcvs	8197	; 0x2005
    1c04:	70756b63 	rsbsvc	r6, r5, r3, ror #22
    1c08:	7563635f 	strbvc	r6, [r3, #-863]!	; 0x35f
    1c0c:	7261755f 	rsbvc	r7, r1, #398458880	; 0x17c00000
    1c10:	65725f74 	ldrbvs	r5, [r2, #-3956]!	; 0xf74
    1c14:	00746573 	rsbseq	r6, r4, r3, ror r5
    1c18:	68637261 	stmdavs	r3!, {r0, r5, r6, r9, ip, sp, lr}^
    1c1c:	6d72612f 	ldfvse	f6, [r2, #-188]!	; 0xffffff44
    1c20:	63616d2f 	cmnvs	r1, #3008	; 0xbc0
    1c24:	75732d68 	ldrbvc	r2, [r3, #-3432]!	; 0xd68
    1c28:	2f69786e 	svccs	0x0069786e
    1c2c:	732f6d70 	teqvc	pc, #7168	; 0x1c00
    1c30:	646e6174 	strbtvs	r6, [lr], #-372	; 0x174
    1c34:	2e2f7962 	cdpcs	9, 2, cr7, cr15, cr2, {3}
    1c38:	2f2e2e2f 	svccs	0x002e2e2f
    1c3c:	5f6d656d 	svcpl	0x006d656d
    1c40:	69726573 	ldmdbvs	r2!, {r0, r1, r4, r5, r6, r8, sl, sp, lr}^
    1c44:	632e6c61 	teqvs	lr, #24832	; 0x6100
    1c48:	62706100 	rsbsvs	r6, r0, #0
    1c4c:	65725f32 	ldrbvs	r5, [r2, #-3890]!	; 0xf32
    1c50:	65730067 	ldrbvs	r0, [r3, #-103]!	; 0x67
    1c54:	6c616972 	stclvs	9, cr6, [r1], #-456	; 0xfffffe38
    1c58:	7465675f 	strbtvc	r6, [r5], #-1887	; 0x75f
    1c5c:	6168635f 	cmnvs	r8, pc, asr r3
    1c60:	6f6e5f72 	svcvs	0x006e5f72
    1c64:	00756d6d 	rsbseq	r6, r5, sp, ror #26
    1c68:	69726573 	ldmdbvs	r2!, {r0, r1, r4, r5, r6, r8, sl, sp, lr}^
    1c6c:	655f6c61 	ldrbvs	r6, [pc, #-3169]	; 1013 <__standby_start+0x1013>
    1c70:	00746978 	rsbseq	r6, r4, r8, ror r9
    1c74:	6b636162 	blvs	18da204 <__standby_start+0x18da204>
    1c78:	635f7075 	cmpvs	pc, #117	; 0x75
    1c7c:	755f7563 	ldrbvc	r7, [pc, #-1379]	; 1721 <__standby_start+0x1721>
    1c80:	00747261 	rsbseq	r7, r4, r1, ror #4
    1c84:	616f7475 	smcvs	63301	; 0xf745
    1c88:	7a697300 	bvc	1a5e890 <__standby_start+0x1a5e890>
    1c8c:	00745f65 	rsbseq	r5, r4, r5, ror #30
    1c90:	63727370 	cmnvs	r2, #-1073741823	; 0xc0000001
    1c94:	726f6600 	rsbvc	r6, pc, #0
    1c98:	0074616d 	rsbseq	r6, r4, sp, ror #2
    1c9c:	6c6c6966 	stclvs	9, cr6, [ip], #-408	; 0xfffffe68
    1ca0:	0068635f 	rsbeq	r6, r8, pc, asr r3
    1ca4:	61765f5f 	cmnvs	r6, pc, asr pc
    1ca8:	73696c5f 	cmnvc	r9, #24320	; 0x5f00
    1cac:	65640074 	strbvs	r0, [r4, #-116]!	; 0x74
    1cb0:	67677562 	strbvs	r7, [r7, -r2, ror #10]!
    1cb4:	625f7265 	subsvs	r7, pc, #1342177286	; 0x50000006
    1cb8:	65666675 	strbvs	r6, [r6, #-1653]!	; 0x675
    1cbc:	656e0072 	strbvs	r0, [lr, #-114]!	; 0x72
    1cc0:	69746167 	ldmdbvs	r4!, {r0, r1, r2, r5, r6, r8, sp, lr}^
    1cc4:	70006576 	andvc	r6, r0, r6, ror r5
    1cc8:	746e6972 	strbtvc	r6, [lr], #-2418	; 0x972
    1ccc:	7469006b 	strbtvc	r0, [r9], #-107	; 0x6b
    1cd0:	7300616f 	movwvc	r6, #367	; 0x16f
    1cd4:	6b636174 	blvs	18da2ac <__standby_start+0x18da2ac>
    1cd8:	67726100 	ldrbvs	r6, [r2, -r0, lsl #2]!
    1cdc:	61720073 	cmnvs	r2, r3, ror r0
    1ce0:	00786964 	rsbseq	r6, r8, r4, ror #18
    1ce4:	70615f5f 	rsbvc	r5, r1, pc, asr pc
    1ce8:	72747300 	rsbsvc	r7, r4, #0
    1cec:	006e656c 	rsbeq	r6, lr, ip, ror #10
    1cf0:	69676964 	stmdbvs	r7!, {r2, r5, r6, r8, fp, sp, lr}^
    1cf4:	74735f74 	ldrbtvc	r5, [r3], #-3956	; 0xf74
    1cf8:	676e6972 			; <UNDEFINED> instruction: 0x676e6972
    1cfc:	72747300 	rsbsvc	r7, r4, #0
    1d00:	00797063 	rsbseq	r7, r9, r3, rrx
    1d04:	73656470 	cmnvc	r5, #1879048192	; 0x70000000
    1d08:	72700074 	rsbsvc	r0, r0, #116	; 0x74
    1d0c:	5f746e69 	svcpl	0x00746e69
    1d10:	67696c61 	strbvs	r6, [r9, -r1, ror #24]!
    1d14:	7270006e 	rsbsvc	r0, r0, #110	; 0x6e
    1d18:	6b746e69 	blvs	1d1d6c4 <__standby_start+0x1d1d6c4>
    1d1c:	6d6f6e5f 	stclvs	14, cr6, [pc, #-380]!	; 1ba8 <__standby_start+0x1ba8>
    1d20:	5f00756d 	svcpl	0x0000756d
    1d24:	756e675f 	strbvc	r6, [lr, #-1887]!	; 0x75f
    1d28:	61765f63 	cmnvs	r6, r3, ror #30
    1d2c:	73696c5f 	cmnvc	r9, #24320	; 0x5f00
    1d30:	72610074 	rsbvc	r0, r1, #116	; 0x74
    1d34:	612f6863 	teqvs	pc, r3, ror #16
    1d38:	6d2f6d72 	stcvs	13, cr6, [pc, #-456]!	; 1b78 <__standby_start+0x1b78>
    1d3c:	2d686361 	stclcs	3, cr6, [r8, #-388]!	; 0xfffffe7c
    1d40:	786e7573 	stmdavc	lr!, {r0, r1, r4, r5, r6, r8, sl, ip, sp, lr}^
    1d44:	6d702f69 	ldclvs	15, cr2, [r0, #-420]!	; 0xfffffe5c
    1d48:	6174732f 	cmnvs	r4, pc, lsr #6
    1d4c:	7962646e 	stmdbvc	r2!, {r1, r2, r3, r5, r6, sl, sp, lr}^
    1d50:	2e2f2e2f 	cdpcs	14, 2, cr2, cr15, cr15, {1}
    1d54:	656d2f2e 	strbvs	r2, [sp, #-3886]!	; 0xf2e
    1d58:	72705f6d 	rsbsvc	r5, r0, #436	; 0x1b4
    1d5c:	6b746e69 	blvs	1d1d708 <__standby_start+0x1d1d708>
    1d60:	7300632e 	movwvc	r6, #814	; 0x32e
    1d64:	636e7274 	cmnvs	lr, #1073741831	; 0x40000007
    1d68:	5f007461 	svcpl	0x00007461
    1d6c:	6d656d5f 	stclvs	13, cr6, [r5, #-380]!	; 0xfffffe84
    1d70:	7669645f 			; <UNDEFINED> instruction: 0x7669645f
    1d74:	6d740030 	ldclvs	0, cr0, [r4, #-192]!	; 0xffffff40
    1d78:	6f755170 	svcvs	0x00755170
    1d7c:	69640074 	stmdbvs	r4!, {r2, r4, r5, r6}^
    1d80:	69736976 	ldmdbvs	r3!, {r1, r2, r4, r5, r6, r8, fp, sp, lr}^
    1d84:	6400726f 	strvs	r7, [r0], #-623	; 0x26f
    1d88:	64697669 	strbtvs	r7, [r9], #-1641	; 0x669
    1d8c:	00646e65 	rsbeq	r6, r4, r5, ror #28
    1d90:	5f776172 	svcpl	0x00776172
    1d94:	5f62696c 	svcpl	0x0062696c
    1d98:	76696475 			; <UNDEFINED> instruction: 0x76696475
    1d9c:	706d7400 	rsbvc	r7, sp, r0, lsl #8
    1da0:	00766944 	rsbseq	r6, r6, r4, asr #18
    1da4:	68637261 	stmdavs	r3!, {r0, r5, r6, r9, ip, sp, lr}^
    1da8:	6d72612f 	ldfvse	f6, [r2, #-188]!	; 0xffffff44
    1dac:	63616d2f 	cmnvs	r1, #3008	; 0xbc0
    1db0:	75732d68 	ldrbvc	r2, [r3, #-3432]!	; 0xd68
    1db4:	2f69786e 	svccs	0x0069786e
    1db8:	732f6d70 	teqvc	pc, #7168	; 0x1c00
    1dbc:	646e6174 	strbtvs	r6, [lr], #-372	; 0x174
    1dc0:	2e2f7962 	cdpcs	9, 2, cr7, cr15, cr2, {3}
    1dc4:	2f2e2e2f 	svccs	0x002e2e2f
    1dc8:	5f6d656d 	svcpl	0x006d656d
    1dcc:	6c766964 	ldclvs	9, cr6, [r6], #-400	; 0xfffffe70
    1dd0:	2e636269 	cdpcs	2, 6, cr6, cr3, cr9, {3}
    1dd4:	72610063 	rsbvc	r0, r1, #99	; 0x63
    1dd8:	612f6863 	teqvs	pc, r3, ror #16
    1ddc:	6d2f6d72 	stcvs	13, cr6, [pc, #-456]!	; 1c1c <__standby_start+0x1c1c>
    1de0:	2d686361 	stclcs	3, cr6, [r8, #-388]!	; 0xfffffe7c
    1de4:	786e7573 	stmdavc	lr!, {r0, r1, r4, r5, r6, r8, sl, ip, sp, lr}^
    1de8:	6d702f69 	ldclvs	15, cr2, [r0, #-420]!	; 0xfffffe5c
    1dec:	6174732f 	cmnvs	r4, pc, lsr #6
    1df0:	7962646e 	stmdbvc	r2!, {r1, r2, r3, r5, r6, sl, sp, lr}^
    1df4:	2e2f2e2f 	cdpcs	14, 2, cr2, cr15, cr15, {1}
    1df8:	656d2f2e 	strbvs	r2, [sp, #-3886]!	; 0xf2e
    1dfc:	6e695f6d 	cdpvs	15, 6, cr5, cr9, cr13, {3}
    1e00:	00632e74 	rsbeq	r2, r3, r4, ror lr
    1e04:	75736572 	ldrbvc	r6, [r3, #-1394]!	; 0x572
    1e08:	6d00746c 	cfstrsvs	mvf7, [r0, #-432]	; 0xfffffe50
    1e0c:	695f6d65 	ldmdbvs	pc, {r0, r2, r5, r6, r8, sl, fp, sp, lr}^	; <UNPREDICTABLE>
    1e10:	655f746e 	ldrbvs	r7, [pc, #-1134]	; 19aa <__standby_start+0x19aa>
    1e14:	00746978 	rsbseq	r6, r4, r8, ror r9
    1e18:	5f6d656d 	svcpl	0x006d656d
    1e1c:	5f746e69 	svcpl	0x00746e69
    1e20:	74696e69 	strbtvc	r6, [r9], #-3689	; 0xe69
    1e24:	6d656d00 	stclvs	13, cr6, [r5, #-0]
    1e28:	616e655f 	cmnvs	lr, pc, asr r5
    1e2c:	5f656c62 	svcpl	0x00656c62
    1e30:	00746e69 	rsbseq	r6, r4, r9, ror #28
    1e34:	43636947 	cmnmi	r3, #1163264	; 0x11c000
    1e38:	63736944 	cmnvs	r3, #1114112	; 0x110000
    1e3c:	616e6500 	cmnvs	lr, r0, lsl #10
    1e40:	5f656c62 	svcpl	0x00656c62
    1e44:	00746962 	rsbseq	r6, r4, r2, ror #18
    1e48:	53706d74 	cmnpl	r0, #7424	; 0x1d00
    1e4c:	47006372 	smlsdxmi	r0, r2, r3, r6
    1e50:	44446369 	strbmi	r6, [r4], #-873	; 0x369
    1e54:	00637369 	rsbeq	r7, r3, r9, ror #6
    1e58:	5f6d656d 	svcpl	0x006d656d
    1e5c:	72657571 	rsbvc	r7, r5, #473956352	; 0x1c400000
    1e60:	6e695f79 	mcrvs	15, 3, r5, cr9, cr9, {3}
    1e64:	6d740074 	ldclvs	0, cr0, [r4, #-464]!	; 0xfffffe30
    1e68:	70724770 	rsbsvc	r4, r2, r0, ror r7
    1e6c:	6d656d00 	stclvs	13, cr6, [r5, #-0]
    1e70:	6970675f 	ldmdbvs	r0!, {r0, r1, r2, r3, r4, r6, r8, r9, sl, sp, lr}^
    1e74:	65725f6f 	ldrbvs	r5, [r2, #-3951]!	; 0xf6f
    1e78:	726f7473 	rsbvc	r7, pc, #1929379840	; 0x73000000
    1e7c:	72610065 	rsbvc	r0, r1, #101	; 0x65
    1e80:	612f6863 	teqvs	pc, r3, ror #16
    1e84:	6d2f6d72 	stcvs	13, cr6, [pc, #-456]!	; 1cc4 <__standby_start+0x1cc4>
    1e88:	2d686361 	stclcs	3, cr6, [r8, #-388]!	; 0xfffffe7c
    1e8c:	786e7573 	stmdavc	lr!, {r0, r1, r4, r5, r6, r8, sl, ip, sp, lr}^
    1e90:	6d702f69 	ldclvs	15, cr2, [r0, #-420]!	; 0xfffffe5c
    1e94:	6174732f 	cmnvs	r4, pc, lsr #6
    1e98:	7962646e 	stmdbvc	r2!, {r1, r2, r3, r5, r6, sl, sp, lr}^
    1e9c:	2e2f2e2f 	cdpcs	14, 2, cr2, cr15, cr15, {1}
    1ea0:	656d2f2e 	strbvs	r2, [sp, #-3886]!	; 0xf2e
    1ea4:	70675f6d 	rsbvc	r5, r7, sp, ror #30
    1ea8:	632e6f69 	teqvs	lr, #420	; 0x1a4
    1eac:	70677000 	rsbvc	r7, r7, r0
    1eb0:	735f6f69 	cmpvc	pc, #420	; 0x1a4
    1eb4:	65746174 	ldrbvs	r6, [r4, #-372]!	; 0x174
    1eb8:	6e6f6300 	cdpvs	3, 6, cr6, cr15, cr0, {0}
    1ebc:	5f676966 	svcpl	0x00676966
    1ec0:	6f697067 	svcvs	0x00697067
    1ec4:	6b6c635f 	blvs	1b1ac48 <__standby_start+0x1b1ac48>
    1ec8:	69706700 	ldmdbvs	r0!, {r8, r9, sl, sp, lr}^
    1ecc:	6c635f6f 	stclvs	15, cr5, [r3], #-444	; 0xfffffe44
    1ed0:	6e695f6b 	cdpvs	15, 6, cr5, cr9, cr11, {3}
    1ed4:	64657469 	strbtvs	r7, [r5], #-1129	; 0x469
    1ed8:	69706700 	ldmdbvs	r0!, {r8, r9, sl, sp, lr}^
    1edc:	65725f6f 	ldrbvs	r5, [r2, #-3951]!	; 0xf6f
    1ee0:	61625f67 	cmnvs	r2, r7, ror #30
    1ee4:	6d006b63 	vstrvs	d6, [r0, #-396]	; 0xfffffe74
    1ee8:	675f6d65 	ldrbvs	r6, [pc, -r5, ror #26]
    1eec:	5f6f6970 	svcpl	0x006f6970
    1ef0:	65766173 	ldrbvs	r6, [r6, #-371]!	; 0x173
    1ef4:	69706700 	ldmdbvs	r0!, {r8, r9, sl, sp, lr}^
    1ef8:	70615f6f 	rsbvc	r5, r1, pc, ror #30
    1efc:	675f3062 	ldrbvs	r3, [pc, -r2, rrx]
    1f00:	6e697461 	cdpvs	4, 6, cr7, cr9, cr1, {3}
    1f04:	65725f67 	ldrbvs	r5, [r2, #-3943]!	; 0xf67
    1f08:	44570067 	ldrbmi	r0, [r7], #-103	; 0x67
    1f0c:	5f31676f 	svcpl	0x0031676f
    1f10:	5f717249 	svcpl	0x00717249
    1f14:	00617453 	rsbeq	r7, r1, r3, asr r4
    1f18:	31737641 	cmncc	r3, r1, asr #12
    1f1c:	00746e43 	rsbseq	r6, r4, r3, asr #28
    1f20:	43746e49 	cmnmi	r4, #1168	; 0x490
    1f24:	54006c74 	strpl	r6, [r0], #-3188	; 0xc74
    1f28:	4930726d 	ldmdbmi	r0!, {r0, r2, r3, r5, r6, r9, ip, sp, lr}
    1f2c:	6156746e 	cmpvs	r6, lr, ror #8
    1f30:	4457006c 	ldrbmi	r0, [r7], #-108	; 0x6c
    1f34:	5f31676f 	svcpl	0x0031676f
    1f38:	6c727443 	cfldrdvs	mvd7, [r2], #-268	; 0xfffffef4
    1f3c:	6765525f 			; <UNDEFINED> instruction: 0x6765525f
    1f40:	6d656d00 	stclvs	13, cr6, [r5, #-0]
    1f44:	726d745f 	rsbvc	r7, sp, #1593835520	; 0x5f000000
    1f48:	7465735f 	strbtvc	r7, [r5], #-863	; 0x35f
    1f4c:	726d5400 	rsbvc	r5, sp, #0
    1f50:	6c744331 	ldclvs	3, cr4, [r4], #-196	; 0xffffff3c
    1f54:	726d5400 	rsbvc	r5, sp, #0
    1f58:	746e4330 	strbtvc	r4, [lr], #-816	; 0x330
    1f5c:	006c6156 	rsbeq	r6, ip, r6, asr r1
    1f60:	35726d54 	ldrbcc	r6, [r2, #-3412]!	; 0xd54
    1f64:	006c7443 	rsbeq	r7, ip, r3, asr #8
    1f68:	32726d54 	rsbscc	r6, r2, #5376	; 0x1500
    1f6c:	56746e49 	ldrbtpl	r6, [r4], -r9, asr #28
    1f70:	5f006c61 	svcpl	0x00006c61
    1f74:	6d656d5f 	stclvs	13, cr6, [r5, #-380]!	; 0xfffffe84
    1f78:	726d745f 	rsbvc	r7, sp, #1593835520	; 0x5f000000
    1f7c:	6765725f 			; <UNDEFINED> instruction: 0x6765725f
    1f80:	5400745f 	strpl	r7, [r0], #-1119	; 0x45f
    1f84:	4332726d 	teqmi	r2, #-805306362	; 0xd0000006
    1f88:	6156746e 	cmpvs	r6, lr, ror #8
    1f8c:	6157006c 	cmpvs	r7, ip, rrx
    1f90:	44686374 	strbtmi	r6, [r8], #-884	; 0x374
    1f94:	5f31676f 	svcpl	0x0031676f
    1f98:	5f717249 	svcpl	0x00717249
    1f9c:	425f6e45 	subsmi	r6, pc, #1104	; 0x450
    1fa0:	6d006b61 	vstrvs	d6, [r0, #-388]	; 0xfffffe7c
    1fa4:	745f6d65 	ldrbvc	r6, [pc], #-3429	; 1fac <__standby_start+0x1fac>
    1fa8:	655f726d 	ldrbvs	r7, [pc, #-621]	; 1d43 <__standby_start+0x1d43>
    1fac:	00746978 	rsbseq	r6, r4, r8, ror r9
    1fb0:	34726d54 	ldrbtcc	r6, [r2], #-3412	; 0xd54
    1fb4:	56746e49 	ldrbtpl	r6, [r4], -r9, asr #28
    1fb8:	54006c61 	strpl	r6, [r0], #-3169	; 0xc61
    1fbc:	4334726d 	teqmi	r4, #-805306362	; 0xd0000006
    1fc0:	6156746e 	cmpvs	r6, lr, ror #8
    1fc4:	6157006c 	cmpvs	r7, ip, rrx
    1fc8:	44686374 	strbtmi	r6, [r8], #-884	; 0x374
    1fcc:	5f31676f 	svcpl	0x0031676f
    1fd0:	666e6f43 	strbtvs	r6, [lr], -r3, asr #30
    1fd4:	525f6769 	subspl	r6, pc, #27525120	; 0x1a40000
    1fd8:	425f6765 	subsmi	r6, pc, #26476544	; 0x1940000
    1fdc:	72006b61 	andvc	r6, r0, #99328	; 0x18400
    1fe0:	72657365 	rsbvc	r7, r5, #-1811939327	; 0x94000001
    1fe4:	38646576 	stmdacc	r4!, {r1, r2, r4, r5, r6, r8, sl, sp, lr}^
    1fe8:	726d5400 	rsbvc	r5, sp, #0
    1fec:	6c744332 	ldclvs	3, cr4, [r4], #-200	; 0xffffff38
    1ff0:	6f445700 	svcvs	0x00445700
    1ff4:	4d5f3167 	ldfmie	f3, [pc, #-412]	; 1e60 <__standby_start+0x1e60>
    1ff8:	5f65646f 	svcpl	0x0065646f
    1ffc:	00676552 	rsbeq	r6, r7, r2, asr r5
    2000:	63746157 	cmnvs	r4, #-1073741803	; 0xc0000015
    2004:	676f4468 	strbvs	r4, [pc, -r8, ror #8]!
    2008:	6f4d5f31 	svcvs	0x004d5f31
    200c:	65525f64 	ldrbvs	r5, [r2, #-3940]	; 0xf64
    2010:	61425f67 	cmpvs	r2, r7, ror #30
    2014:	656d006b 	strbvs	r0, [sp, #-107]!	; 0x6b
    2018:	6d745f6d 	ldclvs	15, cr5, [r4, #-436]!	; 0xfffffe4c
    201c:	6e655f72 	mcrvs	15, 3, r5, cr5, cr2, {3}
    2020:	656c6261 	strbvs	r6, [ip, #-609]!	; 0x261
    2024:	7461775f 	strbtvc	r7, [r1], #-1887	; 0x75f
    2028:	6f646863 	svcvs	0x00646863
    202c:	656d0067 	strbvs	r0, [sp, #-103]!	; 0x67
    2030:	6d745f6d 	ldclvs	15, cr5, [r4, #-436]!	; 0xfffffe4c
    2034:	6e695f72 	mcrvs	15, 3, r5, cr9, cr2, {3}
    2038:	57007469 	strpl	r7, [r0, -r9, ror #8]
    203c:	31676f44 	cmncc	r7, r4, asr #30
    2040:	7172495f 	cmnvc	r2, pc, asr r9
    2044:	006e455f 	rsbeq	r4, lr, pc, asr r5
    2048:	6f636573 	svcvs	0x00636573
    204c:	6d00646e 	cfstrsvs	mvf6, [r0, #-440]	; 0xfffffe48
    2050:	745f6d65 	ldrbvc	r6, [pc], #-3429	; 2058 <__standby_start+0x2058>
    2054:	725f726d 	subsvc	r7, pc, #-805306362	; 0xd0000006
    2058:	6f747365 	svcvs	0x00747365
    205c:	5f006572 	svcpl	0x00006572
    2060:	4d454d5f 	stclmi	13, cr4, [r5, #-380]	; 0xfffffe84
    2064:	524d545f 	subpl	r5, sp, #1593835520	; 0x5f000000
    2068:	4745525f 	smlsldmi	r5, r5, pc, r2	; <UNPREDICTABLE>
    206c:	6d656d00 	stclvs	13, cr6, [r5, #-0]
    2070:	726d745f 	rsbvc	r7, sp, #1593835520	; 0x5f000000
    2074:	7369645f 	cmnvc	r9, #1593835520	; 0x5f000000
    2078:	656c6261 	strbvs	r6, [ip, #-609]!	; 0x261
    207c:	7461775f 	strbtvc	r7, [r1], #-1887	; 0x75f
    2080:	6f646863 	svcvs	0x00646863
    2084:	6d540067 	ldclvs	0, cr0, [r4, #-412]	; 0xfffffe64
    2088:	6e493572 	mcrvs	5, 2, r3, cr9, cr2, {3}
    208c:	6c615674 	stclvs	6, cr5, [r1], #-464	; 0xfffffe30
    2090:	726d5400 	rsbvc	r5, sp, #0
    2094:	746e4931 	strbtvc	r4, [lr], #-2353	; 0x931
    2098:	006c6156 	rsbeq	r6, ip, r6, asr r1
    209c:	726d7470 	rsbvc	r7, sp, #1879048192	; 0x70000000
    20a0:	6174735f 	cmnvs	r4, pc, asr r3
    20a4:	41006574 	tstmi	r0, r4, ror r5
    20a8:	69447376 	stmdbvs	r4, {r1, r2, r4, r5, r6, r8, r9, ip, sp, lr}^
    20ac:	6d540076 	ldclvs	0, cr0, [r4, #-472]	; 0xfffffe28
    20b0:	74433372 	strbvc	r3, [r3], #-882	; 0x372
    20b4:	7641006c 	strbvc	r0, [r1], -ip, rrx
    20b8:	6c744373 	ldclvs	3, cr4, [r4], #-460	; 0xfffffe34
    20bc:	746e4900 	strbtvc	r4, [lr], #-2304	; 0x900
    20c0:	00617453 	rsbeq	r7, r1, r3, asr r4
    20c4:	31726d54 	cmncc	r2, r4, asr sp
    20c8:	56746e43 	ldrbtpl	r6, [r4], -r3, asr #28
    20cc:	54006c61 	strpl	r6, [r0], #-3169	; 0xc61
    20d0:	4933726d 	ldmdbmi	r3!, {r0, r2, r3, r5, r6, r9, ip, sp, lr}
    20d4:	6156746e 	cmpvs	r6, lr, ror #8
    20d8:	4457006c 	ldrbmi	r0, [r7], #-108	; 0x6c
    20dc:	5f31676f 	svcpl	0x0031676f
    20e0:	5f676643 	svcpl	0x00676643
    20e4:	00676552 	rsbeq	r6, r7, r2, asr r5
    20e8:	30737641 	rsbscc	r7, r3, r1, asr #12
    20ec:	00746e43 	rsbseq	r6, r4, r3, asr #28
    20f0:	68637261 	stmdavs	r3!, {r0, r5, r6, r9, ip, sp, lr}^
    20f4:	6d72612f 	ldfvse	f6, [r2, #-188]!	; 0xffffff44
    20f8:	63616d2f 	cmnvs	r1, #3008	; 0xbc0
    20fc:	75732d68 	ldrbvc	r2, [r3, #-3432]!	; 0xd68
    2100:	2f69786e 	svccs	0x0069786e
    2104:	732f6d70 	teqvc	pc, #7168	; 0x1c00
    2108:	646e6174 	strbtvs	r6, [lr], #-372	; 0x174
    210c:	2e2f7962 	cdpcs	9, 2, cr7, cr15, cr2, {3}
    2110:	2f2e2e2f 	svccs	0x002e2e2f
    2114:	5f6d656d 	svcpl	0x006d656d
    2118:	2e726d74 	mrccs	13, 3, r6, cr2, cr4, {3}
    211c:	6d540063 	ldclvs	0, cr0, [r4, #-396]	; 0xfffffe74
    2120:	6e433572 	mcrvs	5, 2, r3, cr3, cr2, {3}
    2124:	6c615674 	stclvs	6, cr5, [r1], #-464	; 0xfffffe30
    2128:	726d5400 	rsbvc	r5, sp, #0
    212c:	00676552 	rsbeq	r6, r7, r2, asr r5
    2130:	30726d54 	rsbscc	r6, r2, r4, asr sp
    2134:	006c7443 	rsbeq	r7, ip, r3, asr #8
    2138:	34726d54 	ldrbtcc	r6, [r2], #-3412	; 0xd54
    213c:	006c7443 	rsbeq	r7, ip, r3, asr #8
    2140:	5f6d656d 	svcpl	0x006d656d
    2144:	5f726d74 	svcpl	0x00726d74
    2148:	65766173 	ldrbvs	r6, [r6, #-371]!	; 0x173
    214c:	756c4300 	strbvc	r4, [ip, #-768]!	; 0x300
    2150:	72657473 	rsbvc	r7, r5, #1929379840	; 0x73000000
    2154:	72744330 	rsbsvc	r4, r4, #-1073741824	; 0xc0000000
    2158:	6765526c 	strbvs	r5, [r5, -ip, ror #4]!
    215c:	656d0031 	strbvs	r0, [sp, #-49]!	; 0x31
    2160:	6d745f6d 	ldclvs	15, cr5, [r4, #-436]!	; 0xfffffe4c
    2164:	706d7473 	rsbvc	r7, sp, r3, ror r4
    2168:	7661735f 			; <UNDEFINED> instruction: 0x7661735f
    216c:	656d0065 	strbvs	r0, [sp, #-101]!	; 0x65
    2170:	6d745f6d 	ldclvs	15, cr5, [r4, #-436]!	; 0xfffffe4c
    2174:	706d7473 	rsbvc	r7, sp, r3, ror r4
    2178:	7365725f 	cmnvc	r5, #-268435451	; 0xf0000005
    217c:	65726f74 	ldrbvs	r6, [r2, #-3956]!	; 0xf74
    2180:	63726100 	cmnvs	r2, #0
    2184:	72612f68 	rsbvc	r2, r1, #416	; 0x1a0
    2188:	616d2f6d 	cmnvs	sp, sp, ror #30
    218c:	732d6863 	teqvc	sp, #6488064	; 0x630000
    2190:	69786e75 	ldmdbvs	r8!, {r0, r2, r4, r5, r6, r9, sl, fp, sp, lr}^
    2194:	2f6d702f 	svccs	0x006d702f
    2198:	6e617473 	mcrvs	4, 3, r7, cr1, cr3, {3}
    219c:	2f796264 	svccs	0x00796264
    21a0:	2e2e2f2e 	cdpcs	15, 2, cr2, cr14, cr14, {1}
    21a4:	6d656d2f 	stclvs	13, cr6, [r5, #-188]!	; 0xffffff44
    21a8:	736d745f 	cmnvc	sp, #1593835520	; 0x5f000000
    21ac:	2e706d74 	mrccs	13, 3, r6, cr0, cr4, {3}
    21b0:	6d540063 	ldclvs	0, cr0, [r4, #-396]	; 0xfffffe74
    21b4:	706d7473 	rsbvc	r7, sp, r3, ror r4
    21b8:	00676552 	rsbeq	r6, r7, r2, asr r5
    21bc:	656d5f5f 	strbvs	r5, [sp, #-3935]!	; 0xf5f
    21c0:	6d745f6d 	ldclvs	15, cr5, [r4, #-436]!	; 0xfffffe4c
    21c4:	706d7473 	rsbvc	r7, sp, r3, ror r4
    21c8:	6765725f 			; <UNDEFINED> instruction: 0x6765725f
    21cc:	7000745f 	andvc	r7, r0, pc, asr r4
    21d0:	74736d74 	ldrbtvc	r6, [r3], #-3444	; 0xd74
    21d4:	735f706d 	cmpvc	pc, #109	; 0x6d
    21d8:	65746174 	ldrbvs	r6, [r4, #-372]!	; 0x174
    21dc:	4d5f5f00 	ldclmi	15, cr5, [pc, #-0]	; 21e4 <__standby_start+0x21e4>
    21e0:	545f4d45 	ldrbpl	r4, [pc], #-3397	; 21e8 <__standby_start+0x21e8>
    21e4:	4d54534d 	ldclmi	3, cr5, [r4, #-308]	; 0xfffffecc
    21e8:	45525f50 	ldrbmi	r5, [r2, #-3920]	; 0xf50
    21ec:	72610047 	rsbvc	r0, r1, #71	; 0x47
    21f0:	612f6863 	teqvs	pc, r3, ror #16
    21f4:	6d2f6d72 	stcvs	13, cr6, [pc, #-456]!	; 2034 <__standby_start+0x2034>
    21f8:	2d686361 	stclcs	3, cr6, [r8, #-388]!	; 0xfffffe7c
    21fc:	786e7573 	stmdavc	lr!, {r0, r1, r4, r5, r6, r8, sl, ip, sp, lr}^
    2200:	6d702f69 	ldclvs	15, cr2, [r0, #-420]!	; 0xfffffe5c
    2204:	6174732f 	cmnvs	r4, pc, lsr #6
    2208:	7962646e 	stmdbvc	r2!, {r1, r2, r3, r5, r6, sl, sp, lr}^
    220c:	2e2f2e2f 	cdpcs	14, 2, cr2, cr15, cr15, {1}
    2210:	656d2f2e 	strbvs	r2, [sp, #-3886]!	; 0xf2e
    2214:	6c635f6d 	stclvs	15, cr5, [r3], #-436	; 0xfffffe4c
    2218:	00632e6b 	rsbeq	r2, r3, fp, ror #28
    221c:	5f6d656d 	svcpl	0x006d656d
    2220:	5f6b6c63 	svcpl	0x006b6c63
    2224:	5f746567 	svcpl	0x00746567
    2228:	6373696d 	cmnvs	r3, #1785856	; 0x1b4000
    222c:	69786100 	ldmdbvs	r8!, {r8, sp, lr}^
    2230:	7669645f 			; <UNDEFINED> instruction: 0x7669645f
    2234:	6d656d00 	stclvs	13, cr6, [r5, #-0]
    2238:	6b6c635f 	blvs	1b1afbc <__standby_start+0x1b1afbc>
    223c:	696e695f 	stmdbvs	lr!, {r0, r1, r2, r3, r4, r6, r8, fp, sp, lr}^
    2240:	656d0074 	strbvs	r0, [sp, #-116]!	; 0x74
    2244:	6c635f6d 	stclvs	15, cr5, [r3], #-436	; 0xfffffe4c
    2248:	65735f6b 	ldrbvs	r5, [r3, #-3947]!	; 0xf6b
    224c:	696d5f74 	stmdbvs	sp!, {r2, r4, r5, r6, r8, r9, sl, fp, ip, lr}^
    2250:	50006373 	andpl	r6, r0, r3, ror r3
    2254:	435f6c6c 	cmpmi	pc, #27648	; 0x6c00
    2258:	69425f31 	stmdbvs	r2, {r0, r4, r5, r8, r9, sl, fp, ip, lr}^
    225c:	6d007361 	stcvs	3, cr7, [r0, #-388]	; 0xfffffe7c
    2260:	635f6d65 	cmpvs	pc, #6464	; 0x1940
    2264:	735f6b6c 	cmpvc	pc, #110592	; 0x1b000
    2268:	705f7465 	subsvc	r7, pc, r5, ror #8
    226c:	665f6c6c 	ldrbvs	r6, [pc], -ip, ror #24
    2270:	6f746361 	svcvs	0x00746361
    2274:	656d0072 	strbvs	r0, [sp, #-114]!	; 0x72
    2278:	6c635f6d 	stclvs	15, cr5, [r3], #-436	; 0xfffffe4c
    227c:	65675f6b 	strbvs	r5, [r7, #-3947]!	; 0xf6b
    2280:	70635f74 	rsbvc	r5, r3, r4, ror pc
    2284:	72665f75 	rsbvc	r5, r6, #468	; 0x1d4
    2288:	46007165 	strmi	r7, [r0], -r5, ror #2
    228c:	6f746361 	svcvs	0x00746361
    2290:	6d004b72 	vstrvs	d4, [r0, #-456]	; 0xfffffe38
    2294:	635f6d65 	cmpvs	pc, #6464	; 0x1940
    2298:	675f6b6c 	ldrbvs	r6, [pc, -ip, ror #22]
    229c:	69647465 	stmdbvs	r4!, {r0, r2, r5, r6, sl, ip, sp, lr}^
    22a0:	6c630076 	stclvs	0, cr0, [r3], #-472	; 0xfffffe28
    22a4:	69645f6b 	stmdbvs	r4!, {r0, r1, r3, r5, r6, r8, r9, sl, fp, ip, lr}^
    22a8:	68610076 	stmdavs	r1!, {r1, r2, r4, r5, r6}^
    22ac:	70615f62 	rsbvc	r5, r1, r2, ror #30
    22b0:	69645f62 	stmdbvs	r4!, {r1, r5, r6, r8, r9, sl, fp, ip, lr}^
    22b4:	6c700076 	ldclvs	0, cr0, [r0], #-472	; 0xfffffe28
    22b8:	745f316c 	ldrbvc	r3, [pc], #-364	; 22c0 <__standby_start+0x22c0>
    22bc:	63006e75 	movwvs	r6, #3701	; 0xe75
    22c0:	725f7563 	subsvc	r7, pc, #415236096	; 0x18c00000
    22c4:	625f6765 	subsvs	r6, pc, #26476544	; 0x1940000
    22c8:	006b6361 	rsbeq	r6, fp, r1, ror #6
    22cc:	5f6d656d 	svcpl	0x006d656d
    22d0:	5f6b6c63 	svcpl	0x006b6c63
    22d4:	5f746567 	svcpl	0x00746567
    22d8:	5f6c6c70 	svcpl	0x006c6c70
    22dc:	74636166 	strbtvc	r6, [r3], #-358	; 0x166
    22e0:	6d00726f 	sfmvs	f7, 4, [r0, #-444]	; 0xfffffe44
    22e4:	635f6d65 	cmpvs	pc, #6464	; 0x1940
    22e8:	735f6b6c 	cmpvc	pc, #110592	; 0x1b000
    22ec:	00657661 	rsbeq	r7, r5, r1, ror #12
    22f0:	5f6b6c63 	svcpl	0x006b6c63
    22f4:	6373696d 	cmnvs	r3, #1785856	; 0x1b4000
    22f8:	6d656d00 	stclvs	13, cr6, [r5, #-0]
    22fc:	6b6c635f 	blvs	1b1b080 <__standby_start+0x1b1b080>
    2300:	7465735f 	strbtvc	r7, [r5], #-863	; 0x35f
    2304:	00766964 	rsbseq	r6, r6, r4, ror #18
    2308:	5f6c6c70 	svcpl	0x006c6c70
    230c:	74636166 	strbtvc	r6, [r3], #-358	; 0x166
    2310:	745f726f 	ldrbvc	r7, [pc], #-623	; 2318 <__standby_start+0x2318>
    2314:	6d656d00 	stclvs	13, cr6, [r5, #-0]
    2318:	7465675f 	strbtvc	r6, [r5], #-1887	; 0x75f
    231c:	0061625f 	rsbeq	r6, r1, pc, asr r2
    2320:	6b6c6370 	blvs	1b1b0e8 <__standby_start+0x1b1b0e8>
    2324:	6174735f 	cmnvs	r4, pc, asr r3
    2328:	63006574 	movwvs	r6, #1396	; 0x574
    232c:	645f6b6c 	ldrbvs	r6, [pc], #-2924	; 2334 <__standby_start+0x2334>
    2330:	745f7669 	ldrbvc	r7, [pc], #-1641	; 2338 <__standby_start+0x2338>
    2334:	6d656d00 	stclvs	13, cr6, [r5, #-0]
    2338:	6b6c635f 	blvs	1b1b0bc <__standby_start+0x1b1b0bc>
    233c:	7365725f 	cmnvc	r5, #-268435451	; 0xf0000005
    2340:	65726f74 	ldrbvs	r6, [r2, #-3956]!	; 0xf74
    2344:	6b6c6300 	blvs	1b1af4c <__standby_start+0x1b1af4c>
    2348:	73696d5f 	cmnvc	r9, #6080	; 0x17c0
    234c:	00745f63 	rsbseq	r5, r4, r3, ror #30
    2350:	366c6c70 			; <UNDEFINED> instruction: 0x366c6c70
    2354:	6169625f 	cmnvs	r9, pc, asr r2
    2358:	6c700073 	ldclvs	0, cr0, [r0], #-460	; 0xfffffe34
    235c:	625f316c 	subsvs	r3, pc, #27
    2360:	00736169 	rsbseq	r6, r3, r9, ror #2
    2364:	76697270 			; <UNDEFINED> instruction: 0x76697270
    2368:	00657461 	rsbeq	r7, r5, r1, ror #8
    236c:	73697261 	cmnvc	r9, #268435462	; 0x10000006
    2370:	62635f63 	rsbvs	r5, r3, #396	; 0x18c
    2374:	7700745f 	smlsdvc	r0, pc, r4, r7	; <UNPREDICTABLE>
    2378:	75656b61 	strbvc	r6, [r5, #-2913]!	; 0xb61
    237c:	76655f70 	uqsub16vc	r5, r5, r0
    2380:	00746e65 	rsbseq	r6, r4, r5, ror #28
    2384:	73697261 	cmnvc	r9, #268435462	; 0x10000006
    2388:	736d5f63 	cmnvc	sp, #396	; 0x18c
    238c:	62635f67 	rsbvs	r5, r3, #412	; 0x19c
    2390:	61747300 	cmnvs	r4, r0, lsl #6
    2394:	7962646e 	stmdbvc	r2!, {r1, r2, r3, r5, r6, sl, sp, lr}^
    2398:	6972615f 	ldmdbvs	r2!, {r0, r1, r2, r3, r4, r6, r8, sp, lr}^
    239c:	695f6373 	ldmdbvs	pc, {r0, r1, r4, r5, r6, r8, r9, sp, lr}^	; <UNPREDICTABLE>
    23a0:	0074696e 	rsbseq	r6, r4, lr, ror #18
    23a4:	74736572 	ldrbtvc	r6, [r3], #-1394	; 0x572
    23a8:	5f65726f 	svcpl	0x0065726f
    23ac:	706d6f63 	rsbvc	r6, sp, r3, ror #30
    23b0:	6574656c 	ldrbvs	r6, [r4, #-1388]!	; 0x56c
    23b4:	6f6d0064 	svcvs	0x006d0064
    23b8:	68006564 	stmdavs	r0, {r2, r5, r6, r8, sl, sp, lr}
    23bc:	6c646e61 	stclvs	14, cr6, [r4], #-388	; 0xfffffe7c
    23c0:	73007265 	movwvc	r7, #613	; 0x265
    23c4:	646e6174 	strbtvs	r6, [lr], #-372	; 0x174
    23c8:	615f7962 	cmpvs	pc, r2, ror #18
    23cc:	63736972 	cmnvs	r3, #1867776	; 0x1c8000
    23d0:	746f6e5f 	strbtvc	r6, [pc], #-3679	; 23d8 <__standby_start+0x23d8>
    23d4:	5f796669 	svcpl	0x00796669
    23d8:	74736572 	ldrbtvc	r6, [r3], #-1394	; 0x572
    23dc:	0065726f 	rsbeq	r7, r5, pc, ror #4
    23e0:	6e617473 	mcrvs	4, 3, r7, cr1, cr3, {3}
    23e4:	5f796264 	svcpl	0x00796264
    23e8:	73697261 	cmnvc	r9, #268435462	; 0x10000006
    23ec:	78655f63 	stmdavc	r5!, {r0, r1, r5, r6, r8, r9, sl, fp, ip, lr}^
    23f0:	70007469 	andvc	r7, r0, r9, ror #8
    23f4:	7373656d 	cmnvc	r3, #457179136	; 0x1b400000
    23f8:	00656761 	rsbeq	r6, r5, r1, ror #14
    23fc:	73697261 	cmnvc	r9, #268435462	; 0x10000006
    2400:	656d5f63 	strbvs	r5, [sp, #-3939]!	; 0xf63
    2404:	67617373 			; <UNDEFINED> instruction: 0x67617373
    2408:	72610065 	rsbvc	r0, r1, #101	; 0x65
    240c:	5f637369 	svcpl	0x00637369
    2410:	6d617273 	sfmvs	f7, 2, [r1, #-460]!	; 0xfffffe34
    2414:	5f32615f 	svcpl	0x0032615f
    2418:	73616276 	cmnvc	r1, #1610612743	; 0x60000007
    241c:	74730065 	ldrbtvc	r0, [r3], #-101	; 0x65
    2420:	62646e61 	rsbvs	r6, r4, #1552	; 0x610
    2424:	72615f79 	rsbvc	r5, r1, #484	; 0x1e4
    2428:	5f637369 	svcpl	0x00637369
    242c:	63656863 	cmnvs	r5, #6488064	; 0x630000
    2430:	65725f6b 	ldrbvs	r5, [r2, #-3947]!	; 0xf6b
    2434:	726f7473 	rsbvc	r7, pc, #1929379840	; 0x73000000
    2438:	74735f65 	ldrbtvc	r5, [r3], #-3941	; 0xf65
    243c:	73757461 	cmnvc	r5, #1627389952	; 0x61000000
    2440:	72617000 	rsbvc	r7, r1, #0
    2444:	61007361 	tstvs	r0, r1, ror #6
    2448:	2f686372 	svccs	0x00686372
    244c:	2f6d7261 	svccs	0x006d7261
    2450:	6863616d 	stmdavs	r3!, {r0, r2, r3, r5, r6, r8, sp, lr}^
    2454:	6e75732d 	cdpvs	3, 7, cr7, cr5, cr13, {1}
    2458:	702f6978 	eorvc	r6, pc, r8, ror r9	; <UNPREDICTABLE>
    245c:	74732f6d 	ldrbtvc	r2, [r3], #-3949	; 0xf6d
    2460:	62646e61 	rsbvs	r6, r4, #1552	; 0x610
    2464:	2f2e2f79 	svccs	0x002e2f79
    2468:	73697261 	cmnvc	r9, #268435462	; 0x10000006
    246c:	74732f63 	ldrbtvc	r2, [r3], #-3939	; 0xf63
    2470:	62646e61 	rsbvs	r6, r4, #1552	; 0x610
    2474:	72615f79 	rsbvc	r5, r1, #484	; 0x1e4
    2478:	2e637369 	cdpcs	3, 6, cr7, cr3, cr9, {3}
    247c:	74730063 	ldrbtvc	r0, [r3], #-99	; 0x63
    2480:	62646e61 	rsbvs	r6, r4, #1552	; 0x610
    2484:	72615f79 	rsbvc	r5, r1, #484	; 0x1e4
    2488:	5f637369 	svcpl	0x00637369
    248c:	72657571 	rsbvc	r7, r5, #473956352	; 0x1c400000
    2490:	61775f79 	cmnvs	r7, r9, ror pc
    2494:	7075656b 	rsbsvc	r6, r5, fp, ror #10
    2498:	6372735f 	cmnvs	r2, #2080374785	; 0x7c000001
    249c:	61747300 	cmnvs	r4, r0, lsl #6
    24a0:	7962646e 	stmdbvc	r2!, {r1, r2, r3, r5, r6, sl, sp, lr}^
    24a4:	6972615f 	ldmdbvs	r2!, {r0, r1, r2, r3, r4, r6, r8, sp, lr}^
    24a8:	735f6373 	cmpvc	pc, #-872415231	; 0xcc000001
    24ac:	646e6174 	strbtvs	r6, [lr], #-372	; 0x174
    24b0:	6e5f7962 	cdpvs	9, 5, cr7, cr15, cr2, {3}
    24b4:	616d726f 	cmnvs	sp, pc, ror #4
    24b8:	656e006c 	strbvs	r0, [lr, #-108]!	; 0x6c
    24bc:	61007478 	tstvs	r0, r8, ror r4
    24c0:	63736972 	cmnvs	r3, #1867776	; 0x1c8000
    24c4:	6d77685f 	ldclvs	8, cr6, [r7, #-380]!	; 0xfffffe84
    24c8:	6f626773 	svcvs	0x00626773
    24cc:	65735f78 	ldrbvs	r5, [r3, #-3960]!	; 0xf78
    24d0:	6d5f646e 	cfldrdvs	mvd6, [pc, #-440]	; 2320 <__standby_start+0x2320>
    24d4:	61737365 	cmnvs	r3, r5, ror #6
    24d8:	61006567 	tstvs	r0, r7, ror #10
    24dc:	63736972 	cmnvs	r3, #1867776	; 0x1c8000
    24e0:	6d77685f 	ldclvs	8, cr6, [r7, #-380]!	; 0xfffffe84
    24e4:	6f626773 	svcvs	0x00626773
    24e8:	75715f78 	ldrbvc	r5, [r1, #-3960]!	; 0xf78
    24ec:	5f797265 	svcpl	0x00797265
    24f0:	65636572 	strbvs	r6, [r3, #-1394]!	; 0x572
    24f4:	72657669 	rsbvc	r7, r5, #110100480	; 0x6900000
    24f8:	6e65705f 	mcrvs	0, 3, r7, cr5, cr15, {2}
    24fc:	676e6964 	strbvs	r6, [lr, -r4, ror #18]!
    2500:	69726100 	ldmdbvs	r2!, {r8, sp, lr}^
    2504:	685f6373 	ldmdavs	pc, {r0, r1, r4, r5, r6, r8, r9, sp, lr}^	; <UNPREDICTABLE>
    2508:	67736d77 			; <UNDEFINED> instruction: 0x67736d77
    250c:	5f786f62 	svcpl	0x00786f62
    2510:	74697865 	strbtvc	r7, [r9], #-2149	; 0x865
    2514:	5f574100 	svcpl	0x00574100
    2518:	534d5748 	movtpl	r5, #55112	; 0xd748
    251c:	55515f47 	ldrbpl	r5, [r1, #-3911]	; 0xf47
    2520:	5f455545 	svcpl	0x00455545
    2524:	52455355 	subpl	r5, r5, #1409286145	; 0x54000001
    2528:	4952415f 	ldmdbmi	r2, {r0, r1, r2, r3, r4, r6, r8, lr}^
    252c:	61004353 	tstvs	r0, r3, asr r3
    2530:	77685f77 			; <UNDEFINED> instruction: 0x77685f77
    2534:	5f67736d 	svcpl	0x0067736d
    2538:	75657571 	strbvc	r7, [r5, #-1393]!	; 0x571
    253c:	73755f65 	cmnvc	r5, #404	; 0x194
    2540:	61007265 	tstvs	r0, r5, ror #4
    2544:	63736972 	cmnvs	r3, #1867776	; 0x1c8000
    2548:	6d77685f 	ldclvs	8, cr6, [r7, #-380]!	; 0xfffffe84
    254c:	6f626773 	svcvs	0x00626773
    2550:	65665f78 	strbvs	r5, [r6, #-3960]!	; 0xf78
    2554:	61626465 	cmnvs	r2, r5, ror #8
    2558:	6d5f6b63 	vldrvs	d22, [pc, #-396]	; 23d4 <__standby_start+0x23d4>
    255c:	61737365 	cmnvs	r3, r5, ror #6
    2560:	61006567 	tstvs	r0, r7, ror #10
    2564:	63736972 	cmnvs	r3, #1867776	; 0x1c8000
    2568:	73656d5f 	cmnvc	r5, #6080	; 0x17c0
    256c:	65676173 	strbvs	r6, [r7, #-371]!	; 0x173
    2570:	6c61765f 	stclvs	6, cr7, [r1], #-380	; 0xfffffe84
    2574:	71006469 	tstvc	r0, r9, ror #8
    2578:	65756575 	ldrbvs	r6, [r5, #-1397]!	; 0x575
    257c:	69726100 	ldmdbvs	r2!, {r8, sp, lr}^
    2580:	685f6373 	ldmdavs	pc, {r0, r1, r4, r5, r6, r8, r9, sp, lr}^	; <UNPREDICTABLE>
    2584:	67736d77 			; <UNDEFINED> instruction: 0x67736d77
    2588:	5f786f62 	svcpl	0x00786f62
    258c:	74696e69 	strbtvc	r6, [r9], #-3689	; 0xe69
    2590:	63726100 	cmnvs	r2, #0
    2594:	72612f68 	rsbvc	r2, r1, #416	; 0x1a0
    2598:	616d2f6d 	cmnvs	sp, sp, ror #30
    259c:	732d6863 	teqvc	sp, #6488064	; 0x630000
    25a0:	69786e75 	ldmdbvs	r8!, {r0, r2, r4, r5, r6, r9, sl, fp, sp, lr}^
    25a4:	2f6d702f 	svccs	0x006d702f
    25a8:	6e617473 	mcrvs	4, 3, r7, cr1, cr3, {3}
    25ac:	2f796264 	svccs	0x00796264
    25b0:	72612f2e 	rsbvc	r2, r1, #184	; 0xb8
    25b4:	2f637369 	svccs	0x00637369
    25b8:	73697261 	cmnvc	r9, #268435462	; 0x10000006
    25bc:	77685f63 	strbvc	r5, [r8, -r3, ror #30]!
    25c0:	6267736d 	rsbvs	r7, r7, #-1275068415	; 0xb4000001
    25c4:	632e786f 	teqvs	lr, #7274496	; 0x6f0000
    25c8:	69726100 	ldmdbvs	r2!, {r8, sp, lr}^
    25cc:	685f6373 	ldmdavs	pc, {r0, r1, r4, r5, r6, r8, r9, sp, lr}^	; <UNPREDICTABLE>
    25d0:	67736d77 			; <UNDEFINED> instruction: 0x67736d77
    25d4:	5f786f62 	svcpl	0x00786f62
    25d8:	72657571 	rsbvc	r7, r5, #473956352	; 0x1c400000
    25dc:	656d5f79 	strbvs	r5, [sp, #-3961]!	; 0xf79
    25e0:	67617373 			; <UNDEFINED> instruction: 0x67617373
    25e4:	72610065 	rsbvc	r0, r1, #101	; 0x65
    25e8:	5f637369 	svcpl	0x00637369
    25ec:	736d7768 	cmnvc	sp, #27262976	; 0x1a00000
    25f0:	786f6267 	stmdavc	pc!, {r0, r1, r2, r5, r6, r9, sp, lr}^	; <UNPREDICTABLE>
    25f4:	656c635f 	strbvs	r6, [ip, #-863]!	; 0x35f
    25f8:	725f7261 	subsvc	r7, pc, #268435462	; 0x10000006
    25fc:	69656365 	stmdbvs	r5!, {r0, r2, r5, r6, r8, r9, sp, lr}^
    2600:	5f726576 	svcpl	0x00726576
    2604:	646e6570 	strbtvs	r6, [lr], #-1392	; 0x570
    2608:	00676e69 	rsbeq	r6, r7, r9, ror #28
    260c:	73697261 	cmnvc	r9, #268435462	; 0x10000006
    2610:	77685f63 	strbvc	r5, [r8, -r3, ror #30]!
    2614:	6267736d 	rsbvs	r7, r7, #-1275068415	; 0xb4000001
    2618:	655f786f 	ldrbvs	r7, [pc, #-2159]	; 1db1 <__standby_start+0x1db1>
    261c:	6c62616e 	stfvse	f6, [r2], #-440	; 0xfffffe48
    2620:	65725f65 	ldrbvs	r5, [r2, #-3941]!	; 0xf65
    2624:	76696563 	strbtvc	r6, [r9], -r3, ror #10
    2628:	695f7265 	ldmdbvs	pc, {r0, r2, r5, r6, r9, ip, sp, lr}^	; <UNPREDICTABLE>
    262c:	4100746e 	tstmi	r0, lr, ror #8
    2630:	57485f57 	smlsldpl	r5, r8, r7, pc	; <UNPREDICTABLE>
    2634:	5f47534d 	svcpl	0x0047534d
    2638:	55455551 	strbpl	r5, [r5, #-1361]	; 0x551
    263c:	53555f45 	cmppl	r5, #276	; 0x114
    2640:	415f5245 	cmpmi	pc, r5, asr #4
    2644:	37323343 	ldrcc	r3, [r2, -r3, asr #6]!
    2648:	63726100 	cmnvs	r2, #0
    264c:	72612f68 	rsbvc	r2, r1, #416	; 0x1a0
    2650:	616d2f6d 	cmnvs	sp, sp, ror #30
    2654:	732d6863 	teqvc	sp, #6488064	; 0x630000
    2658:	69786e75 	ldmdbvs	r8!, {r0, r2, r4, r5, r6, r9, sl, fp, sp, lr}^
    265c:	2f6d702f 	svccs	0x006d702f
    2660:	6e617473 	mcrvs	4, 3, r7, cr1, cr3, {3}
    2664:	2f796264 	svccs	0x00796264
    2668:	72612f2e 	rsbvc	r2, r1, #184	; 0xb8
    266c:	2f637369 	svccs	0x00637369
    2670:	73697261 	cmnvc	r9, #268435462	; 0x10000006
    2674:	77685f63 	strbvc	r5, [r8, -r3, ror #30]!
    2678:	6e697073 	mcrvs	0, 3, r7, cr9, cr3, {3}
    267c:	6b636f6c 	blvs	18de434 <__standby_start+0x18de434>
    2680:	6800632e 	stmdavs	r0, {r1, r2, r3, r5, r8, r9, sp, lr}
    2684:	00646977 	rsbeq	r6, r4, r7, ror r9
    2688:	73697261 	cmnvc	r9, #268435462	; 0x10000006
    268c:	77685f63 	strbvc	r5, [r8, -r3, ror #30]!
    2690:	6e697073 	mcrvs	0, 3, r7, cr9, cr3, {3}
    2694:	6b636f6c 	blvs	18de44c <__standby_start+0x18de44c>
    2698:	6978655f 	ldmdbvs	r8!, {r0, r1, r2, r3, r4, r6, r8, sl, sp, lr}^
    269c:	72610074 	rsbvc	r0, r1, #116	; 0x74
    26a0:	5f637369 	svcpl	0x00637369
    26a4:	70737768 	rsbsvc	r7, r3, r8, ror #14
    26a8:	755f6e69 	ldrbvc	r6, [pc, #-3689]	; 1847 <__standby_start+0x1847>
    26ac:	636f6c6e 	cmnvs	pc, #28160	; 0x6e00
    26b0:	7261006b 	rsbvc	r0, r1, #107	; 0x6b
    26b4:	5f637369 	svcpl	0x00637369
    26b8:	70737768 	rsbsvc	r7, r3, r8, ror #14
    26bc:	6f6c6e69 	svcvs	0x006c6e69
    26c0:	695f6b63 	ldmdbvs	pc, {r0, r1, r5, r6, r8, r9, fp, sp, lr}^	; <UNPREDICTABLE>
    26c4:	0074696e 	rsbseq	r6, r4, lr, ror #18
    26c8:	73697261 	cmnvc	r9, #268435462	; 0x10000006
    26cc:	77685f63 	strbvc	r5, [r8, -r3, ror #30]!
    26d0:	6e697073 	mcrvs	0, 3, r7, cr9, cr3, {3}
    26d4:	636f6c5f 	cmnvs	pc, #24320	; 0x5f00
    26d8:	69745f6b 	ldmdbvs	r4!, {r0, r1, r3, r5, r6, r8, r9, sl, fp, ip, lr}^
    26dc:	756f656d 	strbvc	r6, [pc, #-1389]!	; 2177 <__standby_start+0x2177>
    26e0:	72610074 	rsbvc	r0, r1, #116	; 0x74
    26e4:	5f637369 	svcpl	0x00637369
    26e8:	7373656d 	cmnvc	r3, #457179136	; 0x1b400000
    26ec:	5f656761 	svcpl	0x00656761
    26f0:	616e616d 	cmnvs	lr, sp, ror #2
    26f4:	5f726567 	svcpl	0x00726567
    26f8:	74697865 	strbtvc	r7, [r9], #-2149	; 0x865
    26fc:	69726100 	ldmdbvs	r2!, {r8, sp, lr}^
    2700:	6d5f6373 	ldclvs	3, cr6, [pc, #-460]	; 253c <__standby_start+0x253c>
    2704:	61737365 	cmnvs	r3, r5, ror #6
    2708:	615f6567 	cmpvs	pc, r7, ror #10
    270c:	636f6c6c 	cmnvs	pc, #27648	; 0x6c00
    2710:	00657461 	rsbeq	r7, r5, r1, ror #8
    2714:	7373656d 	cmnvc	r3, #457179136	; 0x1b400000
    2718:	5f656761 	svcpl	0x00656761
    271c:	00646e65 	rsbeq	r6, r4, r5, ror #28
    2720:	73697261 	cmnvc	r9, #268435462	; 0x10000006
    2724:	656d5f63 	strbvs	r5, [sp, #-3939]!	; 0xf63
    2728:	67617373 			; <UNDEFINED> instruction: 0x67617373
    272c:	72665f65 	rsbvc	r5, r6, #404	; 0x194
    2730:	6d006565 	cfstr32vs	mvfx6, [r0, #-404]	; 0xfffffe6c
    2734:	61737365 	cmnvs	r3, r5, ror #6
    2738:	735f6567 	cmpvc	pc, #432013312	; 0x19c00000
    273c:	74726174 	ldrbtvc	r6, [r2], #-372	; 0x174
    2740:	69726100 	ldmdbvs	r2!, {r8, sp, lr}^
    2744:	6d5f6373 	ldclvs	3, cr6, [pc, #-460]	; 2580 <__standby_start+0x2580>
    2748:	61737365 	cmnvs	r3, r5, ror #6
    274c:	6d5f6567 	cfldr64vs	mvdx6, [pc, #-412]	; 25b8 <__standby_start+0x25b8>
    2750:	67616e61 	strbvs	r6, [r1, -r1, ror #28]!
    2754:	695f7265 	ldmdbvs	pc, {r0, r2, r5, r6, r9, ip, sp, lr}^	; <UNPREDICTABLE>
    2758:	0074696e 	rsbseq	r6, r4, lr, ror #18
    275c:	68637261 	stmdavs	r3!, {r0, r5, r6, r9, ip, sp, lr}^
    2760:	6d72612f 	ldfvse	f6, [r2, #-188]!	; 0xffffff44
    2764:	63616d2f 	cmnvs	r1, #3008	; 0xbc0
    2768:	75732d68 	ldrbvc	r2, [r3, #-3432]!	; 0xd68
    276c:	2f69786e 	svccs	0x0069786e
    2770:	732f6d70 	teqvc	pc, #7168	; 0x1c00
    2774:	646e6174 	strbtvs	r6, [lr], #-372	; 0x174
    2778:	2e2f7962 	cdpcs	9, 2, cr7, cr15, cr2, {3}
    277c:	6972612f 	ldmdbvs	r2!, {r0, r1, r2, r3, r5, r8, sp, lr}^
    2780:	612f6373 	teqvs	pc, r3, ror r3	; <UNPREDICTABLE>
    2784:	63736972 	cmnvs	r3, #1867776	; 0x1c8000
    2788:	73656d5f 	cmnvc	r5, #6080	; 0x17c0
    278c:	65676173 	strbvs	r6, [r7, #-371]!	; 0x173
    2790:	6e616d5f 	mcrvs	13, 3, r6, cr1, cr15, {2}
    2794:	72656761 	rsbvc	r6, r5, #25427968	; 0x1840000
    2798:	6d00632e 	stcvs	3, cr6, [r0, #-184]	; 0xffffff48
    279c:	615f6773 	cmpvs	pc, r3, ror r7	; <UNPREDICTABLE>
    27a0:	00727474 	rsbseq	r7, r2, r4, ror r4
    27a4:	6c6c6170 	stfvse	f6, [ip], #-448	; 0xfffffe40
    27a8:	6300636f 	movwvs	r6, #879	; 0x36f
    27ac:	5f727370 	svcpl	0x00727370
    27b0:	6b636162 	blvs	18dad40 <__standby_start+0x18dad40>
    27b4:	68007075 	stmdavs	r0, {r0, r2, r4, r5, r6, ip, sp, lr}
    27b8:	69707377 	ldmdbvs	r0!, {r0, r1, r2, r4, r5, r6, r8, r9, ip, sp, lr}^
    27bc:	6f6c5f6e 	svcvs	0x006c5f6e
    27c0:	745f6b63 	ldrbvc	r6, [pc], #-2915	; 27c8 <__standby_start+0x27c8>
    27c4:	6f656d69 	svcvs	0x00656d69
    27c8:	6e5f7475 	mrcvs	4, 2, r7, cr15, cr5, {3}
    27cc:	756d6d6f 	strbvc	r6, [sp, #-3439]!	; 0xd6f
    27d0:	6d656d00 	stclvs	13, cr6, [r5, #-0]
    27d4:	636f6c5f 	cmnvs	pc, #24320	; 0x5f00
    27d8:	695f6c61 	ldmdbvs	pc, {r0, r5, r6, sl, fp, sp, lr}^	; <UNPREDICTABLE>
    27dc:	725f7172 	subsvc	r7, pc, #-2147483620	; 0x8000001c
    27e0:	6f747365 	svcvs	0x00747365
    27e4:	65006572 	strvs	r6, [r0, #-1394]	; 0x572
    27e8:	72697078 	rsbvc	r7, r9, #120	; 0x78
    27ec:	6c660065 	stclvs	0, cr0, [r6], #-404	; 0xfffffe6c
    27f0:	00736761 	rsbseq	r6, r3, r1, ror #14
    27f4:	68637261 	stmdavs	r3!, {r0, r5, r6, r9, ip, sp, lr}^
    27f8:	6d72612f 	ldfvse	f6, [r2, #-188]!	; 0xffffff44
    27fc:	63616d2f 	cmnvs	r1, #3008	; 0xbc0
    2800:	75732d68 	ldrbvc	r2, [r3, #-3432]!	; 0xd68
    2804:	2f69786e 	svccs	0x0069786e
    2808:	732f6d70 	teqvc	pc, #7168	; 0x1c00
    280c:	646e6174 	strbtvs	r6, [lr], #-372	; 0x174
    2810:	2e2f7962 	cdpcs	9, 2, cr7, cr15, cr2, {3}
    2814:	2f2e2e2f 	svccs	0x002e2e2f
    2818:	5f6d656d 	svcpl	0x006d656d
    281c:	70737768 	rsbsvc	r7, r3, r8, ror #14
    2820:	6f6c6e69 	svcvs	0x006c6e69
    2824:	632e6b63 	teqvs	lr, #101376	; 0x18c00
    2828:	6d656d00 	stclvs	13, cr6, [r5, #-0]
    282c:	636f6c5f 	cmnvs	pc, #24320	; 0x5f00
    2830:	695f6c61 	ldmdbvs	pc, {r0, r5, r6, sl, fp, sp, lr}^	; <UNPREDICTABLE>
    2834:	735f7172 	cmpvc	pc, #-2147483620	; 0x8000001c
    2838:	00657661 	rsbeq	r7, r5, r1, ror #12
    283c:	70737768 	rsbsvc	r7, r3, r8, ror #14
    2840:	755f6e69 	ldrbvc	r6, [pc, #-3689]	; 19df <__standby_start+0x19df>
    2844:	636f6c6e 	cmnvs	pc, #28160	; 0x6e00
    2848:	6f6e5f6b 	svcvs	0x006e5f6b
    284c:	00756d6d 	rsbseq	r6, r5, sp, ror #26

Disassembly of section .comment:

00000000 <.comment>:
   0:	3a434347 	bcc	10d0d24 <__standby_start+0x10d0d24>
   4:	72632820 	rsbvc	r2, r3, #2097152	; 0x200000
   8:	7473736f 	ldrbtvc	r7, [r3], #-879	; 0x36f
   c:	2d6c6f6f 	stclcs	15, cr6, [ip, #-444]!	; 0xfffffe44
  10:	6c20474e 	stcvs	7, cr4, [r0], #-312	; 0xfffffec8
  14:	72616e69 	rsbvc	r6, r1, #1680	; 0x690
  18:	2e312d6f 	cdpcs	13, 3, cr2, cr1, cr15, {3}
  1c:	312e3331 	teqcc	lr, r1, lsr r3
  20:	3130322d 	teqcc	r0, sp, lsr #4
  24:	32302e32 	eorscc	r2, r0, #800	; 0x320
  28:	3130322d 	teqcc	r0, sp, lsr #4
  2c:	32323032 	eorscc	r3, r2, #50	; 0x32
  30:	202d2032 	eorcs	r2, sp, r2, lsr r0
  34:	616e694c 	cmnvs	lr, ip, asr #18
  38:	47206f72 			; <UNDEFINED> instruction: 0x47206f72
  3c:	32204343 	eorcc	r4, r0, #201326593	; 0xc000001
  40:	2e323130 	mrccs	1, 1, r3, cr2, cr0, {1}
  44:	20293230 	eorcs	r3, r9, r0, lsr r2
  48:	2e362e34 	mrccs	14, 1, r2, cr6, cr4, {1}
  4c:	30322033 	eorscc	r2, r2, r3, lsr r0
  50:	32303231 	eorscc	r3, r0, #268435459	; 0x10000003
  54:	28203130 	stmdacs	r0!, {r4, r5, r8, ip, sp}
  58:	72657270 	rsbvc	r7, r5, #7
  5c:	61656c65 	cmnvs	r5, r5, ror #24
  60:	00296573 	eoreq	r6, r9, r3, ror r5

Disassembly of section .ARM.attributes:

00000000 <.ARM.attributes>:
   0:	00003041 	andeq	r3, r0, r1, asr #32
   4:	61656100 	cmnvs	r5, r0, lsl #2
   8:	01006962 	tsteq	r0, r2, ror #18
   c:	00000026 	andeq	r0, r0, r6, lsr #32
  10:	412d3705 	teqmi	sp, r5, lsl #14
  14:	070a0600 	streq	r0, [sl, -r0, lsl #12]
  18:	09010841 	stmdbeq	r1, {r0, r6, fp}
  1c:	12040a02 	andne	r0, r4, #8192	; 0x2000
  20:	15011404 	strne	r1, [r1, #-1028]	; 0x404
  24:	18031701 	stmdane	r3, {r0, r8, r9, sl, ip}
  28:	1b021a01 	blne	86834 <__standby_start+0x86834>
  2c:	2c021e03 	stccs	14, cr1, [r2], {3}
  30:	Address 0x00000030 is out of bounds.


Disassembly of section .debug_frame:

00000000 <.debug_frame>:
   0:	0000000c 	andeq	r0, r0, ip
   4:	ffffffff 			; <UNDEFINED> instruction: 0xffffffff
   8:	7c020001 	stcvc	0, cr0, [r2], {1}
   c:	000d0c0e 	andeq	r0, sp, lr, lsl #24
  10:	0000001c 	andeq	r0, r0, ip, lsl r0
  14:	00000000 	andeq	r0, r0, r0
  18:	f0000000 			; <UNDEFINED> instruction: 0xf0000000
  1c:	000003dc 	ldrdeq	r0, [r0], -ip
  20:	8e180e42 	cdphi	14, 1, cr0, cr8, cr2, {2}
  24:	87028801 	strhi	r8, [r2, -r1, lsl #16]
  28:	85048603 	strhi	r8, [r4, #-1539]	; 0x603
  2c:	00068405 	andeq	r8, r6, r5, lsl #8
  30:	0000000c 	andeq	r0, r0, ip
  34:	ffffffff 			; <UNDEFINED> instruction: 0xffffffff
  38:	7c020001 	stcvc	0, cr0, [r2], {1}
  3c:	000d0c0e 	andeq	r0, sp, lr, lsl #24
  40:	0000000c 	andeq	r0, r0, ip
  44:	00000030 	andeq	r0, r0, r0, lsr r0
  48:	f00003dc 			; <UNDEFINED> instruction: 0xf00003dc
  4c:	00000030 	andeq	r0, r0, r0, lsr r0
  50:	0000000c 	andeq	r0, r0, ip
  54:	ffffffff 			; <UNDEFINED> instruction: 0xffffffff
  58:	7c020001 	stcvc	0, cr0, [r2], {1}
  5c:	000d0c0e 	andeq	r0, sp, lr, lsl #24
  60:	0000000c 	andeq	r0, r0, ip
  64:	00000050 	andeq	r0, r0, r0, asr r0
  68:	f000040c 			; <UNDEFINED> instruction: 0xf000040c
  6c:	00000028 	andeq	r0, r0, r8, lsr #32
  70:	0000000c 	andeq	r0, r0, ip
  74:	00000050 	andeq	r0, r0, r0, asr r0
  78:	f0000434 			; <UNDEFINED> instruction: 0xf0000434
  7c:	00000008 	andeq	r0, r0, r8
  80:	0000000c 	andeq	r0, r0, ip
  84:	00000050 	andeq	r0, r0, r0, asr r0
  88:	f000043c 			; <UNDEFINED> instruction: 0xf000043c
  8c:	00000020 	andeq	r0, r0, r0, lsr #32
  90:	0000000c 	andeq	r0, r0, ip
  94:	00000050 	andeq	r0, r0, r0, asr r0
  98:	f000045c 			; <UNDEFINED> instruction: 0xf000045c
  9c:	00000038 	andeq	r0, r0, r8, lsr r0
  a0:	0000000c 	andeq	r0, r0, ip
  a4:	00000050 	andeq	r0, r0, r0, asr r0
  a8:	f0000494 			; <UNDEFINED> instruction: 0xf0000494
  ac:	00000020 	andeq	r0, r0, r0, lsr #32
  b0:	0000000c 	andeq	r0, r0, ip
  b4:	ffffffff 			; <UNDEFINED> instruction: 0xffffffff
  b8:	7c020001 	stcvc	0, cr0, [r2], {1}
  bc:	000d0c0e 	andeq	r0, sp, lr, lsl #24
  c0:	0000000c 	andeq	r0, r0, ip
  c4:	000000b0 	strheq	r0, [r0], -r0	; <UNPREDICTABLE>
  c8:	f00004b4 			; <UNDEFINED> instruction: 0xf00004b4
  cc:	00000008 	andeq	r0, r0, r8
  d0:	0000000c 	andeq	r0, r0, ip
  d4:	000000b0 	strheq	r0, [r0], -r0	; <UNPREDICTABLE>
  d8:	f00004bc 			; <UNDEFINED> instruction: 0xf00004bc
  dc:	00000008 	andeq	r0, r0, r8
  e0:	0000000c 	andeq	r0, r0, ip
  e4:	000000b0 	strheq	r0, [r0], -r0	; <UNPREDICTABLE>
  e8:	f00004c4 			; <UNDEFINED> instruction: 0xf00004c4
  ec:	00000008 	andeq	r0, r0, r8
  f0:	0000000c 	andeq	r0, r0, ip
  f4:	000000b0 	strheq	r0, [r0], -r0	; <UNPREDICTABLE>
  f8:	f00004cc 			; <UNDEFINED> instruction: 0xf00004cc
  fc:	00000008 	andeq	r0, r0, r8
 100:	0000000c 	andeq	r0, r0, ip
 104:	ffffffff 			; <UNDEFINED> instruction: 0xffffffff
 108:	7c020001 	stcvc	0, cr0, [r2], {1}
 10c:	000d0c0e 	andeq	r0, sp, lr, lsl #24
 110:	00000018 	andeq	r0, r0, r8, lsl r0
 114:	00000100 	andeq	r0, r0, r0, lsl #2
 118:	f00004d4 			; <UNDEFINED> instruction: 0xf00004d4
 11c:	00000058 	andeq	r0, r0, r8, asr r0
 120:	8e100e42 	cdphi	14, 1, cr0, cr0, cr2, {2}
 124:	84028501 	strhi	r8, [r2], #-1281	; 0x501
 128:	00048303 	andeq	r8, r4, r3, lsl #6
 12c:	0000000c 	andeq	r0, r0, ip
 130:	00000100 	andeq	r0, r0, r0, lsl #2
 134:	f000052c 			; <UNDEFINED> instruction: 0xf000052c
 138:	00000020 	andeq	r0, r0, r0, lsr #32
 13c:	0000000c 	andeq	r0, r0, ip
 140:	00000100 	andeq	r0, r0, r0, lsl #2
 144:	f000054c 			; <UNDEFINED> instruction: 0xf000054c
 148:	00000028 	andeq	r0, r0, r8, lsr #32
 14c:	0000000c 	andeq	r0, r0, ip
 150:	ffffffff 			; <UNDEFINED> instruction: 0xffffffff
 154:	7c020001 	stcvc	0, cr0, [r2], {1}
 158:	000d0c0e 	andeq	r0, sp, lr, lsl #24
 15c:	0000001c 	andeq	r0, r0, ip, lsl r0
 160:	0000014c 	andeq	r0, r0, ip, asr #2
 164:	f0000574 			; <UNDEFINED> instruction: 0xf0000574
 168:	00000198 	muleq	r0, r8, r1
 16c:	8e140e44 	cdphi	14, 1, cr0, cr4, cr4, {2}
 170:	86028701 	strhi	r8, [r2], -r1, lsl #14
 174:	84048503 	strhi	r8, [r4], #-1283	; 0x503
 178:	200e4205 	andcs	r4, lr, r5, lsl #4
 17c:	00000018 	andeq	r0, r0, r8, lsl r0
 180:	0000014c 	andeq	r0, r0, ip, asr #2
 184:	f000070c 			; <UNDEFINED> instruction: 0xf000070c
 188:	000000b0 	strheq	r0, [r0], -r0	; <UNPREDICTABLE>
 18c:	8e0c0e44 	cdphi	14, 0, cr0, cr12, cr4, {2}
 190:	84028501 	strhi	r8, [r2], #-1281	; 0x501
 194:	180e4403 	stmdane	lr, {r0, r1, sl, lr}
 198:	00000018 	andeq	r0, r0, r8, lsl r0
 19c:	0000014c 	andeq	r0, r0, ip, asr #2
 1a0:	f00007bc 			; <UNDEFINED> instruction: 0xf00007bc
 1a4:	000001d0 	ldrdeq	r0, [r0], -r0	; <UNPREDICTABLE>
 1a8:	8e100e42 	cdphi	14, 1, cr0, cr0, cr2, {2}
 1ac:	84028501 	strhi	r8, [r2], #-1281	; 0x501
 1b0:	00048303 	andeq	r8, r4, r3, lsl #6
 1b4:	00000018 	andeq	r0, r0, r8, lsl r0
 1b8:	0000014c 	andeq	r0, r0, ip, asr #2
 1bc:	f000098c 			; <UNDEFINED> instruction: 0xf000098c
 1c0:	00000050 	andeq	r0, r0, r0, asr r0
 1c4:	8e100e42 	cdphi	14, 1, cr0, cr0, cr2, {2}
 1c8:	85028601 	strhi	r8, [r2, #-1537]	; 0x601
 1cc:	00048403 	andeq	r8, r4, r3, lsl #8
 1d0:	0000000c 	andeq	r0, r0, ip
 1d4:	ffffffff 			; <UNDEFINED> instruction: 0xffffffff
 1d8:	7c020001 	stcvc	0, cr0, [r2], {1}
 1dc:	000d0c0e 	andeq	r0, sp, lr, lsl #24
 1e0:	0000001c 	andeq	r0, r0, ip, lsl r0
 1e4:	000001d0 	ldrdeq	r0, [r0], -r0	; <UNPREDICTABLE>
 1e8:	f00009dc 			; <UNDEFINED> instruction: 0xf00009dc
 1ec:	00000084 	andeq	r0, r0, r4, lsl #1
 1f0:	8e180e42 	cdphi	14, 1, cr0, cr8, cr2, {2}
 1f4:	86028701 	strhi	r8, [r2], -r1, lsl #14
 1f8:	84048503 	strhi	r8, [r4], #-1283	; 0x503
 1fc:	00068305 	andeq	r8, r6, r5, lsl #6
 200:	00000018 	andeq	r0, r0, r8, lsl r0
 204:	000001d0 	ldrdeq	r0, [r0], -r0	; <UNPREDICTABLE>
 208:	f0000a60 			; <UNDEFINED> instruction: 0xf0000a60
 20c:	00000050 	andeq	r0, r0, r0, asr r0
 210:	8e100e42 	cdphi	14, 1, cr0, cr0, cr2, {2}
 214:	84028501 	strhi	r8, [r2], #-1281	; 0x501
 218:	00048303 	andeq	r8, r4, r3, lsl #6
 21c:	0000000c 	andeq	r0, r0, ip
 220:	ffffffff 			; <UNDEFINED> instruction: 0xffffffff
 224:	7c020001 	stcvc	0, cr0, [r2], {1}
 228:	000d0c0e 	andeq	r0, sp, lr, lsl #24
 22c:	0000000c 	andeq	r0, r0, ip
 230:	0000021c 	andeq	r0, r0, ip, lsl r2
 234:	f0000ab0 			; <UNDEFINED> instruction: 0xf0000ab0
 238:	0000004c 	andeq	r0, r0, ip, asr #32
 23c:	0000000c 	andeq	r0, r0, ip
 240:	0000021c 	andeq	r0, r0, ip, lsl r2
 244:	f0000afc 			; <UNDEFINED> instruction: 0xf0000afc
 248:	00000034 	andeq	r0, r0, r4, lsr r0
 24c:	00000014 	andeq	r0, r0, r4, lsl r0
 250:	0000021c 	andeq	r0, r0, ip, lsl r2
 254:	f0000b30 			; <UNDEFINED> instruction: 0xf0000b30
 258:	000002b8 			; <UNDEFINED> instruction: 0x000002b8
 25c:	85080e44 	strhi	r0, [r8, #-3652]	; 0xe44
 260:	00028401 	andeq	r8, r2, r1, lsl #8
 264:	0000000c 	andeq	r0, r0, ip
 268:	ffffffff 			; <UNDEFINED> instruction: 0xffffffff
 26c:	7c020001 	stcvc	0, cr0, [r2], {1}
 270:	000d0c0e 	andeq	r0, sp, lr, lsl #24
 274:	0000000c 	andeq	r0, r0, ip
 278:	00000264 	andeq	r0, r0, r4, ror #4
 27c:	f0000de8 			; <UNDEFINED> instruction: 0xf0000de8
 280:	00000008 	andeq	r0, r0, r8
 284:	0000000c 	andeq	r0, r0, ip
 288:	00000264 	andeq	r0, r0, r4, ror #4
 28c:	f0000df0 			; <UNDEFINED> instruction: 0xf0000df0
 290:	00000008 	andeq	r0, r0, r8
 294:	0000000c 	andeq	r0, r0, ip
 298:	00000264 	andeq	r0, r0, r4, ror #4
 29c:	f0000df8 			; <UNDEFINED> instruction: 0xf0000df8
 2a0:	00000008 	andeq	r0, r0, r8
 2a4:	0000000c 	andeq	r0, r0, ip
 2a8:	00000264 	andeq	r0, r0, r4, ror #4
 2ac:	f0000e00 			; <UNDEFINED> instruction: 0xf0000e00
 2b0:	00000008 	andeq	r0, r0, r8
 2b4:	0000000c 	andeq	r0, r0, ip
 2b8:	ffffffff 			; <UNDEFINED> instruction: 0xffffffff
 2bc:	7c020001 	stcvc	0, cr0, [r2], {1}
 2c0:	000d0c0e 	andeq	r0, sp, lr, lsl #24
 2c4:	00000010 	andeq	r0, r0, r0, lsl r0
 2c8:	000002b4 			; <UNDEFINED> instruction: 0x000002b4
 2cc:	f0000e08 			; <UNDEFINED> instruction: 0xf0000e08
 2d0:	00000020 	andeq	r0, r0, r0, lsr #32
 2d4:	00080e42 	andeq	r0, r8, r2, asr #28
 2d8:	0000000c 	andeq	r0, r0, ip
 2dc:	000002b4 			; <UNDEFINED> instruction: 0x000002b4
 2e0:	f0000e28 			; <UNDEFINED> instruction: 0xf0000e28
 2e4:	00000004 	andeq	r0, r0, r4
 2e8:	0000000c 	andeq	r0, r0, ip
 2ec:	000002b4 			; <UNDEFINED> instruction: 0x000002b4
 2f0:	f0000e2c 			; <UNDEFINED> instruction: 0xf0000e2c
 2f4:	00000004 	andeq	r0, r0, r4
 2f8:	0000000c 	andeq	r0, r0, ip
 2fc:	000002b4 			; <UNDEFINED> instruction: 0x000002b4
 300:	f0000e30 			; <UNDEFINED> instruction: 0xf0000e30
 304:	00000024 	andeq	r0, r0, r4, lsr #32
 308:	0000000c 	andeq	r0, r0, ip
 30c:	000002b4 			; <UNDEFINED> instruction: 0x000002b4
 310:	f0000e54 			; <UNDEFINED> instruction: 0xf0000e54
 314:	00000024 	andeq	r0, r0, r4, lsr #32
 318:	00000014 	andeq	r0, r0, r4, lsl r0
 31c:	000002b4 			; <UNDEFINED> instruction: 0x000002b4
 320:	f0000e78 			; <UNDEFINED> instruction: 0xf0000e78
 324:	00000094 	muleq	r0, r4, r0
 328:	8e080e42 	cdphi	14, 0, cr0, cr8, cr2, {2}
 32c:	00028401 	andeq	r8, r2, r1, lsl #8
 330:	0000000c 	andeq	r0, r0, ip
 334:	000002b4 			; <UNDEFINED> instruction: 0x000002b4
 338:	f0000f0c 			; <UNDEFINED> instruction: 0xf0000f0c
 33c:	00000004 	andeq	r0, r0, r4
 340:	00000018 	andeq	r0, r0, r8, lsl r0
 344:	000002b4 			; <UNDEFINED> instruction: 0x000002b4
 348:	f0000f10 			; <UNDEFINED> instruction: 0xf0000f10
 34c:	00000094 	muleq	r0, r4, r0
 350:	8e080e42 	cdphi	14, 0, cr0, cr8, cr2, {2}
 354:	42028401 	andmi	r8, r2, #16777216	; 0x1000000
 358:	0000100e 	andeq	r1, r0, lr
 35c:	00000014 	andeq	r0, r0, r4, lsl r0
 360:	000002b4 			; <UNDEFINED> instruction: 0x000002b4
 364:	f0000fa4 			; <UNDEFINED> instruction: 0xf0000fa4
 368:	00000054 	andeq	r0, r0, r4, asr r0
 36c:	8e080e42 	cdphi	14, 0, cr0, cr8, cr2, {2}
 370:	00028401 	andeq	r8, r2, r1, lsl #8
 374:	00000018 	andeq	r0, r0, r8, lsl r0
 378:	000002b4 			; <UNDEFINED> instruction: 0x000002b4
 37c:	f0000ff8 			; <UNDEFINED> instruction: 0xf0000ff8
 380:	00000078 	andeq	r0, r0, r8, ror r0
 384:	8e100e42 	cdphi	14, 1, cr0, cr0, cr2, {2}
 388:	85028601 	strhi	r8, [r2, #-1537]	; 0x601
 38c:	00048403 	andeq	r8, r4, r3, lsl #8
 390:	00000018 	andeq	r0, r0, r8, lsl r0
 394:	000002b4 			; <UNDEFINED> instruction: 0x000002b4
 398:	f0001070 			; <UNDEFINED> instruction: 0xf0001070
 39c:	00000094 	muleq	r0, r4, r0
 3a0:	8e0c0e42 	cdphi	14, 0, cr0, cr12, cr2, {2}
 3a4:	84028501 	strhi	r8, [r2], #-1281	; 0x501
 3a8:	180e4203 	stmdane	lr, {r0, r1, r9, lr}
 3ac:	0000000c 	andeq	r0, r0, ip
 3b0:	000002b4 			; <UNDEFINED> instruction: 0x000002b4
 3b4:	f0001104 			; <UNDEFINED> instruction: 0xf0001104
 3b8:	00000018 	andeq	r0, r0, r8, lsl r0
 3bc:	0000000c 	andeq	r0, r0, ip
 3c0:	000002b4 			; <UNDEFINED> instruction: 0x000002b4
 3c4:	f000111c 			; <UNDEFINED> instruction: 0xf000111c
 3c8:	00000018 	andeq	r0, r0, r8, lsl r0
 3cc:	0000000c 	andeq	r0, r0, ip
 3d0:	000002b4 			; <UNDEFINED> instruction: 0x000002b4
 3d4:	f0001134 			; <UNDEFINED> instruction: 0xf0001134
 3d8:	00000018 	andeq	r0, r0, r8, lsl r0
 3dc:	00000018 	andeq	r0, r0, r8, lsl r0
 3e0:	000002b4 			; <UNDEFINED> instruction: 0x000002b4
 3e4:	f000114c 			; <UNDEFINED> instruction: 0xf000114c
 3e8:	00000034 	andeq	r0, r0, r4, lsr r0
 3ec:	8e100e42 	cdphi	14, 1, cr0, cr0, cr2, {2}
 3f0:	85028601 	strhi	r8, [r2, #-1537]	; 0x601
 3f4:	00048403 	andeq	r8, r4, r3, lsl #8
 3f8:	0000000c 	andeq	r0, r0, ip
 3fc:	ffffffff 			; <UNDEFINED> instruction: 0xffffffff
 400:	7c020001 	stcvc	0, cr0, [r2], {1}
 404:	000d0c0e 	andeq	r0, sp, lr, lsl #24
 408:	0000000c 	andeq	r0, r0, ip
 40c:	000003f8 	strdeq	r0, [r0], -r8
 410:	f0001180 			; <UNDEFINED> instruction: 0xf0001180
 414:	00000034 	andeq	r0, r0, r4, lsr r0
 418:	0000000c 	andeq	r0, r0, ip
 41c:	000003f8 	strdeq	r0, [r0], -r8
 420:	f00011b4 			; <UNDEFINED> instruction: 0xf00011b4
 424:	0000001c 	andeq	r0, r0, ip, lsl r0
 428:	0000000c 	andeq	r0, r0, ip
 42c:	000003f8 	strdeq	r0, [r0], -r8
 430:	f00011d0 			; <UNDEFINED> instruction: 0xf00011d0
 434:	00000024 	andeq	r0, r0, r4, lsr #32
 438:	0000000c 	andeq	r0, r0, ip
 43c:	000003f8 	strdeq	r0, [r0], -r8
 440:	f00011f4 			; <UNDEFINED> instruction: 0xf00011f4
 444:	00000008 	andeq	r0, r0, r8
 448:	0000000c 	andeq	r0, r0, ip
 44c:	000003f8 	strdeq	r0, [r0], -r8
 450:	f00011fc 			; <UNDEFINED> instruction: 0xf00011fc
 454:	00000010 	andeq	r0, r0, r0, lsl r0
 458:	00000014 	andeq	r0, r0, r4, lsl r0
 45c:	000003f8 	strdeq	r0, [r0], -r8
 460:	f000120c 			; <UNDEFINED> instruction: 0xf000120c
 464:	00000034 	andeq	r0, r0, r4, lsr r0
 468:	8e080e42 	cdphi	14, 0, cr0, cr8, cr2, {2}
 46c:	00028401 	andeq	r8, r2, r1, lsl #8
 470:	00000018 	andeq	r0, r0, r8, lsl r0
 474:	000003f8 	strdeq	r0, [r0], -r8
 478:	f0001240 			; <UNDEFINED> instruction: 0xf0001240
 47c:	00000088 	andeq	r0, r0, r8, lsl #1
 480:	8e100e42 	cdphi	14, 1, cr0, cr0, cr2, {2}
 484:	84028501 	strhi	r8, [r2], #-1281	; 0x501
 488:	00048303 	andeq	r8, r4, r3, lsl #6
 48c:	00000014 	andeq	r0, r0, r4, lsl r0
 490:	000003f8 	strdeq	r0, [r0], -r8
 494:	f00012c8 			; <UNDEFINED> instruction: 0xf00012c8
 498:	00000034 	andeq	r0, r0, r4, lsr r0
 49c:	8e080e44 	cdphi	14, 0, cr0, cr8, cr4, {2}
 4a0:	00028401 	andeq	r8, r2, r1, lsl #8
 4a4:	0000000c 	andeq	r0, r0, ip
 4a8:	000003f8 	strdeq	r0, [r0], -r8
 4ac:	f00012fc 			; <UNDEFINED> instruction: 0xf00012fc
 4b0:	0000002c 	andeq	r0, r0, ip, lsr #32
 4b4:	0000000c 	andeq	r0, r0, ip
 4b8:	000003f8 	strdeq	r0, [r0], -r8
 4bc:	f0001328 			; <UNDEFINED> instruction: 0xf0001328
 4c0:	0000002c 	andeq	r0, r0, ip, lsr #32
 4c4:	0000000c 	andeq	r0, r0, ip
 4c8:	000003f8 	strdeq	r0, [r0], -r8
 4cc:	f0001354 			; <UNDEFINED> instruction: 0xf0001354
 4d0:	0000002c 	andeq	r0, r0, ip, lsr #32
 4d4:	0000000c 	andeq	r0, r0, ip
 4d8:	ffffffff 			; <UNDEFINED> instruction: 0xffffffff
 4dc:	7c020001 	stcvc	0, cr0, [r2], {1}
 4e0:	000d0c0e 	andeq	r0, sp, lr, lsl #24
 4e4:	0000000c 	andeq	r0, r0, ip
 4e8:	000004d4 	ldrdeq	r0, [r0], -r4
 4ec:	f0001380 			; <UNDEFINED> instruction: 0xf0001380
 4f0:	0000003c 	andeq	r0, r0, ip, lsr r0
 4f4:	0000000c 	andeq	r0, r0, ip
 4f8:	000004d4 	ldrdeq	r0, [r0], -r4
 4fc:	f00013bc 			; <UNDEFINED> instruction: 0xf00013bc
 500:	00000064 	andeq	r0, r0, r4, rrx
 504:	0000000c 	andeq	r0, r0, ip
 508:	ffffffff 			; <UNDEFINED> instruction: 0xffffffff
 50c:	7c020001 	stcvc	0, cr0, [r2], {1}
 510:	000d0c0e 	andeq	r0, sp, lr, lsl #24
 514:	00000018 	andeq	r0, r0, r8, lsl r0
 518:	00000504 	andeq	r0, r0, r4, lsl #10
 51c:	f0001980 			; <UNDEFINED> instruction: 0xf0001980
 520:	000000a8 	andeq	r0, r0, r8, lsr #1
 524:	8e100e42 	cdphi	14, 1, cr0, cr0, cr2, {2}
 528:	84028501 	strhi	r8, [r2], #-1281	; 0x501
 52c:	00048303 	andeq	r8, r4, r3, lsl #6
 530:	00000018 	andeq	r0, r0, r8, lsl r0
 534:	00000504 	andeq	r0, r0, r4, lsl #10
 538:	f0001a28 			; <UNDEFINED> instruction: 0xf0001a28
 53c:	000000ac 	andeq	r0, r0, ip, lsr #1
 540:	8e100e42 	cdphi	14, 1, cr0, cr0, cr2, {2}
 544:	84028501 	strhi	r8, [r2], #-1281	; 0x501
 548:	00048303 	andeq	r8, r4, r3, lsl #6
 54c:	0000000c 	andeq	r0, r0, ip
 550:	00000504 	andeq	r0, r0, r4, lsl #10
 554:	f0001ad4 			; <UNDEFINED> instruction: 0xf0001ad4
 558:	00000040 	andeq	r0, r0, r0, asr #32
 55c:	00000018 	andeq	r0, r0, r8, lsl r0
 560:	00000504 	andeq	r0, r0, r4, lsl #10
 564:	f0001b14 			; <UNDEFINED> instruction: 0xf0001b14
 568:	00000084 	andeq	r0, r0, r4, lsl #1
 56c:	8e100e42 	cdphi	14, 1, cr0, cr0, cr2, {2}
 570:	84028501 	strhi	r8, [r2], #-1281	; 0x501
 574:	00048303 	andeq	r8, r4, r3, lsl #6
 578:	00000014 	andeq	r0, r0, r4, lsl r0
 57c:	00000504 	andeq	r0, r0, r4, lsl #10
 580:	f0001b98 			; <UNDEFINED> instruction: 0xf0001b98
 584:	000000b0 	strheq	r0, [r0], -r0	; <UNPREDICTABLE>
 588:	84040e44 	strhi	r0, [r4], #-3652	; 0xe44
 58c:	00000001 	andeq	r0, r0, r1
 590:	00000014 	andeq	r0, r0, r4, lsl r0
 594:	00000504 	andeq	r0, r0, r4, lsl #10
 598:	f0001c48 			; <UNDEFINED> instruction: 0xf0001c48
 59c:	0000008c 	andeq	r0, r0, ip, lsl #1
 5a0:	84040e44 	strhi	r0, [r4], #-3652	; 0xe44
 5a4:	00000001 	andeq	r0, r0, r1
 5a8:	0000000c 	andeq	r0, r0, ip
 5ac:	00000504 	andeq	r0, r0, r4, lsl #10
 5b0:	f0001cd4 			; <UNDEFINED> instruction: 0xf0001cd4
 5b4:	00000014 	andeq	r0, r0, r4, lsl r0
 5b8:	0000000c 	andeq	r0, r0, ip
 5bc:	00000504 	andeq	r0, r0, r4, lsl #10
 5c0:	f0001ce8 			; <UNDEFINED> instruction: 0xf0001ce8
 5c4:	00000014 	andeq	r0, r0, r4, lsl r0
 5c8:	00000018 	andeq	r0, r0, r8, lsl r0
 5cc:	00000504 	andeq	r0, r0, r4, lsl #10
 5d0:	f0001cfc 			; <UNDEFINED> instruction: 0xf0001cfc
 5d4:	0000008c 	andeq	r0, r0, ip, lsl #1
 5d8:	8e100e42 	cdphi	14, 1, cr0, cr0, cr2, {2}
 5dc:	84028501 	strhi	r8, [r2], #-1281	; 0x501
 5e0:	00048303 	andeq	r8, r4, r3, lsl #6
 5e4:	00000014 	andeq	r0, r0, r4, lsl r0
 5e8:	00000504 	andeq	r0, r0, r4, lsl #10
 5ec:	f0001d88 			; <UNDEFINED> instruction: 0xf0001d88
 5f0:	000000b0 	strheq	r0, [r0], -r0	; <UNPREDICTABLE>
 5f4:	84040e44 	strhi	r0, [r4], #-3652	; 0xe44
 5f8:	00000001 	andeq	r0, r0, r1
 5fc:	00000014 	andeq	r0, r0, r4, lsl r0
 600:	00000504 	andeq	r0, r0, r4, lsl #10
 604:	f0001e38 			; <UNDEFINED> instruction: 0xf0001e38
 608:	0000008c 	andeq	r0, r0, ip, lsl #1
 60c:	84040e44 	strhi	r0, [r4], #-3652	; 0xe44
 610:	00000001 	andeq	r0, r0, r1
 614:	0000000c 	andeq	r0, r0, ip
 618:	ffffffff 			; <UNDEFINED> instruction: 0xffffffff
 61c:	7c020001 	stcvc	0, cr0, [r2], {1}
 620:	000d0c0e 	andeq	r0, sp, lr, lsl #24
 624:	00000020 	andeq	r0, r0, r0, lsr #32
 628:	00000614 	andeq	r0, r0, r4, lsl r6
 62c:	f0001ec4 			; <UNDEFINED> instruction: 0xf0001ec4
 630:	000000bc 	strheq	r0, [r0], -ip
 634:	8e1c0e42 	cdphi	14, 1, cr0, cr12, cr2, {2}
 638:	88028a01 	stmdahi	r2, {r0, r9, fp, pc}
 63c:	86048703 	strhi	r8, [r4], -r3, lsl #14
 640:	84068505 	strhi	r8, [r6], #-1285	; 0x505
 644:	480e4c07 	stmdami	lr, {r0, r1, r2, sl, fp, lr}
 648:	0000001c 	andeq	r0, r0, ip, lsl r0
 64c:	00000614 	andeq	r0, r0, r4, lsl r6
 650:	f0001f80 			; <UNDEFINED> instruction: 0xf0001f80
 654:	000000a8 	andeq	r0, r0, r8, lsr #1
 658:	87100e42 	ldrhi	r0, [r0, -r2, asr #28]
 65c:	85028601 	strhi	r8, [r2, #-1537]	; 0x601
 660:	4c048403 	cfstrsmi	mvf8, [r4], {3}
 664:	0000280e 	andeq	r2, r0, lr, lsl #16
 668:	0000001c 	andeq	r0, r0, ip, lsl r0
 66c:	00000614 	andeq	r0, r0, r4, lsl r6
 670:	f0002028 			; <UNDEFINED> instruction: 0xf0002028
 674:	000000e8 	andeq	r0, r0, r8, ror #1
 678:	88140e42 	ldmdahi	r4, {r1, r6, r9, sl, fp}
 67c:	86028701 	strhi	r8, [r2], -r1, lsl #14
 680:	84048503 	strhi	r8, [r4], #-1283	; 0x503
 684:	400e4a05 	andmi	r4, lr, r5, lsl #20
 688:	00000030 	andeq	r0, r0, r0, lsr r0
 68c:	00000614 	andeq	r0, r0, r4, lsl r6
 690:	f0002110 			; <UNDEFINED> instruction: 0xf0002110
 694:	000002d0 	ldrdeq	r0, [r0], -r0	; <UNPREDICTABLE>
 698:	83100e42 	tsthi	r0, #1056	; 0x420
 69c:	81028201 	tsthi	r2, r1, lsl #4
 6a0:	42048003 	andmi	r8, r4, #3
 6a4:	058e300e 	streq	r3, [lr, #14]
 6a8:	0789068a 	streq	r0, [r9, sl, lsl #13]
 6ac:	09870888 	stmibeq	r7, {r3, r7, fp}
 6b0:	0b850a86 	bleq	fe1430d0 <__bss_end+0xe13efd0>
 6b4:	0e420c84 	cdpeq	12, 4, cr0, cr2, cr4, {4}
 6b8:	00000048 	andeq	r0, r0, r8, asr #32
 6bc:	00000030 	andeq	r0, r0, r0, lsr r0
 6c0:	00000614 	andeq	r0, r0, r4, lsl r6
 6c4:	f00023e0 			; <UNDEFINED> instruction: 0xf00023e0
 6c8:	000002d0 	ldrdeq	r0, [r0], -r0	; <UNPREDICTABLE>
 6cc:	83100e42 	tsthi	r0, #1056	; 0x420
 6d0:	81028201 	tsthi	r2, r1, lsl #4
 6d4:	42048003 	andmi	r8, r4, #3
 6d8:	058e300e 	streq	r3, [lr, #14]
 6dc:	0789068a 	streq	r0, [r9, sl, lsl #13]
 6e0:	09870888 	stmibeq	r7, {r3, r7, fp}
 6e4:	0b850a86 	bleq	fe143104 <__bss_end+0xe13f004>
 6e8:	0e420c84 	cdpeq	12, 4, cr0, cr2, cr4, {4}
 6ec:	00000048 	andeq	r0, r0, r8, asr #32
 6f0:	0000000c 	andeq	r0, r0, ip
 6f4:	ffffffff 			; <UNDEFINED> instruction: 0xffffffff
 6f8:	7c020001 	stcvc	0, cr0, [r2], {1}
 6fc:	000d0c0e 	andeq	r0, sp, lr, lsl #24
 700:	0000000c 	andeq	r0, r0, ip
 704:	000006f0 	strdeq	r0, [r0], -r0	; <UNPREDICTABLE>
 708:	f000288c 			; <UNDEFINED> instruction: 0xf000288c
 70c:	0000000c 	andeq	r0, r0, ip
 710:	0000000c 	andeq	r0, r0, ip
 714:	000006f0 	strdeq	r0, [r0], -r0	; <UNPREDICTABLE>
 718:	f0002898 			; <UNDEFINED> instruction: 0xf0002898
 71c:	0000004c 	andeq	r0, r0, ip, asr #32
 720:	0000000c 	andeq	r0, r0, ip
 724:	ffffffff 			; <UNDEFINED> instruction: 0xffffffff
 728:	7c020001 	stcvc	0, cr0, [r2], {1}
 72c:	000d0c0e 	andeq	r0, sp, lr, lsl #24
 730:	00000014 	andeq	r0, r0, r4, lsl r0
 734:	00000720 	andeq	r0, r0, r0, lsr #14
 738:	f00028e4 			; <UNDEFINED> instruction: 0xf00028e4
 73c:	00000090 	muleq	r0, r0, r0
 740:	8e080e48 	cdphi	14, 0, cr0, cr8, cr8, {2}
 744:	00028401 	andeq	r8, r2, r1, lsl #8
 748:	00000010 	andeq	r0, r0, r0, lsl r0
 74c:	00000720 	andeq	r0, r0, r0, lsr #14
 750:	f0002974 			; <UNDEFINED> instruction: 0xf0002974
 754:	00000054 	andeq	r0, r0, r4, asr r0
 758:	00080e44 	andeq	r0, r8, r4, asr #28
 75c:	0000000c 	andeq	r0, r0, ip
 760:	00000720 	andeq	r0, r0, r0, lsr #14
 764:	f00029c8 			; <UNDEFINED> instruction: 0xf00029c8
 768:	0000005c 	andeq	r0, r0, ip, asr r0
 76c:	0000000c 	andeq	r0, r0, ip
 770:	00000720 	andeq	r0, r0, r0, lsr #14
 774:	f0002a24 			; <UNDEFINED> instruction: 0xf0002a24
 778:	0000005c 	andeq	r0, r0, ip, asr r0
 77c:	0000000c 	andeq	r0, r0, ip
 780:	ffffffff 			; <UNDEFINED> instruction: 0xffffffff
 784:	7c020001 	stcvc	0, cr0, [r2], {1}
 788:	000d0c0e 	andeq	r0, sp, lr, lsl #24
 78c:	0000000c 	andeq	r0, r0, ip
 790:	0000077c 	andeq	r0, r0, ip, ror r7
 794:	f0002a80 			; <UNDEFINED> instruction: 0xf0002a80
 798:	0000002c 	andeq	r0, r0, ip, lsr #32
 79c:	0000000c 	andeq	r0, r0, ip
 7a0:	0000077c 	andeq	r0, r0, ip, ror r7
 7a4:	f0002aac 			; <UNDEFINED> instruction: 0xf0002aac
 7a8:	0000002c 	andeq	r0, r0, ip, lsr #32
 7ac:	0000000c 	andeq	r0, r0, ip
 7b0:	0000077c 	andeq	r0, r0, ip, ror r7
 7b4:	f0002ad8 			; <UNDEFINED> instruction: 0xf0002ad8
 7b8:	00000048 	andeq	r0, r0, r8, asr #32
 7bc:	0000000c 	andeq	r0, r0, ip
 7c0:	ffffffff 			; <UNDEFINED> instruction: 0xffffffff
 7c4:	7c020001 	stcvc	0, cr0, [r2], {1}
 7c8:	000d0c0e 	andeq	r0, sp, lr, lsl #24
 7cc:	0000000c 	andeq	r0, r0, ip
 7d0:	000007bc 			; <UNDEFINED> instruction: 0x000007bc
 7d4:	f0002b20 			; <UNDEFINED> instruction: 0xf0002b20
 7d8:	00000060 	andeq	r0, r0, r0, rrx
 7dc:	0000000c 	andeq	r0, r0, ip
 7e0:	000007bc 			; <UNDEFINED> instruction: 0x000007bc
 7e4:	f0002b80 			; <UNDEFINED> instruction: 0xf0002b80
 7e8:	00000050 	andeq	r0, r0, r0, asr r0
 7ec:	0000000c 	andeq	r0, r0, ip
 7f0:	000007bc 			; <UNDEFINED> instruction: 0x000007bc
 7f4:	f0002bd0 			; <UNDEFINED> instruction: 0xf0002bd0
 7f8:	00000038 	andeq	r0, r0, r8, lsr r0
 7fc:	0000000c 	andeq	r0, r0, ip
 800:	000007bc 			; <UNDEFINED> instruction: 0x000007bc
 804:	f0002c08 			; <UNDEFINED> instruction: 0xf0002c08
 808:	00000028 	andeq	r0, r0, r8, lsr #32
 80c:	0000000c 	andeq	r0, r0, ip
 810:	000007bc 			; <UNDEFINED> instruction: 0x000007bc
 814:	f0002c30 			; <UNDEFINED> instruction: 0xf0002c30
 818:	00000048 	andeq	r0, r0, r8, asr #32
 81c:	0000000c 	andeq	r0, r0, ip
 820:	000007bc 			; <UNDEFINED> instruction: 0x000007bc
 824:	f0002c78 			; <UNDEFINED> instruction: 0xf0002c78
 828:	00000040 	andeq	r0, r0, r0, asr #32
 82c:	0000000c 	andeq	r0, r0, ip
 830:	000007bc 			; <UNDEFINED> instruction: 0x000007bc
 834:	f0002cb8 			; <UNDEFINED> instruction: 0xf0002cb8
 838:	00000050 	andeq	r0, r0, r0, asr r0
 83c:	0000000c 	andeq	r0, r0, ip
 840:	ffffffff 			; <UNDEFINED> instruction: 0xffffffff
 844:	7c020001 	stcvc	0, cr0, [r2], {1}
 848:	000d0c0e 	andeq	r0, sp, lr, lsl #24
 84c:	0000000c 	andeq	r0, r0, ip
 850:	0000083c 	andeq	r0, r0, ip, lsr r8
 854:	f0002d08 			; <UNDEFINED> instruction: 0xf0002d08
 858:	00000030 	andeq	r0, r0, r0, lsr r0
 85c:	0000000c 	andeq	r0, r0, ip
 860:	0000083c 	andeq	r0, r0, ip, lsr r8
 864:	f0002d38 			; <UNDEFINED> instruction: 0xf0002d38
 868:	00000028 	andeq	r0, r0, r8, lsr #32
 86c:	0000000c 	andeq	r0, r0, ip
 870:	ffffffff 			; <UNDEFINED> instruction: 0xffffffff
 874:	7c020001 	stcvc	0, cr0, [r2], {1}
 878:	000d0c0e 	andeq	r0, sp, lr, lsl #24
 87c:	0000000c 	andeq	r0, r0, ip
 880:	0000086c 	andeq	r0, r0, ip, ror #16
 884:	f0002d60 			; <UNDEFINED> instruction: 0xf0002d60
 888:	00000030 	andeq	r0, r0, r0, lsr r0
 88c:	0000000c 	andeq	r0, r0, ip
 890:	0000086c 	andeq	r0, r0, ip, ror #16
 894:	f0002d90 			; <UNDEFINED> instruction: 0xf0002d90
 898:	00000010 	andeq	r0, r0, r0, lsl r0
 89c:	0000000c 	andeq	r0, r0, ip
 8a0:	0000086c 	andeq	r0, r0, ip, ror #16
 8a4:	f0002da0 			; <UNDEFINED> instruction: 0xf0002da0
 8a8:	0000003c 	andeq	r0, r0, ip, lsr r0
 8ac:	0000000c 	andeq	r0, r0, ip
 8b0:	0000086c 	andeq	r0, r0, ip, ror #16
 8b4:	f0002ddc 			; <UNDEFINED> instruction: 0xf0002ddc
 8b8:	00000034 	andeq	r0, r0, r4, lsr r0
 8bc:	00000018 	andeq	r0, r0, r8, lsl r0
 8c0:	0000086c 	andeq	r0, r0, ip, ror #16
 8c4:	f0002e10 			; <UNDEFINED> instruction: 0xf0002e10
 8c8:	00000070 	andeq	r0, r0, r0, ror r0
 8cc:	8e100e42 	cdphi	14, 1, cr0, cr0, cr2, {2}
 8d0:	84028501 	strhi	r8, [r2], #-1281	; 0x501
 8d4:	00048303 	andeq	r8, r4, r3, lsl #6
 8d8:	00000014 	andeq	r0, r0, r4, lsl r0
 8dc:	0000086c 	andeq	r0, r0, ip, ror #16
 8e0:	f0002e80 			; <UNDEFINED> instruction: 0xf0002e80
 8e4:	00000048 	andeq	r0, r0, r8, asr #32
 8e8:	84040e44 	strhi	r0, [r4], #-3652	; 0xe44
 8ec:	00000001 	andeq	r0, r0, r1
 8f0:	00000014 	andeq	r0, r0, r4, lsl r0
 8f4:	0000086c 	andeq	r0, r0, ip, ror #16
 8f8:	f0002ec8 			; <UNDEFINED> instruction: 0xf0002ec8
 8fc:	00000054 	andeq	r0, r0, r4, asr r0
 900:	84040e4c 	strhi	r0, [r4], #-3660	; 0xe4c
 904:	00000001 	andeq	r0, r0, r1
 908:	00000014 	andeq	r0, r0, r4, lsl r0
 90c:	0000086c 	andeq	r0, r0, ip, ror #16
 910:	f0002f1c 			; <UNDEFINED> instruction: 0xf0002f1c
 914:	00000048 	andeq	r0, r0, r8, asr #32
 918:	85080e4a 	strhi	r0, [r8, #-3658]	; 0xe4a
 91c:	00028401 	andeq	r8, r2, r1, lsl #8
 920:	0000000c 	andeq	r0, r0, ip
 924:	0000086c 	andeq	r0, r0, ip, ror #16
 928:	f0002f64 			; <UNDEFINED> instruction: 0xf0002f64
 92c:	000000b4 	strheq	r0, [r0], -r4
 930:	0000000c 	andeq	r0, r0, ip
 934:	0000086c 	andeq	r0, r0, ip, ror #16
 938:	f0003018 			; <UNDEFINED> instruction: 0xf0003018
 93c:	00000090 	muleq	r0, r0, r0
 940:	00000014 	andeq	r0, r0, r4, lsl r0
 944:	0000086c 	andeq	r0, r0, ip, ror #16
 948:	f00030a8 			; <UNDEFINED> instruction: 0xf00030a8
 94c:	0000005c 	andeq	r0, r0, ip, asr r0
 950:	84040e44 	strhi	r0, [r4], #-3652	; 0xe44
 954:	00000001 	andeq	r0, r0, r1
 958:	0000000c 	andeq	r0, r0, ip
 95c:	ffffffff 			; <UNDEFINED> instruction: 0xffffffff
 960:	7c020001 	stcvc	0, cr0, [r2], {1}
 964:	000d0c0e 	andeq	r0, sp, lr, lsl #24
 968:	00000014 	andeq	r0, r0, r4, lsl r0
 96c:	00000958 	andeq	r0, r0, r8, asr r9
 970:	f0003104 			; <UNDEFINED> instruction: 0xf0003104
 974:	0000002c 	andeq	r0, r0, ip, lsr #32
 978:	8e080e44 	cdphi	14, 0, cr0, cr8, cr4, {2}
 97c:	00028401 	andeq	r8, r2, r1, lsl #8
 980:	00000014 	andeq	r0, r0, r4, lsl r0
 984:	00000958 	andeq	r0, r0, r8, asr r9
 988:	f0003130 			; <UNDEFINED> instruction: 0xf0003130
 98c:	0000002c 	andeq	r0, r0, ip, lsr #32
 990:	8e080e42 	cdphi	14, 0, cr0, cr8, cr2, {2}
 994:	00028301 	andeq	r8, r2, r1, lsl #6
 998:	00000018 	andeq	r0, r0, r8, lsl r0
 99c:	00000958 	andeq	r0, r0, r8, asr r9
 9a0:	f000315c 			; <UNDEFINED> instruction: 0xf000315c
 9a4:	00000078 	andeq	r0, r0, r8, ror r0
 9a8:	8e100e42 	cdphi	14, 1, cr0, cr0, cr2, {2}
 9ac:	84028501 	strhi	r8, [r2], #-1281	; 0x501
 9b0:	00048303 	andeq	r8, r4, r3, lsl #6
 9b4:	00000014 	andeq	r0, r0, r4, lsl r0
 9b8:	00000958 	andeq	r0, r0, r8, asr r9
 9bc:	f00031d4 			; <UNDEFINED> instruction: 0xf00031d4
 9c0:	00000084 	andeq	r0, r0, r4, lsl #1
 9c4:	8e080e42 	cdphi	14, 0, cr0, cr8, cr2, {2}
 9c8:	00028401 	andeq	r8, r2, r1, lsl #8
 9cc:	00000018 	andeq	r0, r0, r8, lsl r0
 9d0:	00000958 	andeq	r0, r0, r8, asr r9
 9d4:	f0003258 			; <UNDEFINED> instruction: 0xf0003258
 9d8:	0000009c 	muleq	r0, ip, r0
 9dc:	8e100e42 	cdphi	14, 1, cr0, cr0, cr2, {2}
 9e0:	84028501 	strhi	r8, [r2], #-1281	; 0x501
 9e4:	00048303 	andeq	r8, r4, r3, lsl #6
 9e8:	00000018 	andeq	r0, r0, r8, lsl r0
 9ec:	00000958 	andeq	r0, r0, r8, asr r9
 9f0:	f00032f4 			; <UNDEFINED> instruction: 0xf00032f4
 9f4:	00000078 	andeq	r0, r0, r8, ror r0
 9f8:	8e100e42 	cdphi	14, 1, cr0, cr0, cr2, {2}
 9fc:	84028501 	strhi	r8, [r2], #-1281	; 0x501
 a00:	00048303 	andeq	r8, r4, r3, lsl #6
 a04:	0000000c 	andeq	r0, r0, ip
 a08:	ffffffff 			; <UNDEFINED> instruction: 0xffffffff
 a0c:	7c020001 	stcvc	0, cr0, [r2], {1}
 a10:	000d0c0e 	andeq	r0, sp, lr, lsl #24
 a14:	0000000c 	andeq	r0, r0, ip
 a18:	00000a04 	andeq	r0, r0, r4, lsl #20
 a1c:	f000336c 			; <UNDEFINED> instruction: 0xf000336c
 a20:	00000008 	andeq	r0, r0, r8
 a24:	0000000c 	andeq	r0, r0, ip
 a28:	00000a04 	andeq	r0, r0, r4, lsl #20
 a2c:	f0003374 			; <UNDEFINED> instruction: 0xf0003374
 a30:	00000008 	andeq	r0, r0, r8
 a34:	00000010 	andeq	r0, r0, r0, lsl r0
 a38:	00000a04 	andeq	r0, r0, r4, lsl #20
 a3c:	f000337c 			; <UNDEFINED> instruction: 0xf000337c
 a40:	000000c4 	andeq	r0, r0, r4, asr #1
 a44:	00080e44 	andeq	r0, r8, r4, asr #28
 a48:	00000010 	andeq	r0, r0, r0, lsl r0
 a4c:	00000a04 	andeq	r0, r0, r4, lsl #20
 a50:	f0003440 			; <UNDEFINED> instruction: 0xf0003440
 a54:	000000a4 	andeq	r0, r0, r4, lsr #1
 a58:	00080e44 	andeq	r0, r8, r4, asr #28
 a5c:	00000010 	andeq	r0, r0, r0, lsl r0
 a60:	00000a04 	andeq	r0, r0, r4, lsl #20
 a64:	f00034e4 			; <UNDEFINED> instruction: 0xf00034e4
 a68:	00000054 	andeq	r0, r0, r4, asr r0
 a6c:	00080e44 	andeq	r0, r8, r4, asr #28
 a70:	00000010 	andeq	r0, r0, r0, lsl r0
 a74:	00000a04 	andeq	r0, r0, r4, lsl #20
 a78:	f0003538 			; <UNDEFINED> instruction: 0xf0003538
 a7c:	0000002c 	andeq	r0, r0, ip, lsr #32
 a80:	00080e44 	andeq	r0, r8, r4, asr #28
 a84:	0000000c 	andeq	r0, r0, ip
 a88:	00000a04 	andeq	r0, r0, r4, lsl #20
 a8c:	f0003564 			; <UNDEFINED> instruction: 0xf0003564
 a90:	00000020 	andeq	r0, r0, r0, lsr #32
 a94:	00000010 	andeq	r0, r0, r0, lsl r0
 a98:	00000a04 	andeq	r0, r0, r4, lsl #20
 a9c:	f0003584 			; <UNDEFINED> instruction: 0xf0003584
 aa0:	000000ec 	andeq	r0, r0, ip, ror #1
 aa4:	00080e44 	andeq	r0, r8, r4, asr #28
 aa8:	0000000c 	andeq	r0, r0, ip
 aac:	00000a04 	andeq	r0, r0, r4, lsl #20
 ab0:	f0003670 			; <UNDEFINED> instruction: 0xf0003670
 ab4:	00000034 	andeq	r0, r0, r4, lsr r0
 ab8:	0000000c 	andeq	r0, r0, ip
 abc:	ffffffff 			; <UNDEFINED> instruction: 0xffffffff
 ac0:	7c020001 	stcvc	0, cr0, [r2], {1}
 ac4:	000d0c0e 	andeq	r0, sp, lr, lsl #24
 ac8:	0000000c 	andeq	r0, r0, ip
 acc:	00000ab8 			; <UNDEFINED> instruction: 0x00000ab8
 ad0:	f00036a4 			; <UNDEFINED> instruction: 0xf00036a4
 ad4:	00000008 	andeq	r0, r0, r8
 ad8:	0000000c 	andeq	r0, r0, ip
 adc:	00000ab8 			; <UNDEFINED> instruction: 0x00000ab8
 ae0:	f00036ac 			; <UNDEFINED> instruction: 0xf00036ac
 ae4:	00000008 	andeq	r0, r0, r8
 ae8:	0000000c 	andeq	r0, r0, ip
 aec:	00000ab8 			; <UNDEFINED> instruction: 0x00000ab8
 af0:	f00036b4 			; <UNDEFINED> instruction: 0xf00036b4
 af4:	00000024 	andeq	r0, r0, r4, lsr #32
 af8:	0000000c 	andeq	r0, r0, ip
 afc:	00000ab8 			; <UNDEFINED> instruction: 0x00000ab8
 b00:	f00036d8 			; <UNDEFINED> instruction: 0xf00036d8
 b04:	00000020 	andeq	r0, r0, r0, lsr #32
 b08:	0000000c 	andeq	r0, r0, ip
 b0c:	ffffffff 			; <UNDEFINED> instruction: 0xffffffff
 b10:	7c020001 	stcvc	0, cr0, [r2], {1}
 b14:	000d0c0e 	andeq	r0, sp, lr, lsl #24
 b18:	0000000c 	andeq	r0, r0, ip
 b1c:	00000b08 	andeq	r0, r0, r8, lsl #22
 b20:	f00036f8 			; <UNDEFINED> instruction: 0xf00036f8
 b24:	00000028 	andeq	r0, r0, r8, lsr #32
 b28:	0000000c 	andeq	r0, r0, ip
 b2c:	00000b08 	andeq	r0, r0, r8, lsl #22
 b30:	f0003720 			; <UNDEFINED> instruction: 0xf0003720
 b34:	00000008 	andeq	r0, r0, r8
 b38:	00000018 	andeq	r0, r0, r8, lsl r0
 b3c:	00000b08 	andeq	r0, r0, r8, lsl #22
 b40:	f0003728 			; <UNDEFINED> instruction: 0xf0003728
 b44:	00000094 	muleq	r0, r4, r0
 b48:	8e100e42 	cdphi	14, 1, cr0, cr0, cr2, {2}
 b4c:	84028501 	strhi	r8, [r2], #-1281	; 0x501
 b50:	00048303 	andeq	r8, r4, r3, lsl #6
 b54:	00000014 	andeq	r0, r0, r4, lsl r0
 b58:	00000b08 	andeq	r0, r0, r8, lsl #22
 b5c:	f00037bc 			; <UNDEFINED> instruction: 0xf00037bc
 b60:	0000002c 	andeq	r0, r0, ip, lsr #32
 b64:	8e080e42 	cdphi	14, 0, cr0, cr8, cr2, {2}
 b68:	00028401 	andeq	r8, r2, r1, lsl #8
 b6c:	0000000c 	andeq	r0, r0, ip
 b70:	ffffffff 			; <UNDEFINED> instruction: 0xffffffff
 b74:	7c020001 	stcvc	0, cr0, [r2], {1}
 b78:	000d0c0e 	andeq	r0, sp, lr, lsl #24
 b7c:	0000000c 	andeq	r0, r0, ip
 b80:	00000b6c 	andeq	r0, r0, ip, ror #22
 b84:	f00037e8 			; <UNDEFINED> instruction: 0xf00037e8
 b88:	00000030 	andeq	r0, r0, r0, lsr r0
 b8c:	00000014 	andeq	r0, r0, r4, lsl r0
 b90:	00000b6c 	andeq	r0, r0, ip, ror #22
 b94:	f0003818 			; <UNDEFINED> instruction: 0xf0003818
 b98:	0000007c 	andeq	r0, r0, ip, ror r0
 b9c:	8e080e42 	cdphi	14, 0, cr0, cr8, cr2, {2}
 ba0:	00028301 	andeq	r8, r2, r1, lsl #6
 ba4:	0000000c 	andeq	r0, r0, ip
 ba8:	00000b6c 	andeq	r0, r0, ip, ror #22
 bac:	f0003894 			; <UNDEFINED> instruction: 0xf0003894
 bb0:	00000030 	andeq	r0, r0, r0, lsr r0
 bb4:	0000000c 	andeq	r0, r0, ip
 bb8:	00000b6c 	andeq	r0, r0, ip, ror #22
 bbc:	f00038c4 			; <UNDEFINED> instruction: 0xf00038c4
 bc0:	0000006c 	andeq	r0, r0, ip, rrx
 bc4:	0000000c 	andeq	r0, r0, ip
 bc8:	00000b6c 	andeq	r0, r0, ip, ror #22
 bcc:	f0003930 			; <UNDEFINED> instruction: 0xf0003930
 bd0:	00000030 	andeq	r0, r0, r0, lsr r0
